

Microchip MPLAB XC8 Assembler V2.32 build 20210201212658 
                                                                                               Tue Apr 06 20:40:44 2021

Microchip MPLAB XC8 C Compiler v2.32 (Free license) build 20210201212658 Og1 
     1                           	processor	18F27K42
     2                           	fnconf	rparam,??,?,0
     3                           	pagewidth 120
     4                           	opt	flic
     5                           	psect	smallconst,global,reloc=2,class=SMALLCONST,delta=1,noexec
     6                           	psect	cinit,global,reloc=2,class=CODE,delta=1
     7                           	psect	bssCOMRAM,global,class=COMRAM,space=1,delta=1,lowdata,noexec
     8                           	psect	bssBANK0,global,class=BANK0,space=1,delta=1,lowdata,noexec
     9                           	psect	cstackBANK0,global,class=BANK0,space=1,delta=1,lowdata,noexec
    10                           	psect	cstackCOMRAM,global,class=COMRAM,space=1,delta=1,lowdata,noexec
    11                           	psect	text0,global,reloc=2,class=CODE,delta=1
    12                           	psect	text1,global,reloc=2,class=CODE,delta=1
    13                           	psect	text2,global,reloc=2,class=CODE,delta=1,group=1
    14                           	psect	text3,global,reloc=2,class=CODE,delta=1,group=1
    15                           	psect	text4,global,reloc=2,class=CODE,delta=1,group=1
    16                           	psect	text5,global,reloc=2,class=CODE,delta=1,group=1
    17                           	psect	text6,global,reloc=2,class=CODE,delta=1,group=1
    18                           	psect	text7,global,reloc=2,class=CODE,delta=1
    19                           	psect	text8,global,reloc=2,class=CODE,delta=1
    20                           	psect	text9,global,reloc=2,class=CODE,delta=1
    21                           	psect	text10,global,reloc=2,class=CODE,delta=1
    22                           	psect	text11,global,reloc=2,class=CODE,delta=1
    23                           	psect	text12,global,reloc=2,class=CODE,delta=1
    24                           	psect	text13,global,reloc=2,class=CODE,delta=1
    25                           	psect	text14,global,reloc=2,class=CODE,delta=1
    26                           	psect	text15,global,reloc=2,class=CODE,delta=1
    27                           	psect	text16,global,reloc=2,class=CODE,delta=1
    28                           	psect	text17,global,reloc=2,class=CODE,delta=1
    29                           	psect	text18,global,reloc=2,class=CODE,delta=1
    30                           	psect	text19,global,reloc=2,class=CODE,delta=1
    31                           	psect	text20,global,reloc=2,class=CODE,delta=1
    32                           	psect	text21,global,reloc=2,class=CODE,delta=1
    33                           	psect	text22,global,reloc=4,class=CODE,delta=1
    34                           	psect	text23,global,reloc=4,class=CODE,delta=1
    35                           	psect	ivt0x8,global,reloc=2,class=CODE,delta=1,noexec,keep,optim=
    36                           	psect	intsave_regs,global,class=BIGRAM,space=1,delta=1,noexec
    37                           	psect	rparam,global,class=COMRAM,space=1,delta=1,noexec
    38                           	psect	idloc,global,abs,ovrld,class=IDLOC,space=5,delta=1,noexec
    39                           	psect	config,global,abs,ovrld,class=CONFIG,space=4,delta=1,noexec
    40  0000                     
    41                           ; Version 2.20
    42                           ; Generated 05/05/2020 GMT
    43                           ; 
    44                           ; Copyright © 2020, Microchip Technology Inc. and its subsidiaries ("Microchip")
    45                           ; All rights reserved.
    46                           ; 
    47                           ; This software is developed by Microchip Technology Inc. and its subsidiaries ("Microch
      +                          ip").
    48                           ; 
    49                           ; Redistribution and use in source and binary forms, with or without modification, are
    50                           ; permitted provided that the following conditions are met:
    51                           ; 
    52                           ;     1. Redistributions of source code must retain the above copyright notice, this lis
      +                          t of
    53                           ;        conditions and the following disclaimer.
    54                           ; 
    55                           ;     2. Redistributions in binary form must reproduce the above copyright notice, this 
      +                          list
    56                           ;        of conditions and the following disclaimer in the documentation and/or other
    57                           ;        materials provided with the distribution.
    58                           ; 
    59                           ;     3. Microchip's name may not be used to endorse or promote products derived from th
      +                          is
    60                           ;        software without specific prior written permission.
    61                           ; 
    62                           ; THIS SOFTWARE IS PROVIDED BY MICROCHIP "AS IS" AND ANY EXPRESS OR IMPLIED WARRANTIES,
    63                           ; INCLUDING, BUT NOT LIMITED TO, THE IMPLIED WARRANTIES OF MERCHANTABILITY AND FITNESS F
      +                          OR
    64                           ; PURPOSE ARE DISCLAIMED.  IN NO EVENT SHALL MICROCHIP BE LIABLE FOR ANY DIRECT, INDIREC
      +                          T,
    65                           ; INCIDENTAL, SPECIAL, EXEMPLARY, OR CONSEQUENTIAL DAMAGES (INCLUDING BUT NOT LIMITED TO
    66                           ; PROCUREMENT OF SUBSTITUTE GOODS OR SERVICES; LOSS OF USE, DATA OR PROFITS; OR BUSINESS
    67                           ; INTERRUPTION) HOWSOEVER CAUSED AND ON ANY THEORY OF LIABILITY, WHETHER IN CONTRACT, ST
      +                          RICT
    68                           ; LIABILITY, OR TORT (INCLUDING NEGLIGENCE OR OTHERWISE) ARISING IN ANY WAY OUT OF THE U
      +                          SE OF
    69                           ; THIS SOFTWARE, EVEN IF ADVISED OF THE POSSIBILITY OF SUCH DAMAGE.
    70                           ; 
    71                           ; 
    72                           ; Code-generator required, PIC18F27K42 Definitions
    73                           ; 
    74                           ; SFR Addresses
    75  0000                     _PIR4bits	set	14756
    76  0000                     _PIR10	set	14762
    77  0000                     _PIR9	set	14761
    78  0000                     _PIR8	set	14760
    79  0000                     _PIR7	set	14759
    80  0000                     _PIR6	set	14758
    81  0000                     _PIR5	set	14757
    82  0000                     _PIR4	set	14756
    83  0000                     _PIR3	set	14755
    84  0000                     _PIR2	set	14754
    85  0000                     _PIR1	set	14753
    86  0000                     _PIE4bits	set	14740
    87  0000                     _CPUDOZEbits	set	14808
    88  0000                     _TMR1IF	set	118048
    89  0000                     _RC4PPS	set	14868
    90  0000                     _ANSELA	set	14912
    91  0000                     _MD1CON0bits	set	15610
    92  0000                     _MD1SRCbits	set	15612
    93  0000                     _MD1CARHbits	set	15614
    94  0000                     _MD1CON1bits	set	15611
    95  0000                     _PWM5CONbits	set	16238
    96  0000                     _T2CONbits	set	16300
    97  0000                     _T2CLKbits	set	16302
    98  0000                     _PWM5DCHbits	set	16237
    99  0000                     _PWM5DCLbits	set	16236
   100  0000                     _T2PR	set	16299
   101  0000                     _PWM5CON	set	16238
   102  0000                     _T4HLTbits	set	16289
   103  0000                     _T4PRbits	set	16287
   104  0000                     _T4CONbits	set	16288
   105  0000                     _T4CLKbits	set	16290
   106  0000                     _TMR1L	set	16304
   107  0000                     _TMR1H	set	16305
   108  0000                     _T1GCONbits	set	16307
   109  0000                     _T1CLKbits	set	16309
   110  0000                     _T1CONbits	set	16306
   111  0000                     _INTCON0bits	set	16338
   112  0000                     _TRISCbits	set	16324
   113  0000                     _TRISAbits	set	16322
   114  0000                     _PORTAbits	set	16330
   115                           
   116                           	psect	smallconst
   117  002000                     __psmallconst:
   118                           	callstack 0
   119  002000  00                 	db	0
   120  002001                     STR_1:
   121                           
   122                           ; BSR set to: 0
   123  002001  47                 	db	71	;'G'
   124  002002  6F                 	db	111	;'o'
   125  002003  6F                 	db	111	;'o'
   126  002004  64                 	db	100	;'d'
   127  002005  20                 	db	32
   128  002006  6C                 	db	108	;'l'
   129  002007  75                 	db	117	;'u'
   130  002008  63                 	db	99	;'c'
   131  002009  6B                 	db	107	;'k'
   132  00200A  00                 	db	0
   133  00200B                     STR_2:
   134                           
   135                           ; BSR set to: 0
   136  00200B  4E                 	db	78	;'N'
   137  00200C  30                 	db	48	;'0'
   138  00200D  4D                 	db	77	;'M'
   139  00200E  43                 	db	67	;'C'
   140  00200F  57                 	db	87	;'W'
   141  002010  00                 	db	0
   142  002011                     STR_3:
   143                           
   144                           ; BSR set to: 0
   145  002011  4F                 	db	79	;'O'
   146  002012  4B                 	db	75	;'K'
   147  002013  20                 	db	32
   148  002014  00                 	db	0
   149  002015  00                 	db	0	; dummy byte at the end
   150  0000                     
   151                           ; #config settings
   152                           
   153                           	psect	cinit
   154  003B1A                     __pcinit:
   155                           	callstack 0
   156  003B1A                     start_initialization:
   157                           	callstack 0
   158  003B1A                     __initialization:
   159                           	callstack 0
   160                           
   161                           ; Clear objects allocated to BANK0 (4 bytes)
   162  003B1A  0100               	movlb	0
   163  003B1C  6B6A               	clrf	(__pbssBANK0+3)& (0+255),b
   164  003B1E  6B69               	clrf	(__pbssBANK0+2)& (0+255),b
   165  003B20  6B68               	clrf	(__pbssBANK0+1)& (0+255),b
   166  003B22  6B67               	clrf	__pbssBANK0& (0+255),b
   167                           
   168                           ; Clear objects allocated to COMRAM (1 bytes)
   169  003B24  6A59               	clrf	__pbssCOMRAM& (0+255),c
   170                           
   171                           ;
   172                           ; Setup IVTBASE
   173                           ;
   174  003B26  0E08               	movlw	(ivt0x8_base shr 0)& (0+255)
   175  003B28  6ED5               	movwf	213,c
   176  003B2A  0E00               	movlw	(ivt0x8_base shr (0+8))& (0+255)
   177  003B2C  6ED6               	movwf	214,c
   178  003B2E  0E00               	movlw	(ivt0x8_base shr (0+16))& (0+255)
   179  003B30  6ED7               	movwf	215,c
   180  003B32                     end_of_initialization:
   181                           	callstack 0
   182  003B32                     __end_of__initialization:
   183                           	callstack 0
   184  003B32  0100               	movlb	0
   185  003B34  EF20  F01C         	goto	_main	;jump to C main() function
   186                           
   187                           	psect	bssCOMRAM
   188  000059                     __pbssCOMRAM:
   189                           	callstack 0
   190  000059                     _transmit:
   191                           	callstack 0
   192  000059                     	ds	1
   193                           
   194                           	psect	bssBANK0
   195  000067                     __pbssBANK0:
   196                           	callstack 0
   197  000067                     _dit_length:
   198                           	callstack 0
   199  000067                     	ds	2
   200  000069                     _transmit_change:
   201                           	callstack 0
   202  000069                     	ds	1
   203  00006A                     _fox_hunt:
   204                           	callstack 0
   205  00006A                     	ds	1
   206                           
   207                           	psect	cstackBANK0
   208  000060                     __pcstackBANK0:
   209                           	callstack 0
   210  000060                     _initialize_tone_generator$1701:
   211                           	callstack 0
   212                           
   213                           ; 4 bytes @ 0x0
   214  000060                     	ds	4
   215  000064                     initialize_tone_generator@duty_cycle_l:
   216                           	callstack 0
   217                           
   218                           ; 1 bytes @ 0x4
   219  000064                     	ds	1
   220  000065                     initialize_tone_generator@period_value:
   221                           	callstack 0
   222                           
   223                           ; 1 bytes @ 0x5
   224  000065                     	ds	1
   225  000066                     initialize_tone_generator@duty_cycle:
   226                           	callstack 0
   227                           
   228                           ; 1 bytes @ 0x6
   229  000066                     	ds	1
   230                           
   231                           	psect	cstackCOMRAM
   232  000001                     __pcstackCOMRAM:
   233                           	callstack 0
   234  000001                     ??_DEFAULT_ISR:
   235                           
   236                           ; 1 bytes @ 0x0
   237  000001                     	ds	1
   238  000002                     ?___fldiv:
   239                           	callstack 0
   240  000002                     ?___xxtofl:
   241                           	callstack 0
   242  000002                     tone_enable@tone_active:
   243                           	callstack 0
   244  000002                     dahspace@i:
   245                           	callstack 0
   246  000002                     ___fldiv@b:
   247                           	callstack 0
   248  000002                     ___xxtofl@val:
   249                           	callstack 0
   250                           
   251                           ; 4 bytes @ 0x1
   252  000002                     	ds	1
   253  000003                     initialize_cw@speed:
   254                           	callstack 0
   255                           
   256                           ; 2 bytes @ 0x2
   257  000003                     	ds	1
   258  000004                     ??_cw:
   259  000004                     
   260                           ; 1 bytes @ 0x3
   261  000004                     	ds	1
   262  000005                     
   263                           ; 1 bytes @ 0x4
   264  000005                     	ds	1
   265  000006                     ??___xxtofl:
   266  000006                     cw@character:
   267                           	callstack 0
   268  000006                     ___fldiv@a:
   269                           	callstack 0
   270                           
   271                           ; 4 bytes @ 0x5
   272  000006                     	ds	1
   273  000007                     cw_message@message:
   274                           	callstack 0
   275                           
   276                           ; 2 bytes @ 0x6
   277  000007                     	ds	2
   278  000009                     cw_message@message_size:
   279                           	callstack 0
   280                           
   281                           ; 2 bytes @ 0x8
   282  000009                     	ds	1
   283  00000A                     ??___fldiv:
   284  00000A                     ___xxtofl@sign:
   285                           	callstack 0
   286                           
   287                           ; 1 bytes @ 0x9
   288  00000A                     	ds	1
   289  00000B                     ??_cw_message:
   290  00000B                     ___xxtofl@exp:
   291                           	callstack 0
   292                           
   293                           ; 1 bytes @ 0xA
   294  00000B                     	ds	1
   295  00000C                     ___xxtofl@arg:
   296                           	callstack 0
   297                           
   298                           ; 4 bytes @ 0xB
   299  00000C                     	ds	1
   300  00000D                     cw_message@i:
   301                           	callstack 0
   302                           
   303                           ; 2 bytes @ 0xC
   304  00000D                     	ds	1
   305  00000E                     ___fldiv@rem:
   306                           	callstack 0
   307                           
   308                           ; 4 bytes @ 0xD
   309  00000E                     	ds	1
   310  00000F                     ??_cycle_transmitter:
   311  00000F                     ??_end_foxhunt:
   312                           
   313                           ; 1 bytes @ 0xE
   314  00000F                     	ds	3
   315  000012                     ___fldiv@sign:
   316                           	callstack 0
   317                           
   318                           ; 1 bytes @ 0x11
   319  000012                     	ds	1
   320  000013                     ___fldiv@new_exp:
   321                           	callstack 0
   322                           
   323                           ; 2 bytes @ 0x12
   324  000013                     	ds	2
   325  000015                     ___fldiv@grs:
   326                           	callstack 0
   327                           
   328                           ; 4 bytes @ 0x14
   329  000015                     	ds	4
   330  000019                     ___fldiv@bexp:
   331                           	callstack 0
   332                           
   333                           ; 1 bytes @ 0x18
   334  000019                     	ds	1
   335  00001A                     ___fldiv@aexp:
   336                           	callstack 0
   337                           
   338                           ; 1 bytes @ 0x19
   339  00001A                     	ds	1
   340  00001B                     ?___flmul:
   341                           	callstack 0
   342  00001B                     ___flmul@b:
   343                           	callstack 0
   344                           
   345                           ; 4 bytes @ 0x1A
   346  00001B                     	ds	4
   347  00001F                     ___flmul@a:
   348                           	callstack 0
   349                           
   350                           ; 4 bytes @ 0x1E
   351  00001F                     	ds	4
   352  000023                     ??___flmul:
   353                           
   354                           ; 1 bytes @ 0x22
   355  000023                     	ds	4
   356  000027                     ___flmul@sign:
   357                           	callstack 0
   358                           
   359                           ; 1 bytes @ 0x26
   360  000027                     	ds	1
   361  000028                     ___flmul@aexp:
   362                           	callstack 0
   363                           
   364                           ; 1 bytes @ 0x27
   365  000028                     	ds	1
   366  000029                     ___flmul@grs:
   367                           	callstack 0
   368                           
   369                           ; 4 bytes @ 0x28
   370  000029                     	ds	4
   371  00002D                     ___flmul@bexp:
   372                           	callstack 0
   373                           
   374                           ; 1 bytes @ 0x2C
   375  00002D                     	ds	1
   376  00002E                     ___flmul@prod:
   377                           	callstack 0
   378                           
   379                           ; 4 bytes @ 0x2D
   380  00002E                     	ds	4
   381  000032                     ___flmul@temp:
   382                           	callstack 0
   383                           
   384                           ; 2 bytes @ 0x31
   385  000032                     	ds	2
   386  000034                     ?___fladd:
   387                           	callstack 0
   388  000034                     ___fladd@b:
   389                           	callstack 0
   390                           
   391                           ; 4 bytes @ 0x33
   392  000034                     	ds	4
   393  000038                     ___fladd@a:
   394                           	callstack 0
   395                           
   396                           ; 4 bytes @ 0x37
   397  000038                     	ds	4
   398  00003C                     ??___fladd:
   399                           
   400                           ; 1 bytes @ 0x3B
   401  00003C                     	ds	4
   402  000040                     ___fladd@signs:
   403                           	callstack 0
   404                           
   405                           ; 1 bytes @ 0x3F
   406  000040                     	ds	1
   407  000041                     ___fladd@aexp:
   408                           	callstack 0
   409                           
   410                           ; 1 bytes @ 0x40
   411  000041                     	ds	1
   412  000042                     ___fladd@bexp:
   413                           	callstack 0
   414                           
   415                           ; 1 bytes @ 0x41
   416  000042                     	ds	1
   417  000043                     ___fladd@grs:
   418                           	callstack 0
   419                           
   420                           ; 1 bytes @ 0x42
   421  000043                     	ds	1
   422  000044                     ?___fltol:
   423                           	callstack 0
   424  000044                     ___fltol@f1:
   425                           	callstack 0
   426                           
   427                           ; 4 bytes @ 0x43
   428  000044                     	ds	4
   429  000048                     ??___fltol:
   430                           
   431                           ; 1 bytes @ 0x47
   432  000048                     	ds	4
   433  00004C                     ___fltol@sign1:
   434                           	callstack 0
   435                           
   436                           ; 1 bytes @ 0x4B
   437  00004C                     	ds	1
   438  00004D                     ___fltol@exp1:
   439                           	callstack 0
   440                           
   441                           ; 1 bytes @ 0x4C
   442  00004D                     	ds	1
   443  00004E                     initialize_tone_generator@osc_freq:
   444                           	callstack 0
   445                           
   446                           ; 4 bytes @ 0x4D
   447  00004E                     	ds	4
   448  000052                     initialize_tone_generator@pwm_freq:
   449                           	callstack 0
   450                           
   451                           ; 4 bytes @ 0x51
   452  000052                     	ds	4
   453  000056                     ??_initialize_tone_generator:
   454                           
   455                           ; 1 bytes @ 0x55
   456  000056                     	ds	2
   457  000058                     ??_main:
   458                           
   459                           ; 1 bytes @ 0x57
   460  000058                     	ds	1
   461                           
   462 ;;
   463 ;;Main: autosize = 0, tempsize = 1, incstack = 0, save=0
   464 ;;
   465 ;; *************** function _main *****************
   466 ;; Defined at:
   467 ;;		line 29 in file "main.c"
   468 ;; Parameters:    Size  Location     Type
   469 ;;		None
   470 ;; Auto vars:     Size  Location     Type
   471 ;;		None
   472 ;; Return value:  Size  Location     Type
   473 ;;                  1    wreg      void 
   474 ;; Registers used:
   475 ;;		wreg, status,2, status,0, tblptrl, tblptrh, tblptru, prodl, prodh, cstack
   476 ;; Tracked objects:
   477 ;;		On entry : 0/0
   478 ;;		On exit  : 0/0
   479 ;;		Unchanged: 0/0
   480 ;; Data sizes:     COMRAM   BANK0   BANK1   BANK2   BANK3   BANK4   BANK5   BANK6   BANK7   BANK8   BANK9  BANK10  BANK1
      +1  BANK12  BANK13  BANK14  BANK15  BANK16  BANK17  BANK18  BANK19  BANK20  BANK21  BANK22  BANK23  BANK24  BANK25  BANK2
      +6  BANK27  BANK28  BANK29  BANK30  BANK31
   481 ;;      Params:         0       0       0       0       0       0       0       0       0       0       0       0       
      +0       0       0       0       0       0       0       0       0       0       0       0       0       0       0       
      +0       0       0       0       0       0
   482 ;;      Locals:         0       0       0       0       0       0       0       0       0       0       0       0       
      +0       0       0       0       0       0       0       0       0       0       0       0       0       0       0       
      +0       0       0       0       0       0
   483 ;;      Temps:          1       0       0       0       0       0       0       0       0       0       0       0       
      +0       0       0       0       0       0       0       0       0       0       0       0       0       0       0       
      +0       0       0       0       0       0
   484 ;;      Totals:         1       0       0       0       0       0       0       0       0       0       0       0       
      +0       0       0       0       0       0       0       0       0       0       0       0       0       0       0       
      +0       0       0       0       0       0
   485 ;;Total ram usage:        1 bytes
   486 ;; Hardware stack levels required when called: 8
   487 ;; This function calls:
   488 ;;		_configure_timer
   489 ;;		_cw_message
   490 ;;		_cycle_transmitter
   491 ;;		_deinitialize_cw
   492 ;;		_end_foxhunt
   493 ;;		_initialize_cw
   494 ;;		_initialize_interrupts
   495 ;;		_initialize_pins
   496 ;;		_initialize_tone_generator
   497 ;; This function is called by:
   498 ;;		Startup code after reset
   499 ;; This function uses a non-reentrant model
   500 ;;
   501                           
   502                           	psect	text0
   503  003840                     __ptext0:
   504                           	callstack 0
   505  003840                     _main:
   506                           	callstack 23
   507  003840                     
   508                           ;main.c: 30:     initialize_pins();
   509  003840  ECB3  F01D         	call	_initialize_pins	;wreg free
   510  003844                     
   511                           ;main.c: 31:     initialize_interrupts();
   512  003844  ECC9  F01D         	call	_initialize_interrupts	;wreg free
   513  003848                     
   514                           ;main.c: 32:     configure_timer();
   515  003848  ECD5  F01D         	call	_configure_timer	;wreg free
   516  00384C                     l4353:
   517                           
   518                           ;main.c: 37:         CPUDOZEbits.DOZE = 0b011;
   519  00384C  0139               	movlb	57	; () banked
   520  00384E  51D8               	movf	216,w,b	;volatile
   521  003850  0BF8               	andlw	-8
   522  003852  0903               	iorlw	3
   523  003854  6FD8               	movwf	216,b	;volatile
   524  003856                     
   525                           ; BSR set to: 57
   526                           ;main.c: 38:         CPUDOZEbits.DOZEN = 1;
   527  003856  8DD8               	bsf	216,6,b	;volatile
   528  003858                     l82:
   529  003858  A0CA               	btfss	202,0,c	;volatile
   530  00385A  EF31  F01C         	goto	u3241
   531  00385E  EF33  F01C         	goto	u3240
   532  003862                     u3241:
   533  003862  EF2C  F01C         	goto	l82
   534  003866                     u3240:
   535  003866                     l85:
   536  003866  B0CA               	btfsc	202,0,c	;volatile
   537  003868  EF38  F01C         	goto	u3251
   538  00386C  EF3A  F01C         	goto	u3250
   539  003870                     u3251:
   540  003870  EF33  F01C         	goto	l85
   541  003874                     u3250:
   542  003874                     
   543                           ;main.c: 41:         CPUDOZEbits.DOZEN = 0;
   544  003874  0139               	movlb	57	; () banked
   545  003876  9DD8               	bcf	216,6,b	;volatile
   546  003878                     
   547                           ; BSR set to: 57
   548                           ;main.c: 43:         initialize_tone_generator(31000UL, 550);
   549  003878  0E00               	movlw	0
   550  00387A  6E4E               	movwf	initialize_tone_generator@osc_freq^0,c
   551  00387C  0E30               	movlw	48
   552  00387E  6E4F               	movwf	(initialize_tone_generator@osc_freq+1)^0,c
   553  003880  0EF2               	movlw	242
   554  003882  6E50               	movwf	(initialize_tone_generator@osc_freq+2)^0,c
   555  003884  0E46               	movlw	70
   556  003886  6E51               	movwf	(initialize_tone_generator@osc_freq+3)^0,c
   557  003888  0E00               	movlw	0
   558  00388A  6E52               	movwf	initialize_tone_generator@pwm_freq^0,c
   559  00388C  0E80               	movlw	128
   560  00388E  6E53               	movwf	(initialize_tone_generator@pwm_freq+1)^0,c
   561  003890  0E09               	movlw	9
   562  003892  6E54               	movwf	(initialize_tone_generator@pwm_freq+2)^0,c
   563  003894  0E44               	movlw	68
   564  003896  6E55               	movwf	(initialize_tone_generator@pwm_freq+3)^0,c
   565  003898  ECE6  F01A         	call	_initialize_tone_generator	;wreg free
   566  00389C                     
   567                           ;main.c: 44:         initialize_cw(60);
   568  00389C  0E00               	movlw	0
   569  00389E  6E04               	movwf	(initialize_cw@speed+1)^0,c
   570  0038A0  0E3C               	movlw	60
   571  0038A2  6E03               	movwf	initialize_cw@speed^0,c
   572  0038A4  EC24  F01D         	call	_initialize_cw	;wreg free
   573  0038A8                     
   574                           ;main.c: 45:         fox_hunt = 1;
   575  0038A8  0E01               	movlw	1
   576  0038AA  0100               	movlb	0	; () banked
   577  0038AC  6F6A               	movwf	_fox_hunt& (0+255),b
   578  0038AE                     
   579                           ; BSR set to: 0
   580                           ;main.c: 46:         transmit_change = 1;
   581  0038AE  0E01               	movlw	1
   582  0038B0  6F69               	movwf	_transmit_change& (0+255),b
   583  0038B2                     
   584                           ; BSR set to: 0
   585                           ;main.c: 47:         transmit = 1;
   586  0038B2  0E01               	movlw	1
   587  0038B4  6E59               	movwf	_transmit^0,c
   588  0038B6                     
   589                           ; BSR set to: 0
   590                           ;main.c: 48:         PORTAbits.RA1 = 1;
   591  0038B6  82CA               	bsf	202,1,c	;volatile
   592  0038B8                     
   593                           ; BSR set to: 0
   594                           ;main.c: 49:         _delay((unsigned long)((500)*(31000UL/4000.0)));
   595  0038B8  0E06               	movlw	6
   596  0038BA  6E58               	movwf	??_main^0,c
   597  0038BC  0E07               	movlw	7
   598  0038BE                     u3277:
   599  0038BE  2EE8               	decfsz	wreg,f,c
   600  0038C0  D7FE               	bra	u3277
   601  0038C2  2E58               	decfsz	??_main^0,f,c
   602  0038C4  D7FC               	bra	u3277
   603  0038C6                     
   604                           ;main.c: 51:         cw_message("Good luck", 9);
   605  0038C6  0E01               	movlw	low STR_1
   606  0038C8  6E07               	movwf	cw_message@message^0,c
   607  0038CA  0E20               	movlw	high STR_1
   608  0038CC  6E08               	movwf	(cw_message@message+1)^0,c
   609  0038CE  0E00               	movlw	0
   610  0038D0  6E0A               	movwf	(cw_message@message_size+1)^0,c
   611  0038D2  0E09               	movlw	9
   612  0038D4  6E09               	movwf	cw_message@message_size^0,c
   613  0038D6  ECFA  F01C         	call	_cw_message	;wreg free
   614  0038DA                     
   615                           ;main.c: 52:         deinitialize_cw();
   616  0038DA  ECCF  F01D         	call	_deinitialize_cw	;wreg free
   617                           
   618                           ;main.c: 55:         while(fox_hunt) {
   619  0038DE  EF75  F01C         	goto	l4377
   620  0038E2                     l4375:
   621                           
   622                           ; BSR set to: 0
   623                           ;main.c: 57:             cycle_transmitter();
   624  0038E2  ECC2  F01C         	call	_cycle_transmitter	;wreg free
   625                           
   626                           ;main.c: 60:             end_foxhunt();
   627  0038E6  EC82  F01C         	call	_end_foxhunt	;wreg free
   628  0038EA                     l4377:
   629                           
   630                           ;main.c: 55:         while(fox_hunt) {
   631  0038EA  0100               	movlb	0	; () banked
   632  0038EC  516A               	movf	_fox_hunt& (0+255),w,b
   633  0038EE  A4D8               	btfss	status,2,c
   634  0038F0  EF7C  F01C         	goto	u3261
   635  0038F4  EF7E  F01C         	goto	u3260
   636  0038F8                     u3261:
   637  0038F8  EF71  F01C         	goto	l4375
   638  0038FC                     u3260:
   639  0038FC  EF26  F01C         	goto	l4353
   640  003900  EF57  F000         	goto	start
   641  003904                     __end_of_main:
   642                           	callstack 0
   643                           
   644 ;; *************** function _initialize_tone_generator *****************
   645 ;; Defined at:
   646 ;;		line 11 in file "tone_generator.c"
   647 ;; Parameters:    Size  Location     Type
   648 ;;  osc_freq        4   77[COMRAM] float 
   649 ;;  pwm_freq        4   81[COMRAM] float 
   650 ;; Auto vars:     Size  Location     Type
   651 ;;  mask            2    0        unsigned int 
   652 ;;  duty_cycle      1    6[BANK0 ] unsigned char 
   653 ;;  period_value    1    5[BANK0 ] unsigned char 
   654 ;;  duty_cycle_l    1    4[BANK0 ] unsigned char 
   655 ;; Return value:  Size  Location     Type
   656 ;;                  1    wreg      void 
   657 ;; Registers used:
   658 ;;		wreg, status,2, status,0, prodl, prodh, cstack
   659 ;; Tracked objects:
   660 ;;		On entry : 0/0
   661 ;;		On exit  : 0/0
   662 ;;		Unchanged: 0/0
   663 ;; Data sizes:     COMRAM   BANK0   BANK1   BANK2   BANK3   BANK4   BANK5   BANK6   BANK7   BANK8   BANK9  BANK10  BANK1
      +1  BANK12  BANK13  BANK14  BANK15  BANK16  BANK17  BANK18  BANK19  BANK20  BANK21  BANK22  BANK23  BANK24  BANK25  BANK2
      +6  BANK27  BANK28  BANK29  BANK30  BANK31
   664 ;;      Params:         8       0       0       0       0       0       0       0       0       0       0       0       
      +0       0       0       0       0       0       0       0       0       0       0       0       0       0       0       
      +0       0       0       0       0       0
   665 ;;      Locals:         0       7       0       0       0       0       0       0       0       0       0       0       
      +0       0       0       0       0       0       0       0       0       0       0       0       0       0       0       
      +0       0       0       0       0       0
   666 ;;      Temps:          2       0       0       0       0       0       0       0       0       0       0       0       
      +0       0       0       0       0       0       0       0       0       0       0       0       0       0       0       
      +0       0       0       0       0       0
   667 ;;      Totals:        10       7       0       0       0       0       0       0       0       0       0       0       
      +0       0       0       0       0       0       0       0       0       0       0       0       0       0       0       
      +0       0       0       0       0       0
   668 ;;Total ram usage:       17 bytes
   669 ;; Hardware stack levels used: 1
   670 ;; Hardware stack levels required when called: 3
   671 ;; This function calls:
   672 ;;		___fladd
   673 ;;		___fldiv
   674 ;;		___flmul
   675 ;;		___fltol
   676 ;;		___xxtofl
   677 ;; This function is called by:
   678 ;;		_main
   679 ;; This function uses a non-reentrant model
   680 ;;
   681                           
   682                           	psect	text1
   683  0035CC                     __ptext1:
   684                           	callstack 0
   685  0035CC                     _initialize_tone_generator:
   686                           	callstack 27
   687  0035CC                     
   688                           ;tone_generator.c: 12:     unsigned char period_value = (((1/pwm_freq) * osc_freq)/4) - 
      +                          0.5;
   689  0035CC  C04E  F01F         	movff	initialize_tone_generator@osc_freq,___flmul@a
   690  0035D0  C04F  F020         	movff	initialize_tone_generator@osc_freq+1,___flmul@a+1
   691  0035D4  C050  F021         	movff	initialize_tone_generator@osc_freq+2,___flmul@a+2
   692  0035D8  C051  F022         	movff	initialize_tone_generator@osc_freq+3,___flmul@a+3
   693  0035DC  C052  F006         	movff	initialize_tone_generator@pwm_freq,___fldiv@a
   694  0035E0  C053  F007         	movff	initialize_tone_generator@pwm_freq+1,___fldiv@a+1
   695  0035E4  C054  F008         	movff	initialize_tone_generator@pwm_freq+2,___fldiv@a+2
   696  0035E8  C055  F009         	movff	initialize_tone_generator@pwm_freq+3,___fldiv@a+3
   697  0035EC  0E00               	movlw	0
   698  0035EE  6E02               	movwf	___fldiv@b^0,c
   699  0035F0  0E00               	movlw	0
   700  0035F2  6E03               	movwf	(___fldiv@b+1)^0,c
   701  0035F4  0E80               	movlw	128
   702  0035F6  6E04               	movwf	(___fldiv@b+2)^0,c
   703  0035F8  0E3F               	movlw	63
   704  0035FA  6E05               	movwf	(___fldiv@b+3)^0,c
   705  0035FC  EC3F  F018         	call	___fldiv	;wreg free
   706  003600  C002  F01B         	movff	?___fldiv,___flmul@b
   707  003604  C003  F01C         	movff	?___fldiv+1,___flmul@b+1
   708  003608  C004  F01D         	movff	?___fldiv+2,___flmul@b+2
   709  00360C  C005  F01E         	movff	?___fldiv+3,___flmul@b+3
   710  003610  EC18  F016         	call	___flmul	;wreg free
   711  003614  C01B  F060         	movff	?___flmul,_initialize_tone_generator$1701
   712  003618  C01C  F061         	movff	?___flmul+1,_initialize_tone_generator$1701+1
   713  00361C  C01D  F062         	movff	?___flmul+2,_initialize_tone_generator$1701+2
   714  003620  C01E  F063         	movff	?___flmul+3,_initialize_tone_generator$1701+3
   715  003624                     
   716                           ;tone_generator.c: 12:     unsigned char period_value = (((1/pwm_freq) * osc_freq)/4) - 
      +                          0.5;
   717  003624  0E00               	movlw	0
   718  003626  6E38               	movwf	___fladd@a^0,c
   719  003628  0E00               	movlw	0
   720  00362A  6E39               	movwf	(___fladd@a+1)^0,c
   721  00362C  0E00               	movlw	0
   722  00362E  6E3A               	movwf	(___fladd@a+2)^0,c
   723  003630  0EBF               	movlw	191
   724  003632  6E3B               	movwf	(___fladd@a+3)^0,c
   725  003634  0E00               	movlw	0
   726  003636  6E06               	movwf	___fldiv@a^0,c
   727  003638  0E00               	movlw	0
   728  00363A  6E07               	movwf	(___fldiv@a+1)^0,c
   729  00363C  0E80               	movlw	128
   730  00363E  6E08               	movwf	(___fldiv@a+2)^0,c
   731  003640  0E40               	movlw	64
   732  003642  6E09               	movwf	(___fldiv@a+3)^0,c
   733  003644  C060  F002         	movff	_initialize_tone_generator$1701,___fldiv@b
   734  003648  C061  F003         	movff	_initialize_tone_generator$1701+1,___fldiv@b+1
   735  00364C  C062  F004         	movff	_initialize_tone_generator$1701+2,___fldiv@b+2
   736  003650  C063  F005         	movff	_initialize_tone_generator$1701+3,___fldiv@b+3
   737  003654  EC3F  F018         	call	___fldiv	;wreg free
   738  003658  C002  F034         	movff	?___fldiv,___fladd@b
   739  00365C  C003  F035         	movff	?___fldiv+1,___fladd@b+1
   740  003660  C004  F036         	movff	?___fldiv+2,___fladd@b+2
   741  003664  C005  F037         	movff	?___fldiv+3,___fladd@b+3
   742  003668  ECB8  F013         	call	___fladd	;wreg free
   743  00366C  C034  F044         	movff	?___fladd,___fltol@f1
   744  003670  C035  F045         	movff	?___fladd+1,___fltol@f1+1
   745  003674  C036  F046         	movff	?___fladd+2,___fltol@f1+2
   746  003678  C037  F047         	movff	?___fladd+3,___fltol@f1+3
   747  00367C  EC9D  F01B         	call	___fltol	;wreg free
   748  003680  5044               	movf	?___fltol^0,w,c
   749  003682  0100               	movlb	0	; () banked
   750  003684  6F65               	movwf	initialize_tone_generator@period_value& (0+255),b
   751  003686                     
   752                           ; BSR set to: 0
   753                           ;tone_generator.c: 13:     unsigned char duty_cycle = (2 * (period_value + 1)) + 0.5;
   754  003686  0E00               	movlw	0
   755  003688  6E38               	movwf	___fladd@a^0,c
   756  00368A  0E00               	movlw	0
   757  00368C  6E39               	movwf	(___fladd@a+1)^0,c
   758  00368E  0E00               	movlw	0
   759  003690  6E3A               	movwf	(___fladd@a+2)^0,c
   760  003692  0E3F               	movlw	63
   761  003694  6E3B               	movwf	(___fladd@a+3)^0,c
   762  003696  5165               	movf	initialize_tone_generator@period_value& (0+255),w,b
   763  003698  6E56               	movwf	??_initialize_tone_generator^0,c
   764  00369A  6A57               	clrf	(??_initialize_tone_generator+1)^0,c
   765  00369C  90D8               	bcf	status,0,c
   766  00369E  3656               	rlcf	??_initialize_tone_generator^0,f,c
   767  0036A0  3657               	rlcf	(??_initialize_tone_generator+1)^0,f,c
   768  0036A2  0E02               	movlw	2
   769  0036A4  2656               	addwf	??_initialize_tone_generator^0,f,c
   770  0036A6  0E00               	movlw	0
   771  0036A8  2257               	addwfc	(??_initialize_tone_generator+1)^0,f,c
   772  0036AA  C056  F002         	movff	??_initialize_tone_generator,___xxtofl@val
   773  0036AE  C057  F003         	movff	??_initialize_tone_generator+1,___xxtofl@val+1
   774  0036B2  0E00               	movlw	0
   775  0036B4  BE03               	btfsc	(___xxtofl@val+1)^0,7,c
   776  0036B6  0EFF               	movlw	-1
   777  0036B8  6E04               	movwf	(___xxtofl@val+2)^0,c
   778  0036BA  6E05               	movwf	(___xxtofl@val+3)^0,c
   779  0036BC  0E01               	movlw	1
   780  0036BE  EC0C  F01A         	call	___xxtofl
   781  0036C2  C002  F034         	movff	?___xxtofl,___fladd@b
   782  0036C6  C003  F035         	movff	?___xxtofl+1,___fladd@b+1
   783  0036CA  C004  F036         	movff	?___xxtofl+2,___fladd@b+2
   784  0036CE  C005  F037         	movff	?___xxtofl+3,___fladd@b+3
   785  0036D2  ECB8  F013         	call	___fladd	;wreg free
   786  0036D6  C034  F044         	movff	?___fladd,___fltol@f1
   787  0036DA  C035  F045         	movff	?___fladd+1,___fltol@f1+1
   788  0036DE  C036  F046         	movff	?___fladd+2,___fltol@f1+2
   789  0036E2  C037  F047         	movff	?___fladd+3,___fltol@f1+3
   790  0036E6  EC9D  F01B         	call	___fltol	;wreg free
   791  0036EA  5044               	movf	?___fltol^0,w,c
   792  0036EC  0100               	movlb	0	; () banked
   793  0036EE  6F66               	movwf	initialize_tone_generator@duty_cycle& (0+255),b
   794  0036F0                     
   795                           ; BSR set to: 0
   796                           ;tone_generator.c: 18:     duty_cycle_l = duty_cycle & mask;
   797  0036F0  5166               	movf	initialize_tone_generator@duty_cycle& (0+255),w,b
   798  0036F2  0B03               	andlw	3
   799  0036F4  6F64               	movwf	initialize_tone_generator@duty_cycle_l& (0+255),b
   800  0036F6                     
   801                           ; BSR set to: 0
   802                           ;tone_generator.c: 20:     TRISCbits.TRISC2 = 1;
   803  0036F6  84C4               	bsf	196,2,c	;volatile
   804  0036F8                     
   805                           ; BSR set to: 0
   806                           ;tone_generator.c: 21:     PWM5CON = 0x00;
   807  0036F8  0E00               	movlw	0
   808  0036FA  6E6E               	movwf	110,c	;volatile
   809  0036FC                     
   810                           ; BSR set to: 0
   811                           ;tone_generator.c: 22:     T2PR = period_value;
   812  0036FC  0060  F197  FFAB   	movff	initialize_tone_generator@period_value,16299	;volatile
   813  003702                     
   814                           ; BSR set to: 0
   815                           ;tone_generator.c: 23:     PWM5DCLbits.DC = duty_cycle_l;
   816  003702  C064  F056         	movff	initialize_tone_generator@duty_cycle_l,??_initialize_tone_generator
   817  003706  3A56               	swapf	??_initialize_tone_generator^0,f,c
   818  003708  4656               	rlncf	??_initialize_tone_generator^0,f,c
   819  00370A  4656               	rlncf	??_initialize_tone_generator^0,f,c
   820  00370C  506C               	movf	108,w,c	;volatile
   821  00370E  1856               	xorwf	??_initialize_tone_generator^0,w,c
   822  003710  0B3F               	andlw	-193
   823  003712  1856               	xorwf	??_initialize_tone_generator^0,w,c
   824  003714  6E6C               	movwf	108,c	;volatile
   825  003716                     
   826                           ; BSR set to: 0
   827                           ;tone_generator.c: 24:     PWM5DCHbits.DC = duty_cycle >> 2;
   828  003716  4166               	rrncf	initialize_tone_generator@duty_cycle& (0+255),w,b
   829  003718  42E8               	rrncf	wreg,f,c
   830  00371A  0B3F               	andlw	63
   831  00371C  6E6D               	movwf	109,c	;volatile
   832  00371E                     
   833                           ; BSR set to: 0
   834                           ;tone_generator.c: 26:     PIR4bits.TMR2IF = 0;
   835  00371E  0139               	movlb	57	; () banked
   836  003720  95A4               	bcf	164,2,b	;volatile
   837  003722                     
   838                           ; BSR set to: 57
   839                           ;tone_generator.c: 27:     T2CLKbits.CS0 = 1;
   840  003722  80AE               	bsf	174,0,c	;volatile
   841  003724                     
   842                           ; BSR set to: 57
   843                           ;tone_generator.c: 28:     T2CONbits.CKPS = 0b000;
   844  003724  0E8F               	movlw	-113
   845  003726  16AC               	andwf	172,f,c	;volatile
   846  003728                     
   847                           ; BSR set to: 57
   848                           ;tone_generator.c: 29:     T2CONbits.ON = 1;
   849  003728  8EAC               	bsf	172,7,c	;volatile
   850  00372A                     l292:
   851                           
   852                           ; BSR set to: 57
   853  00372A  A5A4               	btfss	164,2,b	;volatile
   854  00372C  EF9A  F01B         	goto	u3231
   855  003730  EF9C  F01B         	goto	u3230
   856  003734                     u3231:
   857  003734  EF95  F01B         	goto	l292
   858  003738                     u3230:
   859  003738                     
   860                           ; BSR set to: 57
   861  003738  0012               	return		;funcret
   862  00373A                     __end_of_initialize_tone_generator:
   863                           	callstack 0
   864                           
   865 ;; *************** function ___xxtofl *****************
   866 ;; Defined at:
   867 ;;		line 10 in file "C:\Program Files\Microchip\xc8\v2.32\pic\sources\c99\common\xxtofl.c"
   868 ;; Parameters:    Size  Location     Type
   869 ;;  sign            1    wreg     unsigned char 
   870 ;;  val             4    1[COMRAM] long 
   871 ;; Auto vars:     Size  Location     Type
   872 ;;  sign            1    9[COMRAM] unsigned char 
   873 ;;  arg             4   11[COMRAM] unsigned long 
   874 ;;  exp             1   10[COMRAM] unsigned char 
   875 ;; Return value:  Size  Location     Type
   876 ;;                  4    1[COMRAM] unsigned char 
   877 ;; Registers used:
   878 ;;		wreg, status,2, status,0
   879 ;; Tracked objects:
   880 ;;		On entry : 0/0
   881 ;;		On exit  : 0/0
   882 ;;		Unchanged: 0/0
   883 ;; Data sizes:     COMRAM   BANK0   BANK1   BANK2   BANK3   BANK4   BANK5   BANK6   BANK7   BANK8   BANK9  BANK10  BANK1
      +1  BANK12  BANK13  BANK14  BANK15  BANK16  BANK17  BANK18  BANK19  BANK20  BANK21  BANK22  BANK23  BANK24  BANK25  BANK2
      +6  BANK27  BANK28  BANK29  BANK30  BANK31
   884 ;;      Params:         4       0       0       0       0       0       0       0       0       0       0       0       
      +0       0       0       0       0       0       0       0       0       0       0       0       0       0       0       
      +0       0       0       0       0       0
   885 ;;      Locals:         6       0       0       0       0       0       0       0       0       0       0       0       
      +0       0       0       0       0       0       0       0       0       0       0       0       0       0       0       
      +0       0       0       0       0       0
   886 ;;      Temps:          4       0       0       0       0       0       0       0       0       0       0       0       
      +0       0       0       0       0       0       0       0       0       0       0       0       0       0       0       
      +0       0       0       0       0       0
   887 ;;      Totals:        14       0       0       0       0       0       0       0       0       0       0       0       
      +0       0       0       0       0       0       0       0       0       0       0       0       0       0       0       
      +0       0       0       0       0       0
   888 ;;Total ram usage:       14 bytes
   889 ;; Hardware stack levels used: 1
   890 ;; Hardware stack levels required when called: 2
   891 ;; This function calls:
   892 ;;		Nothing
   893 ;; This function is called by:
   894 ;;		_initialize_tone_generator
   895 ;; This function uses a non-reentrant model
   896 ;;
   897                           
   898                           	psect	text2
   899  003418                     __ptext2:
   900                           	callstack 0
   901  003418                     ___xxtofl:
   902                           	callstack 27
   903                           
   904                           ; BSR set to: 57
   905                           ;incstack = 0
   906                           ;___xxtofl@sign stored from wreg
   907  003418  6E0A               	movwf	___xxtofl@sign^0,c
   908  00341A  500A               	movf	___xxtofl@sign^0,w,c
   909  00341C  B4D8               	btfsc	status,2,c
   910  00341E  EF13  F01A         	goto	u3131
   911  003422  EF15  F01A         	goto	u3130
   912  003426                     u3131:
   913  003426  EF37  F01A         	goto	l961
   914  00342A                     u3130:
   915  00342A  BE05               	btfsc	(___xxtofl@val+3)^0,7,c
   916  00342C  EF1C  F01A         	goto	u3140
   917  003430  EF1A  F01A         	goto	u3141
   918  003434                     u3141:
   919  003434  EF37  F01A         	goto	l961
   920  003438                     u3140:
   921  003438  C002  F006         	movff	___xxtofl@val,??___xxtofl
   922  00343C  C003  F007         	movff	___xxtofl@val+1,??___xxtofl+1
   923  003440  C004  F008         	movff	___xxtofl@val+2,??___xxtofl+2
   924  003444  C005  F009         	movff	___xxtofl@val+3,??___xxtofl+3
   925  003448  1E06               	comf	??___xxtofl^0,f,c
   926  00344A  1E07               	comf	(??___xxtofl+1)^0,f,c
   927  00344C  1E08               	comf	(??___xxtofl+2)^0,f,c
   928  00344E  1E09               	comf	(??___xxtofl+3)^0,f,c
   929  003450  2A06               	incf	??___xxtofl^0,f,c
   930  003452  0E00               	movlw	0
   931  003454  2207               	addwfc	(??___xxtofl+1)^0,f,c
   932  003456  2208               	addwfc	(??___xxtofl+2)^0,f,c
   933  003458  2209               	addwfc	(??___xxtofl+3)^0,f,c
   934  00345A  C006  F00C         	movff	??___xxtofl,___xxtofl@arg
   935  00345E  C007  F00D         	movff	??___xxtofl+1,___xxtofl@arg+1
   936  003462  C008  F00E         	movff	??___xxtofl+2,___xxtofl@arg+2
   937  003466  C009  F00F         	movff	??___xxtofl+3,___xxtofl@arg+3
   938  00346A  EF3F  F01A         	goto	l4279
   939  00346E                     l961:
   940  00346E  C002  F00C         	movff	___xxtofl@val,___xxtofl@arg
   941  003472  C003  F00D         	movff	___xxtofl@val+1,___xxtofl@arg+1
   942  003476  C004  F00E         	movff	___xxtofl@val+2,___xxtofl@arg+2
   943  00347A  C005  F00F         	movff	___xxtofl@val+3,___xxtofl@arg+3
   944  00347E                     l4279:
   945  00347E  5002               	movf	___xxtofl@val^0,w,c
   946  003480  1003               	iorwf	(___xxtofl@val+1)^0,w,c
   947  003482  1004               	iorwf	(___xxtofl@val+2)^0,w,c
   948  003484  1005               	iorwf	(___xxtofl@val+3)^0,w,c
   949  003486  A4D8               	btfss	status,2,c
   950  003488  EF48  F01A         	goto	u3151
   951  00348C  EF4A  F01A         	goto	u3150
   952  003490                     u3151:
   953  003490  EF54  F01A         	goto	l4285
   954  003494                     u3150:
   955  003494  0E00               	movlw	0
   956  003496  6E02               	movwf	?___xxtofl^0,c
   957  003498  0E00               	movlw	0
   958  00349A  6E03               	movwf	(?___xxtofl+1)^0,c
   959  00349C  0E00               	movlw	0
   960  00349E  6E04               	movwf	(?___xxtofl+2)^0,c
   961  0034A0  0E00               	movlw	0
   962  0034A2  6E05               	movwf	(?___xxtofl+3)^0,c
   963  0034A4  EFE5  F01A         	goto	l964
   964  0034A8                     l4285:
   965  0034A8  0E96               	movlw	150
   966  0034AA  6E0B               	movwf	___xxtofl@exp^0,c
   967  0034AC  EF5E  F01A         	goto	l4289
   968  0034B0                     l4287:
   969  0034B0  2A0B               	incf	___xxtofl@exp^0,f,c
   970  0034B2  90D8               	bcf	status,0,c
   971  0034B4  320F               	rrcf	(___xxtofl@arg+3)^0,f,c
   972  0034B6  320E               	rrcf	(___xxtofl@arg+2)^0,f,c
   973  0034B8  320D               	rrcf	(___xxtofl@arg+1)^0,f,c
   974  0034BA  320C               	rrcf	___xxtofl@arg^0,f,c
   975  0034BC                     l4289:
   976  0034BC  0E00               	movlw	0
   977  0034BE  140C               	andwf	___xxtofl@arg^0,w,c
   978  0034C0  6E06               	movwf	??___xxtofl^0,c
   979  0034C2  0E00               	movlw	0
   980  0034C4  140D               	andwf	(___xxtofl@arg+1)^0,w,c
   981  0034C6  6E07               	movwf	(??___xxtofl+1)^0,c
   982  0034C8  0E00               	movlw	0
   983  0034CA  140E               	andwf	(___xxtofl@arg+2)^0,w,c
   984  0034CC  6E08               	movwf	(??___xxtofl+2)^0,c
   985  0034CE  0EFE               	movlw	254
   986  0034D0  140F               	andwf	(___xxtofl@arg+3)^0,w,c
   987  0034D2  6E09               	movwf	(??___xxtofl+3)^0,c
   988  0034D4  5006               	movf	??___xxtofl^0,w,c
   989  0034D6  1007               	iorwf	(??___xxtofl+1)^0,w,c
   990  0034D8  1008               	iorwf	(??___xxtofl+2)^0,w,c
   991  0034DA  1009               	iorwf	(??___xxtofl+3)^0,w,c
   992  0034DC  A4D8               	btfss	status,2,c
   993  0034DE  EF73  F01A         	goto	u3161
   994  0034E2  EF75  F01A         	goto	u3160
   995  0034E6                     u3161:
   996  0034E6  EF58  F01A         	goto	l4287
   997  0034EA                     u3160:
   998  0034EA  EF83  F01A         	goto	l968
   999  0034EE                     l4291:
  1000  0034EE  2A0B               	incf	___xxtofl@exp^0,f,c
  1001  0034F0  0E01               	movlw	1
  1002  0034F2  260C               	addwf	___xxtofl@arg^0,f,c
  1003  0034F4  0E00               	movlw	0
  1004  0034F6  220D               	addwfc	(___xxtofl@arg+1)^0,f,c
  1005  0034F8  220E               	addwfc	(___xxtofl@arg+2)^0,f,c
  1006  0034FA  220F               	addwfc	(___xxtofl@arg+3)^0,f,c
  1007  0034FC  90D8               	bcf	status,0,c
  1008  0034FE  320F               	rrcf	(___xxtofl@arg+3)^0,f,c
  1009  003500  320E               	rrcf	(___xxtofl@arg+2)^0,f,c
  1010  003502  320D               	rrcf	(___xxtofl@arg+1)^0,f,c
  1011  003504  320C               	rrcf	___xxtofl@arg^0,f,c
  1012  003506                     l968:
  1013  003506  0E00               	movlw	0
  1014  003508  140C               	andwf	___xxtofl@arg^0,w,c
  1015  00350A  6E06               	movwf	??___xxtofl^0,c
  1016  00350C  0E00               	movlw	0
  1017  00350E  140D               	andwf	(___xxtofl@arg+1)^0,w,c
  1018  003510  6E07               	movwf	(??___xxtofl+1)^0,c
  1019  003512  0E00               	movlw	0
  1020  003514  140E               	andwf	(___xxtofl@arg+2)^0,w,c
  1021  003516  6E08               	movwf	(??___xxtofl+2)^0,c
  1022  003518  0EFF               	movlw	255
  1023  00351A  140F               	andwf	(___xxtofl@arg+3)^0,w,c
  1024  00351C  6E09               	movwf	(??___xxtofl+3)^0,c
  1025  00351E  5006               	movf	??___xxtofl^0,w,c
  1026  003520  1007               	iorwf	(??___xxtofl+1)^0,w,c
  1027  003522  1008               	iorwf	(??___xxtofl+2)^0,w,c
  1028  003524  1009               	iorwf	(??___xxtofl+3)^0,w,c
  1029  003526  A4D8               	btfss	status,2,c
  1030  003528  EF98  F01A         	goto	u3171
  1031  00352C  EF9A  F01A         	goto	u3170
  1032  003530                     u3171:
  1033  003530  EF77  F01A         	goto	l4291
  1034  003534                     u3170:
  1035  003534  EFA2  F01A         	goto	l4299
  1036  003538                     l4297:
  1037  003538  060B               	decf	___xxtofl@exp^0,f,c
  1038  00353A  90D8               	bcf	status,0,c
  1039  00353C  360C               	rlcf	___xxtofl@arg^0,f,c
  1040  00353E  360D               	rlcf	(___xxtofl@arg+1)^0,f,c
  1041  003540  360E               	rlcf	(___xxtofl@arg+2)^0,f,c
  1042  003542  360F               	rlcf	(___xxtofl@arg+3)^0,f,c
  1043  003544                     l4299:
  1044  003544  BE0E               	btfsc	(___xxtofl@arg+2)^0,7,c
  1045  003546  EFA7  F01A         	goto	u3181
  1046  00354A  EFA9  F01A         	goto	u3180
  1047  00354E                     u3181:
  1048  00354E  EFB1  F01A         	goto	l975
  1049  003552                     u3180:
  1050  003552  0E02               	movlw	2
  1051  003554  600B               	cpfslt	___xxtofl@exp^0,c
  1052  003556  EFAF  F01A         	goto	u3191
  1053  00355A  EFB1  F01A         	goto	u3190
  1054  00355E                     u3191:
  1055  00355E  EF9C  F01A         	goto	l4297
  1056  003562                     u3190:
  1057  003562                     l975:
  1058  003562  B00B               	btfsc	___xxtofl@exp^0,0,c
  1059  003564  EFB6  F01A         	goto	u3201
  1060  003568  EFB8  F01A         	goto	u3200
  1061  00356C                     u3201:
  1062  00356C  EFB9  F01A         	goto	l4305
  1063  003570                     u3200:
  1064  003570  9E0E               	bcf	(___xxtofl@arg+2)^0,7,c
  1065  003572                     l4305:
  1066  003572  90D8               	bcf	status,0,c
  1067  003574  320B               	rrcf	___xxtofl@exp^0,f,c
  1068  003576  C00B  F006         	movff	___xxtofl@exp,??___xxtofl
  1069  00357A  6A07               	clrf	(??___xxtofl+1)^0,c
  1070  00357C  6A08               	clrf	(??___xxtofl+2)^0,c
  1071  00357E  6A09               	clrf	(??___xxtofl+3)^0,c
  1072  003580  C006  F009         	movff	??___xxtofl,??___xxtofl+3
  1073  003584  6A08               	clrf	(??___xxtofl+2)^0,c
  1074  003586  6A07               	clrf	(??___xxtofl+1)^0,c
  1075  003588  6A06               	clrf	??___xxtofl^0,c
  1076  00358A  5006               	movf	??___xxtofl^0,w,c
  1077  00358C  120C               	iorwf	___xxtofl@arg^0,f,c
  1078  00358E  5007               	movf	(??___xxtofl+1)^0,w,c
  1079  003590  120D               	iorwf	(___xxtofl@arg+1)^0,f,c
  1080  003592  5008               	movf	(??___xxtofl+2)^0,w,c
  1081  003594  120E               	iorwf	(___xxtofl@arg+2)^0,f,c
  1082  003596  5009               	movf	(??___xxtofl+3)^0,w,c
  1083  003598  120F               	iorwf	(___xxtofl@arg+3)^0,f,c
  1084  00359A  500A               	movf	___xxtofl@sign^0,w,c
  1085  00359C  B4D8               	btfsc	status,2,c
  1086  00359E  EFD3  F01A         	goto	u3211
  1087  0035A2  EFD5  F01A         	goto	u3210
  1088  0035A6                     u3211:
  1089  0035A6  EFDD  F01A         	goto	l4315
  1090  0035AA                     u3210:
  1091  0035AA  BE05               	btfsc	(___xxtofl@val+3)^0,7,c
  1092  0035AC  EFDC  F01A         	goto	u3220
  1093  0035B0  EFDA  F01A         	goto	u3221
  1094  0035B4                     u3221:
  1095  0035B4  EFDD  F01A         	goto	l4315
  1096  0035B8                     u3220:
  1097  0035B8  8E0F               	bsf	(___xxtofl@arg+3)^0,7,c
  1098  0035BA                     l4315:
  1099  0035BA  C00C  F002         	movff	___xxtofl@arg,?___xxtofl
  1100  0035BE  C00D  F003         	movff	___xxtofl@arg+1,?___xxtofl+1
  1101  0035C2  C00E  F004         	movff	___xxtofl@arg+2,?___xxtofl+2
  1102  0035C6  C00F  F005         	movff	___xxtofl@arg+3,?___xxtofl+3
  1103  0035CA                     l964:
  1104  0035CA  0012               	return		;funcret
  1105  0035CC                     __end_of___xxtofl:
  1106                           	callstack 0
  1107                           
  1108 ;; *************** function ___fltol *****************
  1109 ;; Defined at:
  1110 ;;		line 43 in file "C:\Program Files\Microchip\xc8\v2.32\pic\sources\c99\common\fltol.c"
  1111 ;; Parameters:    Size  Location     Type
  1112 ;;  f1              4   67[COMRAM] unsigned char 
  1113 ;; Auto vars:     Size  Location     Type
  1114 ;;  exp1            1   76[COMRAM] unsigned char 
  1115 ;;  sign1           1   75[COMRAM] unsigned char 
  1116 ;; Return value:  Size  Location     Type
  1117 ;;                  4   67[COMRAM] long 
  1118 ;; Registers used:
  1119 ;;		wreg, status,2, status,0
  1120 ;; Tracked objects:
  1121 ;;		On entry : 0/0
  1122 ;;		On exit  : 0/0
  1123 ;;		Unchanged: 0/0
  1124 ;; Data sizes:     COMRAM   BANK0   BANK1   BANK2   BANK3   BANK4   BANK5   BANK6   BANK7   BANK8   BANK9  BANK10  BANK1
      +1  BANK12  BANK13  BANK14  BANK15  BANK16  BANK17  BANK18  BANK19  BANK20  BANK21  BANK22  BANK23  BANK24  BANK25  BANK2
      +6  BANK27  BANK28  BANK29  BANK30  BANK31
  1125 ;;      Params:         4       0       0       0       0       0       0       0       0       0       0       0       
      +0       0       0       0       0       0       0       0       0       0       0       0       0       0       0       
      +0       0       0       0       0       0
  1126 ;;      Locals:         2       0       0       0       0       0       0       0       0       0       0       0       
      +0       0       0       0       0       0       0       0       0       0       0       0       0       0       0       
      +0       0       0       0       0       0
  1127 ;;      Temps:          4       0       0       0       0       0       0       0       0       0       0       0       
      +0       0       0       0       0       0       0       0       0       0       0       0       0       0       0       
      +0       0       0       0       0       0
  1128 ;;      Totals:        10       0       0       0       0       0       0       0       0       0       0       0       
      +0       0       0       0       0       0       0       0       0       0       0       0       0       0       0       
      +0       0       0       0       0       0
  1129 ;;Total ram usage:       10 bytes
  1130 ;; Hardware stack levels used: 1
  1131 ;; Hardware stack levels required when called: 2
  1132 ;; This function calls:
  1133 ;;		Nothing
  1134 ;; This function is called by:
  1135 ;;		_initialize_tone_generator
  1136 ;; This function uses a non-reentrant model
  1137 ;;
  1138                           
  1139                           	psect	text3
  1140  00373A                     __ptext3:
  1141                           	callstack 0
  1142  00373A                     ___fltol:
  1143                           	callstack 27
  1144  00373A  3446               	rlcf	(___fltol@f1+2)^0,w,c
  1145  00373C  3447               	rlcf	(___fltol@f1+3)^0,w,c
  1146  00373E  6E4D               	movwf	___fltol@exp1^0,c
  1147  003740  504D               	movf	___fltol@exp1^0,w,c
  1148  003742  A4D8               	btfss	status,2,c
  1149  003744  EFA6  F01B         	goto	u3061
  1150  003748  EFA8  F01B         	goto	u3060
  1151  00374C                     u3061:
  1152  00374C  EFB2  F01B         	goto	l4235
  1153  003750                     u3060:
  1154  003750                     l4231:
  1155  003750  0E00               	movlw	0
  1156  003752  6E44               	movwf	?___fltol^0,c
  1157  003754  0E00               	movlw	0
  1158  003756  6E45               	movwf	(?___fltol+1)^0,c
  1159  003758  0E00               	movlw	0
  1160  00375A  6E46               	movwf	(?___fltol+2)^0,c
  1161  00375C  0E00               	movlw	0
  1162  00375E  6E47               	movwf	(?___fltol+3)^0,c
  1163  003760  EF1F  F01C         	goto	l603
  1164  003764                     l4235:
  1165  003764  C044  F048         	movff	___fltol@f1,??___fltol
  1166  003768  C045  F049         	movff	___fltol@f1+1,??___fltol+1
  1167  00376C  C046  F04A         	movff	___fltol@f1+2,??___fltol+2
  1168  003770  C047  F04B         	movff	___fltol@f1+3,??___fltol+3
  1169  003774  0E20               	movlw	32
  1170  003776  EFC2  F01B         	goto	u3070
  1171  00377A                     u3075:
  1172  00377A  90D8               	bcf	status,0,c
  1173  00377C  324B               	rrcf	(??___fltol+3)^0,f,c
  1174  00377E  324A               	rrcf	(??___fltol+2)^0,f,c
  1175  003780  3249               	rrcf	(??___fltol+1)^0,f,c
  1176  003782  3248               	rrcf	??___fltol^0,f,c
  1177  003784                     u3070:
  1178  003784  2EE8               	decfsz	wreg,f,c
  1179  003786  EFBD  F01B         	goto	u3075
  1180  00378A  5048               	movf	??___fltol^0,w,c
  1181  00378C  6E4C               	movwf	___fltol@sign1^0,c
  1182  00378E  8E46               	bsf	(___fltol@f1+2)^0,7,c
  1183  003790  0EFF               	movlw	255
  1184  003792  1644               	andwf	___fltol@f1^0,f,c
  1185  003794  0EFF               	movlw	255
  1186  003796  1645               	andwf	(___fltol@f1+1)^0,f,c
  1187  003798  0EFF               	movlw	255
  1188  00379A  1646               	andwf	(___fltol@f1+2)^0,f,c
  1189  00379C  0E00               	movlw	0
  1190  00379E  1647               	andwf	(___fltol@f1+3)^0,f,c
  1191  0037A0  0E96               	movlw	150
  1192  0037A2  5E4D               	subwf	___fltol@exp1^0,f,c
  1193  0037A4  BE4D               	btfsc	___fltol@exp1^0,7,c
  1194  0037A6  EFD9  F01B         	goto	u3080
  1195  0037AA  EFD7  F01B         	goto	u3081
  1196  0037AE                     u3081:
  1197  0037AE  EFEF  F01B         	goto	l4255
  1198  0037B2                     u3080:
  1199  0037B2  504D               	movf	___fltol@exp1^0,w,c
  1200  0037B4  0A80               	xorlw	128
  1201  0037B6  0F97               	addlw	151
  1202  0037B8  B0D8               	btfsc	status,0,c
  1203  0037BA  EFE1  F01B         	goto	u3091
  1204  0037BE  EFE3  F01B         	goto	u3090
  1205  0037C2                     u3091:
  1206  0037C2  EFE5  F01B         	goto	l4251
  1207  0037C6                     u3090:
  1208  0037C6  EFA8  F01B         	goto	l4231
  1209  0037CA                     l4251:
  1210  0037CA  90D8               	bcf	status,0,c
  1211  0037CC  3247               	rrcf	(___fltol@f1+3)^0,f,c
  1212  0037CE  3246               	rrcf	(___fltol@f1+2)^0,f,c
  1213  0037D0  3245               	rrcf	(___fltol@f1+1)^0,f,c
  1214  0037D2  3244               	rrcf	___fltol@f1^0,f,c
  1215  0037D4  3E4D               	incfsz	___fltol@exp1^0,f,c
  1216  0037D6  EFE5  F01B         	goto	l4251
  1217  0037DA  EF07  F01C         	goto	l4265
  1218  0037DE                     l4255:
  1219  0037DE  0E1F               	movlw	31
  1220  0037E0  644D               	cpfsgt	___fltol@exp1^0,c
  1221  0037E2  EFF5  F01B         	goto	u3101
  1222  0037E6  EFF7  F01B         	goto	u3100
  1223  0037EA                     u3101:
  1224  0037EA  EFFF  F01B         	goto	l4263
  1225  0037EE                     u3100:
  1226  0037EE  EFA8  F01B         	goto	l4231
  1227  0037F2                     l4261:
  1228  0037F2  90D8               	bcf	status,0,c
  1229  0037F4  3644               	rlcf	___fltol@f1^0,f,c
  1230  0037F6  3645               	rlcf	(___fltol@f1+1)^0,f,c
  1231  0037F8  3646               	rlcf	(___fltol@f1+2)^0,f,c
  1232  0037FA  3647               	rlcf	(___fltol@f1+3)^0,f,c
  1233  0037FC  064D               	decf	___fltol@exp1^0,f,c
  1234  0037FE                     l4263:
  1235  0037FE  504D               	movf	___fltol@exp1^0,w,c
  1236  003800  A4D8               	btfss	status,2,c
  1237  003802  EF05  F01C         	goto	u3111
  1238  003806  EF07  F01C         	goto	u3110
  1239  00380A                     u3111:
  1240  00380A  EFF9  F01B         	goto	l4261
  1241  00380E                     u3110:
  1242  00380E                     l4265:
  1243  00380E  504C               	movf	___fltol@sign1^0,w,c
  1244  003810  B4D8               	btfsc	status,2,c
  1245  003812  EF0D  F01C         	goto	u3121
  1246  003816  EF0F  F01C         	goto	u3120
  1247  00381A                     u3121:
  1248  00381A  EF17  F01C         	goto	l4269
  1249  00381E                     u3120:
  1250  00381E  1E47               	comf	(___fltol@f1+3)^0,f,c
  1251  003820  1E46               	comf	(___fltol@f1+2)^0,f,c
  1252  003822  1E45               	comf	(___fltol@f1+1)^0,f,c
  1253  003824  6C44               	negf	___fltol@f1^0,c
  1254  003826  0E00               	movlw	0
  1255  003828  2245               	addwfc	(___fltol@f1+1)^0,f,c
  1256  00382A  2246               	addwfc	(___fltol@f1+2)^0,f,c
  1257  00382C  2247               	addwfc	(___fltol@f1+3)^0,f,c
  1258  00382E                     l4269:
  1259  00382E  C044  F044         	movff	___fltol@f1,?___fltol
  1260  003832  C045  F045         	movff	___fltol@f1+1,?___fltol+1
  1261  003836  C046  F046         	movff	___fltol@f1+2,?___fltol+2
  1262  00383A  C047  F047         	movff	___fltol@f1+3,?___fltol+3
  1263  00383E                     l603:
  1264  00383E  0012               	return		;funcret
  1265  003840                     __end_of___fltol:
  1266                           	callstack 0
  1267                           
  1268 ;; *************** function ___flmul *****************
  1269 ;; Defined at:
  1270 ;;		line 8 in file "C:\Program Files\Microchip\xc8\v2.32\pic\sources\c99\common\sprcmul.c"
  1271 ;; Parameters:    Size  Location     Type
  1272 ;;  b               4   26[COMRAM] long 
  1273 ;;  a               4   30[COMRAM] long 
  1274 ;; Auto vars:     Size  Location     Type
  1275 ;;  prod            4   45[COMRAM] struct .
  1276 ;;  grs             4   40[COMRAM] unsigned long 
  1277 ;;  temp            2   49[COMRAM] struct .
  1278 ;;  bexp            1   44[COMRAM] unsigned char 
  1279 ;;  aexp            1   39[COMRAM] unsigned char 
  1280 ;;  sign            1   38[COMRAM] unsigned char 
  1281 ;; Return value:  Size  Location     Type
  1282 ;;                  4   26[COMRAM] unsigned char 
  1283 ;; Registers used:
  1284 ;;		wreg, status,2, status,0, prodl, prodh
  1285 ;; Tracked objects:
  1286 ;;		On entry : 0/0
  1287 ;;		On exit  : 0/0
  1288 ;;		Unchanged: 0/0
  1289 ;; Data sizes:     COMRAM   BANK0   BANK1   BANK2   BANK3   BANK4   BANK5   BANK6   BANK7   BANK8   BANK9  BANK10  BANK1
      +1  BANK12  BANK13  BANK14  BANK15  BANK16  BANK17  BANK18  BANK19  BANK20  BANK21  BANK22  BANK23  BANK24  BANK25  BANK2
      +6  BANK27  BANK28  BANK29  BANK30  BANK31
  1290 ;;      Params:         8       0       0       0       0       0       0       0       0       0       0       0       
      +0       0       0       0       0       0       0       0       0       0       0       0       0       0       0       
      +0       0       0       0       0       0
  1291 ;;      Locals:        13       0       0       0       0       0       0       0       0       0       0       0       
      +0       0       0       0       0       0       0       0       0       0       0       0       0       0       0       
      +0       0       0       0       0       0
  1292 ;;      Temps:          4       0       0       0       0       0       0       0       0       0       0       0       
      +0       0       0       0       0       0       0       0       0       0       0       0       0       0       0       
      +0       0       0       0       0       0
  1293 ;;      Totals:        25       0       0       0       0       0       0       0       0       0       0       0       
      +0       0       0       0       0       0       0       0       0       0       0       0       0       0       0       
      +0       0       0       0       0       0
  1294 ;;Total ram usage:       25 bytes
  1295 ;; Hardware stack levels used: 1
  1296 ;; Hardware stack levels required when called: 2
  1297 ;; This function calls:
  1298 ;;		Nothing
  1299 ;; This function is called by:
  1300 ;;		_initialize_tone_generator
  1301 ;; This function uses a non-reentrant model
  1302 ;;
  1303                           
  1304                           	psect	text4
  1305  002C30                     __ptext4:
  1306                           	callstack 0
  1307  002C30                     ___flmul:
  1308                           	callstack 27
  1309  002C30  501E               	movf	(___flmul@b+3)^0,w,c
  1310  002C32  0B80               	andlw	128
  1311  002C34  6E27               	movwf	___flmul@sign^0,c
  1312  002C36  501E               	movf	(___flmul@b+3)^0,w,c
  1313  002C38  241E               	addwf	(___flmul@b+3)^0,w,c
  1314  002C3A  6E2D               	movwf	___flmul@bexp^0,c
  1315  002C3C  AE1D               	btfss	(___flmul@b+2)^0,7,c
  1316  002C3E  EF23  F016         	goto	u2871
  1317  002C42  EF25  F016         	goto	u2870
  1318  002C46                     u2871:
  1319  002C46  EF26  F016         	goto	l4105
  1320  002C4A                     u2870:
  1321  002C4A  802D               	bsf	___flmul@bexp^0,0,c
  1322  002C4C                     l4105:
  1323  002C4C  502D               	movf	___flmul@bexp^0,w,c
  1324  002C4E  B4D8               	btfsc	status,2,c
  1325  002C50  EF2C  F016         	goto	u2881
  1326  002C54  EF2E  F016         	goto	u2880
  1327  002C58                     u2881:
  1328  002C58  EF41  F016         	goto	l4113
  1329  002C5C                     u2880:
  1330  002C5C  282D               	incf	___flmul@bexp^0,w,c
  1331  002C5E  A4D8               	btfss	status,2,c
  1332  002C60  EF34  F016         	goto	u2891
  1333  002C64  EF36  F016         	goto	u2890
  1334  002C68                     u2891:
  1335  002C68  EF3E  F016         	goto	l4111
  1336  002C6C                     u2890:
  1337  002C6C  0E00               	movlw	0
  1338  002C6E  6E1B               	movwf	___flmul@b^0,c
  1339  002C70  0E00               	movlw	0
  1340  002C72  6E1C               	movwf	(___flmul@b+1)^0,c
  1341  002C74  0E00               	movlw	0
  1342  002C76  6E1D               	movwf	(___flmul@b+2)^0,c
  1343  002C78  0E00               	movlw	0
  1344  002C7A  6E1E               	movwf	(___flmul@b+3)^0,c
  1345  002C7C                     l4111:
  1346  002C7C  8E1D               	bsf	(___flmul@b+2)^0,7,c
  1347  002C7E  EF49  F016         	goto	l4115
  1348  002C82                     l4113:
  1349  002C82  0E00               	movlw	0
  1350  002C84  6E1B               	movwf	___flmul@b^0,c
  1351  002C86  0E00               	movlw	0
  1352  002C88  6E1C               	movwf	(___flmul@b+1)^0,c
  1353  002C8A  0E00               	movlw	0
  1354  002C8C  6E1D               	movwf	(___flmul@b+2)^0,c
  1355  002C8E  0E00               	movlw	0
  1356  002C90  6E1E               	movwf	(___flmul@b+3)^0,c
  1357  002C92                     l4115:
  1358  002C92  5022               	movf	(___flmul@a+3)^0,w,c
  1359  002C94  0B80               	andlw	128
  1360  002C96  1A27               	xorwf	___flmul@sign^0,f,c
  1361  002C98  5022               	movf	(___flmul@a+3)^0,w,c
  1362  002C9A  2422               	addwf	(___flmul@a+3)^0,w,c
  1363  002C9C  6E28               	movwf	___flmul@aexp^0,c
  1364  002C9E  AE21               	btfss	(___flmul@a+2)^0,7,c
  1365  002CA0  EF54  F016         	goto	u2901
  1366  002CA4  EF56  F016         	goto	u2900
  1367  002CA8                     u2901:
  1368  002CA8  EF57  F016         	goto	l4123
  1369  002CAC                     u2900:
  1370  002CAC  8028               	bsf	___flmul@aexp^0,0,c
  1371  002CAE                     l4123:
  1372  002CAE  5028               	movf	___flmul@aexp^0,w,c
  1373  002CB0  B4D8               	btfsc	status,2,c
  1374  002CB2  EF5D  F016         	goto	u2911
  1375  002CB6  EF5F  F016         	goto	u2910
  1376  002CBA                     u2911:
  1377  002CBA  EF72  F016         	goto	l4131
  1378  002CBE                     u2910:
  1379  002CBE  2828               	incf	___flmul@aexp^0,w,c
  1380  002CC0  A4D8               	btfss	status,2,c
  1381  002CC2  EF65  F016         	goto	u2921
  1382  002CC6  EF67  F016         	goto	u2920
  1383  002CCA                     u2921:
  1384  002CCA  EF6F  F016         	goto	l4129
  1385  002CCE                     u2920:
  1386  002CCE  0E00               	movlw	0
  1387  002CD0  6E1F               	movwf	___flmul@a^0,c
  1388  002CD2  0E00               	movlw	0
  1389  002CD4  6E20               	movwf	(___flmul@a+1)^0,c
  1390  002CD6  0E00               	movlw	0
  1391  002CD8  6E21               	movwf	(___flmul@a+2)^0,c
  1392  002CDA  0E00               	movlw	0
  1393  002CDC  6E22               	movwf	(___flmul@a+3)^0,c
  1394  002CDE                     l4129:
  1395  002CDE  8E21               	bsf	(___flmul@a+2)^0,7,c
  1396  002CE0  EF7A  F016         	goto	l920
  1397  002CE4                     l4131:
  1398  002CE4  0E00               	movlw	0
  1399  002CE6  6E1F               	movwf	___flmul@a^0,c
  1400  002CE8  0E00               	movlw	0
  1401  002CEA  6E20               	movwf	(___flmul@a+1)^0,c
  1402  002CEC  0E00               	movlw	0
  1403  002CEE  6E21               	movwf	(___flmul@a+2)^0,c
  1404  002CF0  0E00               	movlw	0
  1405  002CF2  6E22               	movwf	(___flmul@a+3)^0,c
  1406  002CF4                     l920:
  1407  002CF4  5028               	movf	___flmul@aexp^0,w,c
  1408  002CF6  B4D8               	btfsc	status,2,c
  1409  002CF8  EF80  F016         	goto	u2931
  1410  002CFC  EF82  F016         	goto	u2930
  1411  002D00                     u2931:
  1412  002D00  EF8A  F016         	goto	l4135
  1413  002D04                     u2930:
  1414  002D04  502D               	movf	___flmul@bexp^0,w,c
  1415  002D06  A4D8               	btfss	status,2,c
  1416  002D08  EF88  F016         	goto	u2941
  1417  002D0C  EF8A  F016         	goto	u2940
  1418  002D10                     u2941:
  1419  002D10  EF94  F016         	goto	l4139
  1420  002D14                     u2940:
  1421  002D14                     l4135:
  1422  002D14  0E00               	movlw	0
  1423  002D16  6E1B               	movwf	?___flmul^0,c
  1424  002D18  0E00               	movlw	0
  1425  002D1A  6E1C               	movwf	(?___flmul+1)^0,c
  1426  002D1C  0E00               	movlw	0
  1427  002D1E  6E1D               	movwf	(?___flmul+2)^0,c
  1428  002D20  0E00               	movlw	0
  1429  002D22  6E1E               	movwf	(?___flmul+3)^0,c
  1430  002D24  EF3E  F018         	goto	l924
  1431  002D28                     l4139:
  1432  002D28  5021               	movf	(___flmul@a+2)^0,w,c
  1433  002D2A  021B               	mulwf	___flmul@b^0,c
  1434  002D2C  006F FFCC  F032    	movff	prodl,___flmul@temp
  1435  002D32  006F FFD0  F033    	movff	prodh,___flmul@temp+1
  1436  002D38  5032               	movf	___flmul@temp^0,w,c
  1437  002D3A  6E29               	movwf	___flmul@grs^0,c
  1438  002D3C  6A2A               	clrf	(___flmul@grs+1)^0,c
  1439  002D3E  6A2B               	clrf	(___flmul@grs+2)^0,c
  1440  002D40  6A2C               	clrf	(___flmul@grs+3)^0,c
  1441  002D42  5033               	movf	(___flmul@temp+1)^0,w,c
  1442  002D44  6E2E               	movwf	___flmul@prod^0,c
  1443  002D46  6A2F               	clrf	(___flmul@prod+1)^0,c
  1444  002D48  6A30               	clrf	(___flmul@prod+2)^0,c
  1445  002D4A  6A31               	clrf	(___flmul@prod+3)^0,c
  1446  002D4C  5020               	movf	(___flmul@a+1)^0,w,c
  1447  002D4E  021C               	mulwf	(___flmul@b+1)^0,c
  1448  002D50  006F FFCC  F032    	movff	prodl,___flmul@temp
  1449  002D56  006F FFD0  F033    	movff	prodh,___flmul@temp+1
  1450  002D5C  5032               	movf	___flmul@temp^0,w,c
  1451  002D5E  2629               	addwf	___flmul@grs^0,f,c
  1452  002D60  0E00               	movlw	0
  1453  002D62  222A               	addwfc	(___flmul@grs+1)^0,f,c
  1454  002D64  222B               	addwfc	(___flmul@grs+2)^0,f,c
  1455  002D66  222C               	addwfc	(___flmul@grs+3)^0,f,c
  1456  002D68  5033               	movf	(___flmul@temp+1)^0,w,c
  1457  002D6A  262E               	addwf	___flmul@prod^0,f,c
  1458  002D6C  0E00               	movlw	0
  1459  002D6E  222F               	addwfc	(___flmul@prod+1)^0,f,c
  1460  002D70  2230               	addwfc	(___flmul@prod+2)^0,f,c
  1461  002D72  2231               	addwfc	(___flmul@prod+3)^0,f,c
  1462  002D74  501F               	movf	___flmul@a^0,w,c
  1463  002D76  021D               	mulwf	(___flmul@b+2)^0,c
  1464  002D78  006F FFCC  F032    	movff	prodl,___flmul@temp
  1465  002D7E  006F FFD0  F033    	movff	prodh,___flmul@temp+1
  1466  002D84  5032               	movf	___flmul@temp^0,w,c
  1467  002D86  2629               	addwf	___flmul@grs^0,f,c
  1468  002D88  0E00               	movlw	0
  1469  002D8A  222A               	addwfc	(___flmul@grs+1)^0,f,c
  1470  002D8C  222B               	addwfc	(___flmul@grs+2)^0,f,c
  1471  002D8E  222C               	addwfc	(___flmul@grs+3)^0,f,c
  1472  002D90  5033               	movf	(___flmul@temp+1)^0,w,c
  1473  002D92  262E               	addwf	___flmul@prod^0,f,c
  1474  002D94  0E00               	movlw	0
  1475  002D96  222F               	addwfc	(___flmul@prod+1)^0,f,c
  1476  002D98  2230               	addwfc	(___flmul@prod+2)^0,f,c
  1477  002D9A  2231               	addwfc	(___flmul@prod+3)^0,f,c
  1478  002D9C  C02B  F02C         	movff	___flmul@grs+2,___flmul@grs+3
  1479  002DA0  C02A  F02B         	movff	___flmul@grs+1,___flmul@grs+2
  1480  002DA4  C029  F02A         	movff	___flmul@grs,___flmul@grs+1
  1481  002DA8  6A29               	clrf	___flmul@grs^0,c
  1482  002DAA  501F               	movf	___flmul@a^0,w,c
  1483  002DAC  021C               	mulwf	(___flmul@b+1)^0,c
  1484  002DAE  006F FFCC  F032    	movff	prodl,___flmul@temp
  1485  002DB4  006F FFD0  F033    	movff	prodh,___flmul@temp+1
  1486  002DBA  5032               	movf	___flmul@temp^0,w,c
  1487  002DBC  2629               	addwf	___flmul@grs^0,f,c
  1488  002DBE  5033               	movf	(___flmul@temp+1)^0,w,c
  1489  002DC0  222A               	addwfc	(___flmul@grs+1)^0,f,c
  1490  002DC2  0E00               	movlw	0
  1491  002DC4  222B               	addwfc	(___flmul@grs+2)^0,f,c
  1492  002DC6  0E00               	movlw	0
  1493  002DC8  222C               	addwfc	(___flmul@grs+3)^0,f,c
  1494  002DCA  5020               	movf	(___flmul@a+1)^0,w,c
  1495  002DCC  021B               	mulwf	___flmul@b^0,c
  1496  002DCE  006F FFCC  F032    	movff	prodl,___flmul@temp
  1497  002DD4  006F FFD0  F033    	movff	prodh,___flmul@temp+1
  1498  002DDA  5032               	movf	___flmul@temp^0,w,c
  1499  002DDC  2629               	addwf	___flmul@grs^0,f,c
  1500  002DDE  5033               	movf	(___flmul@temp+1)^0,w,c
  1501  002DE0  222A               	addwfc	(___flmul@grs+1)^0,f,c
  1502  002DE2  0E00               	movlw	0
  1503  002DE4  222B               	addwfc	(___flmul@grs+2)^0,f,c
  1504  002DE6  0E00               	movlw	0
  1505  002DE8  222C               	addwfc	(___flmul@grs+3)^0,f,c
  1506  002DEA  C02B  F02C         	movff	___flmul@grs+2,___flmul@grs+3
  1507  002DEE  C02A  F02B         	movff	___flmul@grs+1,___flmul@grs+2
  1508  002DF2  C029  F02A         	movff	___flmul@grs,___flmul@grs+1
  1509  002DF6  6A29               	clrf	___flmul@grs^0,c
  1510  002DF8  501F               	movf	___flmul@a^0,w,c
  1511  002DFA  021B               	mulwf	___flmul@b^0,c
  1512  002DFC  006F FFCC  F032    	movff	prodl,___flmul@temp
  1513  002E02  006F FFD0  F033    	movff	prodh,___flmul@temp+1
  1514  002E08  5032               	movf	___flmul@temp^0,w,c
  1515  002E0A  2629               	addwf	___flmul@grs^0,f,c
  1516  002E0C  5033               	movf	(___flmul@temp+1)^0,w,c
  1517  002E0E  222A               	addwfc	(___flmul@grs+1)^0,f,c
  1518  002E10  0E00               	movlw	0
  1519  002E12  222B               	addwfc	(___flmul@grs+2)^0,f,c
  1520  002E14  0E00               	movlw	0
  1521  002E16  222C               	addwfc	(___flmul@grs+3)^0,f,c
  1522  002E18  5021               	movf	(___flmul@a+2)^0,w,c
  1523  002E1A  021C               	mulwf	(___flmul@b+1)^0,c
  1524  002E1C  006F FFCC  F032    	movff	prodl,___flmul@temp
  1525  002E22  006F FFD0  F033    	movff	prodh,___flmul@temp+1
  1526  002E28  5032               	movf	___flmul@temp^0,w,c
  1527  002E2A  262E               	addwf	___flmul@prod^0,f,c
  1528  002E2C  5033               	movf	(___flmul@temp+1)^0,w,c
  1529  002E2E  222F               	addwfc	(___flmul@prod+1)^0,f,c
  1530  002E30  0E00               	movlw	0
  1531  002E32  2230               	addwfc	(___flmul@prod+2)^0,f,c
  1532  002E34  0E00               	movlw	0
  1533  002E36  2231               	addwfc	(___flmul@prod+3)^0,f,c
  1534  002E38  5020               	movf	(___flmul@a+1)^0,w,c
  1535  002E3A  021D               	mulwf	(___flmul@b+2)^0,c
  1536  002E3C  006F FFCC  F032    	movff	prodl,___flmul@temp
  1537  002E42  006F FFD0  F033    	movff	prodh,___flmul@temp+1
  1538  002E48  5032               	movf	___flmul@temp^0,w,c
  1539  002E4A  262E               	addwf	___flmul@prod^0,f,c
  1540  002E4C  5033               	movf	(___flmul@temp+1)^0,w,c
  1541  002E4E  222F               	addwfc	(___flmul@prod+1)^0,f,c
  1542  002E50  0E00               	movlw	0
  1543  002E52  2230               	addwfc	(___flmul@prod+2)^0,f,c
  1544  002E54  0E00               	movlw	0
  1545  002E56  2231               	addwfc	(___flmul@prod+3)^0,f,c
  1546  002E58  5021               	movf	(___flmul@a+2)^0,w,c
  1547  002E5A  021D               	mulwf	(___flmul@b+2)^0,c
  1548  002E5C  006F FFCC  F032    	movff	prodl,___flmul@temp
  1549  002E62  006F FFD0  F033    	movff	prodh,___flmul@temp+1
  1550  002E68  5032               	movf	___flmul@temp^0,w,c
  1551  002E6A  6E23               	movwf	??___flmul^0,c
  1552  002E6C  5033               	movf	(___flmul@temp+1)^0,w,c
  1553  002E6E  6E24               	movwf	(??___flmul+1)^0,c
  1554  002E70  6A25               	clrf	(??___flmul+2)^0,c
  1555  002E72  6A26               	clrf	(??___flmul+3)^0,c
  1556  002E74  C025  F026         	movff	??___flmul+2,??___flmul+3
  1557  002E78  C024  F025         	movff	??___flmul+1,??___flmul+2
  1558  002E7C  C023  F024         	movff	??___flmul,??___flmul+1
  1559  002E80  6A23               	clrf	??___flmul^0,c
  1560  002E82  5023               	movf	??___flmul^0,w,c
  1561  002E84  262E               	addwf	___flmul@prod^0,f,c
  1562  002E86  5024               	movf	(??___flmul+1)^0,w,c
  1563  002E88  222F               	addwfc	(___flmul@prod+1)^0,f,c
  1564  002E8A  5025               	movf	(??___flmul+2)^0,w,c
  1565  002E8C  2230               	addwfc	(___flmul@prod+2)^0,f,c
  1566  002E8E  5026               	movf	(??___flmul+3)^0,w,c
  1567  002E90  2231               	addwfc	(___flmul@prod+3)^0,f,c
  1568  002E92  C029  F023         	movff	___flmul@grs,??___flmul
  1569  002E96  C02A  F024         	movff	___flmul@grs+1,??___flmul+1
  1570  002E9A  C02B  F025         	movff	___flmul@grs+2,??___flmul+2
  1571  002E9E  C02C  F026         	movff	___flmul@grs+3,??___flmul+3
  1572  002EA2  0E19               	movlw	25
  1573  002EA4  EF59  F017         	goto	u2950
  1574  002EA8                     u2955:
  1575  002EA8  90D8               	bcf	status,0,c
  1576  002EAA  3226               	rrcf	(??___flmul+3)^0,f,c
  1577  002EAC  3225               	rrcf	(??___flmul+2)^0,f,c
  1578  002EAE  3224               	rrcf	(??___flmul+1)^0,f,c
  1579  002EB0  3223               	rrcf	??___flmul^0,f,c
  1580  002EB2                     u2950:
  1581  002EB2  2EE8               	decfsz	wreg,f,c
  1582  002EB4  EF54  F017         	goto	u2955
  1583  002EB8  5023               	movf	??___flmul^0,w,c
  1584  002EBA  262E               	addwf	___flmul@prod^0,f,c
  1585  002EBC  5024               	movf	(??___flmul+1)^0,w,c
  1586  002EBE  222F               	addwfc	(___flmul@prod+1)^0,f,c
  1587  002EC0  5025               	movf	(??___flmul+2)^0,w,c
  1588  002EC2  2230               	addwfc	(___flmul@prod+2)^0,f,c
  1589  002EC4  5026               	movf	(??___flmul+3)^0,w,c
  1590  002EC6  2231               	addwfc	(___flmul@prod+3)^0,f,c
  1591  002EC8  C02B  F02C         	movff	___flmul@grs+2,___flmul@grs+3
  1592  002ECC  C02A  F02B         	movff	___flmul@grs+1,___flmul@grs+2
  1593  002ED0  C029  F02A         	movff	___flmul@grs,___flmul@grs+1
  1594  002ED4  6A29               	clrf	___flmul@grs^0,c
  1595  002ED6  5028               	movf	___flmul@aexp^0,w,c
  1596  002ED8  C02D  F023         	movff	___flmul@bexp,??___flmul
  1597  002EDC  6A24               	clrf	(??___flmul+1)^0,c
  1598  002EDE  2623               	addwf	??___flmul^0,f,c
  1599  002EE0  0E00               	movlw	0
  1600  002EE2  2224               	addwfc	(??___flmul+1)^0,f,c
  1601  002EE4  0E82               	movlw	130
  1602  002EE6  2423               	addwf	??___flmul^0,w,c
  1603  002EE8  6E32               	movwf	___flmul@temp^0,c
  1604  002EEA  0EFF               	movlw	255
  1605  002EEC  2024               	addwfc	(??___flmul+1)^0,w,c
  1606  002EEE  6E33               	movwf	(___flmul@temp+1)^0,c
  1607  002EF0  EF8F  F017         	goto	l4187
  1608  002EF4                     l4181:
  1609  002EF4  90D8               	bcf	status,0,c
  1610  002EF6  362E               	rlcf	___flmul@prod^0,f,c
  1611  002EF8  362F               	rlcf	(___flmul@prod+1)^0,f,c
  1612  002EFA  3630               	rlcf	(___flmul@prod+2)^0,f,c
  1613  002EFC  3631               	rlcf	(___flmul@prod+3)^0,f,c
  1614  002EFE  AE2C               	btfss	(___flmul@grs+3)^0,7,c
  1615  002F00  EF84  F017         	goto	u2961
  1616  002F04  EF86  F017         	goto	u2960
  1617  002F08                     u2961:
  1618  002F08  EF87  F017         	goto	l927
  1619  002F0C                     u2960:
  1620  002F0C  802E               	bsf	___flmul@prod^0,0,c
  1621  002F0E                     l927:
  1622  002F0E  90D8               	bcf	status,0,c
  1623  002F10  3629               	rlcf	___flmul@grs^0,f,c
  1624  002F12  362A               	rlcf	(___flmul@grs+1)^0,f,c
  1625  002F14  362B               	rlcf	(___flmul@grs+2)^0,f,c
  1626  002F16  362C               	rlcf	(___flmul@grs+3)^0,f,c
  1627  002F18  0632               	decf	___flmul@temp^0,f,c
  1628  002F1A  A0D8               	btfss	status,0,c
  1629  002F1C  0633               	decf	(___flmul@temp+1)^0,f,c
  1630  002F1E                     l4187:
  1631  002F1E  AE30               	btfss	(___flmul@prod+2)^0,7,c
  1632  002F20  EF94  F017         	goto	u2971
  1633  002F24  EF96  F017         	goto	u2970
  1634  002F28                     u2971:
  1635  002F28  EF7A  F017         	goto	l4181
  1636  002F2C                     u2970:
  1637  002F2C  0E00               	movlw	0
  1638  002F2E  6E28               	movwf	___flmul@aexp^0,c
  1639  002F30  AE2C               	btfss	(___flmul@grs+3)^0,7,c
  1640  002F32  EF9D  F017         	goto	u2981
  1641  002F36  EF9F  F017         	goto	u2980
  1642  002F3A                     u2981:
  1643  002F3A  EFC3  F017         	goto	l929
  1644  002F3E                     u2980:
  1645  002F3E  0EFF               	movlw	255
  1646  002F40  1429               	andwf	___flmul@grs^0,w,c
  1647  002F42  6E23               	movwf	??___flmul^0,c
  1648  002F44  0EFF               	movlw	255
  1649  002F46  142A               	andwf	(___flmul@grs+1)^0,w,c
  1650  002F48  6E24               	movwf	(??___flmul+1)^0,c
  1651  002F4A  0EFF               	movlw	255
  1652  002F4C  142B               	andwf	(___flmul@grs+2)^0,w,c
  1653  002F4E  6E25               	movwf	(??___flmul+2)^0,c
  1654  002F50  0E7F               	movlw	127
  1655  002F52  142C               	andwf	(___flmul@grs+3)^0,w,c
  1656  002F54  6E26               	movwf	(??___flmul+3)^0,c
  1657  002F56  5023               	movf	??___flmul^0,w,c
  1658  002F58  1024               	iorwf	(??___flmul+1)^0,w,c
  1659  002F5A  1025               	iorwf	(??___flmul+2)^0,w,c
  1660  002F5C  1026               	iorwf	(??___flmul+3)^0,w,c
  1661  002F5E  B4D8               	btfsc	status,2,c
  1662  002F60  EFB4  F017         	goto	u2991
  1663  002F64  EFB6  F017         	goto	u2990
  1664  002F68                     u2991:
  1665  002F68  EFBA  F017         	goto	l930
  1666  002F6C                     u2990:
  1667  002F6C                     l4195:
  1668  002F6C  0E01               	movlw	1
  1669  002F6E  6E28               	movwf	___flmul@aexp^0,c
  1670  002F70  EFC3  F017         	goto	l929
  1671  002F74                     l930:
  1672  002F74  A02E               	btfss	___flmul@prod^0,0,c
  1673  002F76  EFBF  F017         	goto	u3001
  1674  002F7A  EFC1  F017         	goto	u3000
  1675  002F7E                     u3001:
  1676  002F7E  EFC3  F017         	goto	l929
  1677  002F82                     u3000:
  1678  002F82  EFB6  F017         	goto	l4195
  1679  002F86                     l929:
  1680  002F86  5028               	movf	___flmul@aexp^0,w,c
  1681  002F88  B4D8               	btfsc	status,2,c
  1682  002F8A  EFC9  F017         	goto	u3011
  1683  002F8E  EFCB  F017         	goto	u3010
  1684  002F92                     u3011:
  1685  002F92  EFEF  F017         	goto	l4207
  1686  002F96                     u3010:
  1687  002F96  0E01               	movlw	1
  1688  002F98  262E               	addwf	___flmul@prod^0,f,c
  1689  002F9A  0E00               	movlw	0
  1690  002F9C  222F               	addwfc	(___flmul@prod+1)^0,f,c
  1691  002F9E  2230               	addwfc	(___flmul@prod+2)^0,f,c
  1692  002FA0  2231               	addwfc	(___flmul@prod+3)^0,f,c
  1693  002FA2  A031               	btfss	(___flmul@prod+3)^0,0,c
  1694  002FA4  EFD6  F017         	goto	u3021
  1695  002FA8  EFD8  F017         	goto	u3020
  1696  002FAC                     u3021:
  1697  002FAC  EFEF  F017         	goto	l4207
  1698  002FB0                     u3020:
  1699  002FB0  C02E  F023         	movff	___flmul@prod,??___flmul
  1700  002FB4  C02F  F024         	movff	___flmul@prod+1,??___flmul+1
  1701  002FB8  C030  F025         	movff	___flmul@prod+2,??___flmul+2
  1702  002FBC  C031  F026         	movff	___flmul@prod+3,??___flmul+3
  1703  002FC0  3426               	rlcf	(??___flmul+3)^0,w,c
  1704  002FC2  3226               	rrcf	(??___flmul+3)^0,f,c
  1705  002FC4  3225               	rrcf	(??___flmul+2)^0,f,c
  1706  002FC6  3224               	rrcf	(??___flmul+1)^0,f,c
  1707  002FC8  3223               	rrcf	??___flmul^0,f,c
  1708  002FCA  C023  F02E         	movff	??___flmul,___flmul@prod
  1709  002FCE  C024  F02F         	movff	??___flmul+1,___flmul@prod+1
  1710  002FD2  C025  F030         	movff	??___flmul+2,___flmul@prod+2
  1711  002FD6  C026  F031         	movff	??___flmul+3,___flmul@prod+3
  1712  002FDA  4A32               	infsnz	___flmul@temp^0,f,c
  1713  002FDC  2A33               	incf	(___flmul@temp+1)^0,f,c
  1714  002FDE                     l4207:
  1715  002FDE  BE33               	btfsc	(___flmul@temp+1)^0,7,c
  1716  002FE0  EFFA  F017         	goto	u3031
  1717  002FE4  5033               	movf	(___flmul@temp+1)^0,w,c
  1718  002FE6  E108               	bnz	u3030
  1719  002FE8  2832               	incf	___flmul@temp^0,w,c
  1720  002FEA  A0D8               	btfss	status,0,c
  1721  002FEC  EFFA  F017         	goto	u3031
  1722  002FF0  EFFC  F017         	goto	u3030
  1723  002FF4                     u3031:
  1724  002FF4  EF06  F018         	goto	l4211
  1725  002FF8                     u3030:
  1726  002FF8  0E00               	movlw	0
  1727  002FFA  6E2E               	movwf	___flmul@prod^0,c
  1728  002FFC  0E00               	movlw	0
  1729  002FFE  6E2F               	movwf	(___flmul@prod+1)^0,c
  1730  003000  0E80               	movlw	128
  1731  003002  6E30               	movwf	(___flmul@prod+2)^0,c
  1732  003004  0E7F               	movlw	127
  1733  003006  6E31               	movwf	(___flmul@prod+3)^0,c
  1734  003008  EF34  F018         	goto	l4223
  1735  00300C                     l4211:
  1736  00300C  BE33               	btfsc	(___flmul@temp+1)^0,7,c
  1737  00300E  EF13  F018         	goto	u3040
  1738  003012  5033               	movf	(___flmul@temp+1)^0,w,c
  1739  003014  E106               	bnz	u3041
  1740  003016  0432               	decf	___flmul@temp^0,w,c
  1741  003018  B0D8               	btfsc	status,0,c
  1742  00301A  EF11  F018         	goto	u3041
  1743  00301E  EF13  F018         	goto	u3040
  1744  003022                     u3041:
  1745  003022  EF1F  F018         	goto	l937
  1746  003026                     u3040:
  1747  003026  0E00               	movlw	0
  1748  003028  6E2E               	movwf	___flmul@prod^0,c
  1749  00302A  0E00               	movlw	0
  1750  00302C  6E2F               	movwf	(___flmul@prod+1)^0,c
  1751  00302E  0E00               	movlw	0
  1752  003030  6E30               	movwf	(___flmul@prod+2)^0,c
  1753  003032  0E00               	movlw	0
  1754  003034  6E31               	movwf	(___flmul@prod+3)^0,c
  1755  003036  0E00               	movlw	0
  1756  003038  6E27               	movwf	___flmul@sign^0,c
  1757  00303A  EF34  F018         	goto	l4223
  1758  00303E                     l937:
  1759  00303E  C032  F02D         	movff	___flmul@temp,___flmul@bexp
  1760  003042  0EFF               	movlw	255
  1761  003044  162E               	andwf	___flmul@prod^0,f,c
  1762  003046  0EFF               	movlw	255
  1763  003048  162F               	andwf	(___flmul@prod+1)^0,f,c
  1764  00304A  0E7F               	movlw	127
  1765  00304C  1630               	andwf	(___flmul@prod+2)^0,f,c
  1766  00304E  0E00               	movlw	0
  1767  003050  1631               	andwf	(___flmul@prod+3)^0,f,c
  1768  003052  A02D               	btfss	___flmul@bexp^0,0,c
  1769  003054  EF2E  F018         	goto	u3051
  1770  003058  EF30  F018         	goto	u3050
  1771  00305C                     u3051:
  1772  00305C  EF31  F018         	goto	l4221
  1773  003060                     u3050:
  1774  003060  8E30               	bsf	(___flmul@prod+2)^0,7,c
  1775  003062                     l4221:
  1776  003062  90D8               	bcf	status,0,c
  1777  003064  302D               	rrcf	___flmul@bexp^0,w,c
  1778  003066  6E31               	movwf	(___flmul@prod+3)^0,c
  1779  003068                     l4223:
  1780  003068  5027               	movf	___flmul@sign^0,w,c
  1781  00306A  1231               	iorwf	(___flmul@prod+3)^0,f,c
  1782  00306C  C02E  F01B         	movff	___flmul@prod,?___flmul
  1783  003070  C02F  F01C         	movff	___flmul@prod+1,?___flmul+1
  1784  003074  C030  F01D         	movff	___flmul@prod+2,?___flmul+2
  1785  003078  C031  F01E         	movff	___flmul@prod+3,?___flmul+3
  1786  00307C                     l924:
  1787  00307C  0012               	return		;funcret
  1788  00307E                     __end_of___flmul:
  1789                           	callstack 0
  1790                           
  1791 ;; *************** function ___fldiv *****************
  1792 ;; Defined at:
  1793 ;;		line 11 in file "C:\Program Files\Microchip\xc8\v2.32\pic\sources\c99\common\sprcdiv.c"
  1794 ;; Parameters:    Size  Location     Type
  1795 ;;  b               4    1[COMRAM] unsigned char 
  1796 ;;  a               4    5[COMRAM] unsigned char 
  1797 ;; Auto vars:     Size  Location     Type
  1798 ;;  grs             4   20[COMRAM] unsigned long 
  1799 ;;  rem             4   13[COMRAM] unsigned long 
  1800 ;;  new_exp         2   18[COMRAM] short 
  1801 ;;  aexp            1   25[COMRAM] unsigned char 
  1802 ;;  bexp            1   24[COMRAM] unsigned char 
  1803 ;;  sign            1   17[COMRAM] unsigned char 
  1804 ;; Return value:  Size  Location     Type
  1805 ;;                  4    1[COMRAM] unsigned char 
  1806 ;; Registers used:
  1807 ;;		wreg, status,2, status,0
  1808 ;; Tracked objects:
  1809 ;;		On entry : 0/0
  1810 ;;		On exit  : 0/0
  1811 ;;		Unchanged: 0/0
  1812 ;; Data sizes:     COMRAM   BANK0   BANK1   BANK2   BANK3   BANK4   BANK5   BANK6   BANK7   BANK8   BANK9  BANK10  BANK1
      +1  BANK12  BANK13  BANK14  BANK15  BANK16  BANK17  BANK18  BANK19  BANK20  BANK21  BANK22  BANK23  BANK24  BANK25  BANK2
      +6  BANK27  BANK28  BANK29  BANK30  BANK31
  1813 ;;      Params:         8       0       0       0       0       0       0       0       0       0       0       0       
      +0       0       0       0       0       0       0       0       0       0       0       0       0       0       0       
      +0       0       0       0       0       0
  1814 ;;      Locals:        13       0       0       0       0       0       0       0       0       0       0       0       
      +0       0       0       0       0       0       0       0       0       0       0       0       0       0       0       
      +0       0       0       0       0       0
  1815 ;;      Temps:          4       0       0       0       0       0       0       0       0       0       0       0       
      +0       0       0       0       0       0       0       0       0       0       0       0       0       0       0       
      +0       0       0       0       0       0
  1816 ;;      Totals:        25       0       0       0       0       0       0       0       0       0       0       0       
      +0       0       0       0       0       0       0       0       0       0       0       0       0       0       0       
      +0       0       0       0       0       0
  1817 ;;Total ram usage:       25 bytes
  1818 ;; Hardware stack levels used: 1
  1819 ;; Hardware stack levels required when called: 2
  1820 ;; This function calls:
  1821 ;;		Nothing
  1822 ;; This function is called by:
  1823 ;;		_initialize_tone_generator
  1824 ;; This function uses a non-reentrant model
  1825 ;;
  1826                           
  1827                           	psect	text5
  1828  00307E                     __ptext5:
  1829                           	callstack 0
  1830  00307E                     ___fldiv:
  1831                           	callstack 27
  1832  00307E  5005               	movf	(___fldiv@b+3)^0,w,c
  1833  003080  0B80               	andlw	128
  1834  003082  6E12               	movwf	___fldiv@sign^0,c
  1835  003084  5005               	movf	(___fldiv@b+3)^0,w,c
  1836  003086  2405               	addwf	(___fldiv@b+3)^0,w,c
  1837  003088  6E19               	movwf	___fldiv@bexp^0,c
  1838  00308A  AE04               	btfss	(___fldiv@b+2)^0,7,c
  1839  00308C  EF4A  F018         	goto	u2641
  1840  003090  EF4C  F018         	goto	u2640
  1841  003094                     u2641:
  1842  003094  EF4D  F018         	goto	l3967
  1843  003098                     u2640:
  1844  003098  8019               	bsf	___fldiv@bexp^0,0,c
  1845  00309A                     l3967:
  1846  00309A  5019               	movf	___fldiv@bexp^0,w,c
  1847  00309C  B4D8               	btfsc	status,2,c
  1848  00309E  EF53  F018         	goto	u2651
  1849  0030A2  EF55  F018         	goto	u2650
  1850  0030A6                     u2651:
  1851  0030A6  EF6A  F018         	goto	l3977
  1852  0030AA                     u2650:
  1853  0030AA  2819               	incf	___fldiv@bexp^0,w,c
  1854  0030AC  A4D8               	btfss	status,2,c
  1855  0030AE  EF5B  F018         	goto	u2661
  1856  0030B2  EF5D  F018         	goto	u2660
  1857  0030B6                     u2661:
  1858  0030B6  EF65  F018         	goto	l3973
  1859  0030BA                     u2660:
  1860  0030BA  0E00               	movlw	0
  1861  0030BC  6E02               	movwf	___fldiv@b^0,c
  1862  0030BE  0E00               	movlw	0
  1863  0030C0  6E03               	movwf	(___fldiv@b+1)^0,c
  1864  0030C2  0E00               	movlw	0
  1865  0030C4  6E04               	movwf	(___fldiv@b+2)^0,c
  1866  0030C6  0E00               	movlw	0
  1867  0030C8  6E05               	movwf	(___fldiv@b+3)^0,c
  1868  0030CA                     l3973:
  1869  0030CA  8E04               	bsf	(___fldiv@b+2)^0,7,c
  1870  0030CC  0E00               	movlw	0
  1871  0030CE  6E05               	movwf	(___fldiv@b+3)^0,c
  1872  0030D0  EF72  F018         	goto	l3979
  1873  0030D4                     l3977:
  1874  0030D4  0E00               	movlw	0
  1875  0030D6  6E02               	movwf	___fldiv@b^0,c
  1876  0030D8  0E00               	movlw	0
  1877  0030DA  6E03               	movwf	(___fldiv@b+1)^0,c
  1878  0030DC  0E00               	movlw	0
  1879  0030DE  6E04               	movwf	(___fldiv@b+2)^0,c
  1880  0030E0  0E00               	movlw	0
  1881  0030E2  6E05               	movwf	(___fldiv@b+3)^0,c
  1882  0030E4                     l3979:
  1883  0030E4  5009               	movf	(___fldiv@a+3)^0,w,c
  1884  0030E6  0B80               	andlw	128
  1885  0030E8  1A12               	xorwf	___fldiv@sign^0,f,c
  1886  0030EA  5009               	movf	(___fldiv@a+3)^0,w,c
  1887  0030EC  2409               	addwf	(___fldiv@a+3)^0,w,c
  1888  0030EE  6E1A               	movwf	___fldiv@aexp^0,c
  1889  0030F0  AE08               	btfss	(___fldiv@a+2)^0,7,c
  1890  0030F2  EF7D  F018         	goto	u2671
  1891  0030F6  EF7F  F018         	goto	u2670
  1892  0030FA                     u2671:
  1893  0030FA  EF80  F018         	goto	l3987
  1894  0030FE                     u2670:
  1895  0030FE  801A               	bsf	___fldiv@aexp^0,0,c
  1896  003100                     l3987:
  1897  003100  501A               	movf	___fldiv@aexp^0,w,c
  1898  003102  B4D8               	btfsc	status,2,c
  1899  003104  EF86  F018         	goto	u2681
  1900  003108  EF88  F018         	goto	u2680
  1901  00310C                     u2681:
  1902  00310C  EF9D  F018         	goto	l3997
  1903  003110                     u2680:
  1904  003110  281A               	incf	___fldiv@aexp^0,w,c
  1905  003112  A4D8               	btfss	status,2,c
  1906  003114  EF8E  F018         	goto	u2691
  1907  003118  EF90  F018         	goto	u2690
  1908  00311C                     u2691:
  1909  00311C  EF98  F018         	goto	l3993
  1910  003120                     u2690:
  1911  003120  0E00               	movlw	0
  1912  003122  6E06               	movwf	___fldiv@a^0,c
  1913  003124  0E00               	movlw	0
  1914  003126  6E07               	movwf	(___fldiv@a+1)^0,c
  1915  003128  0E00               	movlw	0
  1916  00312A  6E08               	movwf	(___fldiv@a+2)^0,c
  1917  00312C  0E00               	movlw	0
  1918  00312E  6E09               	movwf	(___fldiv@a+3)^0,c
  1919  003130                     l3993:
  1920  003130  8E08               	bsf	(___fldiv@a+2)^0,7,c
  1921  003132  0E00               	movlw	0
  1922  003134  6E09               	movwf	(___fldiv@a+3)^0,c
  1923  003136  EFA5  F018         	goto	l3999
  1924  00313A                     l3997:
  1925  00313A  0E00               	movlw	0
  1926  00313C  6E06               	movwf	___fldiv@a^0,c
  1927  00313E  0E00               	movlw	0
  1928  003140  6E07               	movwf	(___fldiv@a+1)^0,c
  1929  003142  0E00               	movlw	0
  1930  003144  6E08               	movwf	(___fldiv@a+2)^0,c
  1931  003146  0E00               	movlw	0
  1932  003148  6E09               	movwf	(___fldiv@a+3)^0,c
  1933  00314A                     l3999:
  1934  00314A  5006               	movf	___fldiv@a^0,w,c
  1935  00314C  1007               	iorwf	(___fldiv@a+1)^0,w,c
  1936  00314E  1008               	iorwf	(___fldiv@a+2)^0,w,c
  1937  003150  1009               	iorwf	(___fldiv@a+3)^0,w,c
  1938  003152  A4D8               	btfss	status,2,c
  1939  003154  EFAE  F018         	goto	u2701
  1940  003158  EFB0  F018         	goto	u2700
  1941  00315C                     u2701:
  1942  00315C  EFC8  F018         	goto	l4011
  1943  003160                     u2700:
  1944  003160  0E00               	movlw	0
  1945  003162  6E02               	movwf	___fldiv@b^0,c
  1946  003164  0E00               	movlw	0
  1947  003166  6E03               	movwf	(___fldiv@b+1)^0,c
  1948  003168  0E00               	movlw	0
  1949  00316A  6E04               	movwf	(___fldiv@b+2)^0,c
  1950  00316C  0E00               	movlw	0
  1951  00316E  6E05               	movwf	(___fldiv@b+3)^0,c
  1952  003170  0E80               	movlw	128
  1953  003172  1204               	iorwf	(___fldiv@b+2)^0,f,c
  1954  003174  0E7F               	movlw	127
  1955  003176  1205               	iorwf	(___fldiv@b+3)^0,f,c
  1956  003178                     l4005:
  1957  003178  5012               	movf	___fldiv@sign^0,w,c
  1958  00317A  1205               	iorwf	(___fldiv@b+3)^0,f,c
  1959  00317C  C002  F002         	movff	___fldiv@b,?___fldiv
  1960  003180  C003  F003         	movff	___fldiv@b+1,?___fldiv+1
  1961  003184  C004  F004         	movff	___fldiv@b+2,?___fldiv+2
  1962  003188  C005  F005         	movff	___fldiv@b+3,?___fldiv+3
  1963  00318C  EF0B  F01A         	goto	l888
  1964  003190                     l4011:
  1965  003190  5019               	movf	___fldiv@bexp^0,w,c
  1966  003192  A4D8               	btfss	status,2,c
  1967  003194  EFCE  F018         	goto	u2711
  1968  003198  EFD0  F018         	goto	u2710
  1969  00319C                     u2711:
  1970  00319C  EFDA  F018         	goto	l4019
  1971  0031A0                     u2710:
  1972  0031A0  0E00               	movlw	0
  1973  0031A2  6E02               	movwf	?___fldiv^0,c
  1974  0031A4  0E00               	movlw	0
  1975  0031A6  6E03               	movwf	(?___fldiv+1)^0,c
  1976  0031A8  0E00               	movlw	0
  1977  0031AA  6E04               	movwf	(?___fldiv+2)^0,c
  1978  0031AC  0E00               	movlw	0
  1979  0031AE  6E05               	movwf	(?___fldiv+3)^0,c
  1980  0031B0  EF0B  F01A         	goto	l888
  1981  0031B4                     l4019:
  1982  0031B4  501A               	movf	___fldiv@aexp^0,w,c
  1983  0031B6  C019  F00A         	movff	___fldiv@bexp,??___fldiv
  1984  0031BA  6A0B               	clrf	(??___fldiv+1)^0,c
  1985  0031BC  5E0A               	subwf	??___fldiv^0,f,c
  1986  0031BE  0E00               	movlw	0
  1987  0031C0  5A0B               	subwfb	(??___fldiv+1)^0,f,c
  1988  0031C2  0E7F               	movlw	127
  1989  0031C4  240A               	addwf	??___fldiv^0,w,c
  1990  0031C6  6E13               	movwf	___fldiv@new_exp^0,c
  1991  0031C8  0E00               	movlw	0
  1992  0031CA  200B               	addwfc	(??___fldiv+1)^0,w,c
  1993  0031CC  6E14               	movwf	(___fldiv@new_exp+1)^0,c
  1994  0031CE  C002  F00E         	movff	___fldiv@b,___fldiv@rem
  1995  0031D2  C003  F00F         	movff	___fldiv@b+1,___fldiv@rem+1
  1996  0031D6  C004  F010         	movff	___fldiv@b+2,___fldiv@rem+2
  1997  0031DA  C005  F011         	movff	___fldiv@b+3,___fldiv@rem+3
  1998  0031DE  0E00               	movlw	0
  1999  0031E0  6E02               	movwf	___fldiv@b^0,c
  2000  0031E2  0E00               	movlw	0
  2001  0031E4  6E03               	movwf	(___fldiv@b+1)^0,c
  2002  0031E6  0E00               	movlw	0
  2003  0031E8  6E04               	movwf	(___fldiv@b+2)^0,c
  2004  0031EA  0E00               	movlw	0
  2005  0031EC  6E05               	movwf	(___fldiv@b+3)^0,c
  2006  0031EE  0E00               	movlw	0
  2007  0031F0  6E15               	movwf	___fldiv@grs^0,c
  2008  0031F2  0E00               	movlw	0
  2009  0031F4  6E16               	movwf	(___fldiv@grs+1)^0,c
  2010  0031F6  0E00               	movlw	0
  2011  0031F8  6E17               	movwf	(___fldiv@grs+2)^0,c
  2012  0031FA  0E00               	movlw	0
  2013  0031FC  6E18               	movwf	(___fldiv@grs+3)^0,c
  2014  0031FE  0E00               	movlw	0
  2015  003200  6E1A               	movwf	___fldiv@aexp^0,c
  2016  003202  EF3B  F019         	goto	l890
  2017  003206                     l4029:
  2018  003206  501A               	movf	___fldiv@aexp^0,w,c
  2019  003208  B4D8               	btfsc	status,2,c
  2020  00320A  EF09  F019         	goto	u2721
  2021  00320E  EF0B  F019         	goto	u2720
  2022  003212                     u2721:
  2023  003212  EF22  F019         	goto	l4037
  2024  003216                     u2720:
  2025  003216  90D8               	bcf	status,0,c
  2026  003218  360E               	rlcf	___fldiv@rem^0,f,c
  2027  00321A  360F               	rlcf	(___fldiv@rem+1)^0,f,c
  2028  00321C  3610               	rlcf	(___fldiv@rem+2)^0,f,c
  2029  00321E  3611               	rlcf	(___fldiv@rem+3)^0,f,c
  2030  003220  90D8               	bcf	status,0,c
  2031  003222  3602               	rlcf	___fldiv@b^0,f,c
  2032  003224  3603               	rlcf	(___fldiv@b+1)^0,f,c
  2033  003226  3604               	rlcf	(___fldiv@b+2)^0,f,c
  2034  003228  3605               	rlcf	(___fldiv@b+3)^0,f,c
  2035  00322A  AE18               	btfss	(___fldiv@grs+3)^0,7,c
  2036  00322C  EF1A  F019         	goto	u2731
  2037  003230  EF1C  F019         	goto	u2730
  2038  003234                     u2731:
  2039  003234  EF1D  F019         	goto	l893
  2040  003238                     u2730:
  2041  003238  8002               	bsf	___fldiv@b^0,0,c
  2042  00323A                     l893:
  2043  00323A  90D8               	bcf	status,0,c
  2044  00323C  3615               	rlcf	___fldiv@grs^0,f,c
  2045  00323E  3616               	rlcf	(___fldiv@grs+1)^0,f,c
  2046  003240  3617               	rlcf	(___fldiv@grs+2)^0,f,c
  2047  003242  3618               	rlcf	(___fldiv@grs+3)^0,f,c
  2048  003244                     l4037:
  2049  003244  5006               	movf	___fldiv@a^0,w,c
  2050  003246  5C0E               	subwf	___fldiv@rem^0,w,c
  2051  003248  5007               	movf	(___fldiv@a+1)^0,w,c
  2052  00324A  580F               	subwfb	(___fldiv@rem+1)^0,w,c
  2053  00324C  5008               	movf	(___fldiv@a+2)^0,w,c
  2054  00324E  5810               	subwfb	(___fldiv@rem+2)^0,w,c
  2055  003250  5009               	movf	(___fldiv@a+3)^0,w,c
  2056  003252  5811               	subwfb	(___fldiv@rem+3)^0,w,c
  2057  003254  A0D8               	btfss	status,0,c
  2058  003256  EF2F  F019         	goto	u2741
  2059  00325A  EF31  F019         	goto	u2740
  2060  00325E                     u2741:
  2061  00325E  EF3A  F019         	goto	l4043
  2062  003262                     u2740:
  2063  003262  8C18               	bsf	(___fldiv@grs+3)^0,6,c
  2064  003264  5006               	movf	___fldiv@a^0,w,c
  2065  003266  5E0E               	subwf	___fldiv@rem^0,f,c
  2066  003268  5007               	movf	(___fldiv@a+1)^0,w,c
  2067  00326A  5A0F               	subwfb	(___fldiv@rem+1)^0,f,c
  2068  00326C  5008               	movf	(___fldiv@a+2)^0,w,c
  2069  00326E  5A10               	subwfb	(___fldiv@rem+2)^0,f,c
  2070  003270  5009               	movf	(___fldiv@a+3)^0,w,c
  2071  003272  5A11               	subwfb	(___fldiv@rem+3)^0,f,c
  2072  003274                     l4043:
  2073  003274  2A1A               	incf	___fldiv@aexp^0,f,c
  2074  003276                     l890:
  2075  003276  0E19               	movlw	25
  2076  003278  641A               	cpfsgt	___fldiv@aexp^0,c
  2077  00327A  EF41  F019         	goto	u2751
  2078  00327E  EF43  F019         	goto	u2750
  2079  003282                     u2751:
  2080  003282  EF03  F019         	goto	l4029
  2081  003286                     u2750:
  2082  003286  500E               	movf	___fldiv@rem^0,w,c
  2083  003288  100F               	iorwf	(___fldiv@rem+1)^0,w,c
  2084  00328A  1010               	iorwf	(___fldiv@rem+2)^0,w,c
  2085  00328C  1011               	iorwf	(___fldiv@rem+3)^0,w,c
  2086  00328E  B4D8               	btfsc	status,2,c
  2087  003290  EF4C  F019         	goto	u2761
  2088  003294  EF4E  F019         	goto	u2760
  2089  003298                     u2761:
  2090  003298  EF66  F019         	goto	l4055
  2091  00329C                     u2760:
  2092  00329C  8015               	bsf	___fldiv@grs^0,0,c
  2093  00329E  EF66  F019         	goto	l4055
  2094  0032A2                     l4049:
  2095  0032A2  90D8               	bcf	status,0,c
  2096  0032A4  3602               	rlcf	___fldiv@b^0,f,c
  2097  0032A6  3603               	rlcf	(___fldiv@b+1)^0,f,c
  2098  0032A8  3604               	rlcf	(___fldiv@b+2)^0,f,c
  2099  0032AA  3605               	rlcf	(___fldiv@b+3)^0,f,c
  2100  0032AC  AE18               	btfss	(___fldiv@grs+3)^0,7,c
  2101  0032AE  EF5B  F019         	goto	u2771
  2102  0032B2  EF5D  F019         	goto	u2770
  2103  0032B6                     u2771:
  2104  0032B6  EF5E  F019         	goto	l899
  2105  0032BA                     u2770:
  2106  0032BA  8002               	bsf	___fldiv@b^0,0,c
  2107  0032BC                     l899:
  2108  0032BC  90D8               	bcf	status,0,c
  2109  0032BE  3615               	rlcf	___fldiv@grs^0,f,c
  2110  0032C0  3616               	rlcf	(___fldiv@grs+1)^0,f,c
  2111  0032C2  3617               	rlcf	(___fldiv@grs+2)^0,f,c
  2112  0032C4  3618               	rlcf	(___fldiv@grs+3)^0,f,c
  2113  0032C6  0613               	decf	___fldiv@new_exp^0,f,c
  2114  0032C8  A0D8               	btfss	status,0,c
  2115  0032CA  0614               	decf	(___fldiv@new_exp+1)^0,f,c
  2116  0032CC                     l4055:
  2117  0032CC  AE04               	btfss	(___fldiv@b+2)^0,7,c
  2118  0032CE  EF6B  F019         	goto	u2781
  2119  0032D2  EF6D  F019         	goto	u2780
  2120  0032D6                     u2781:
  2121  0032D6  EF51  F019         	goto	l4049
  2122  0032DA                     u2780:
  2123  0032DA  0E00               	movlw	0
  2124  0032DC  6E1A               	movwf	___fldiv@aexp^0,c
  2125  0032DE  AE18               	btfss	(___fldiv@grs+3)^0,7,c
  2126  0032E0  EF74  F019         	goto	u2791
  2127  0032E4  EF76  F019         	goto	u2790
  2128  0032E8                     u2791:
  2129  0032E8  EF9A  F019         	goto	l901
  2130  0032EC                     u2790:
  2131  0032EC  0EFF               	movlw	255
  2132  0032EE  1415               	andwf	___fldiv@grs^0,w,c
  2133  0032F0  6E0A               	movwf	??___fldiv^0,c
  2134  0032F2  0EFF               	movlw	255
  2135  0032F4  1416               	andwf	(___fldiv@grs+1)^0,w,c
  2136  0032F6  6E0B               	movwf	(??___fldiv+1)^0,c
  2137  0032F8  0EFF               	movlw	255
  2138  0032FA  1417               	andwf	(___fldiv@grs+2)^0,w,c
  2139  0032FC  6E0C               	movwf	(??___fldiv+2)^0,c
  2140  0032FE  0E7F               	movlw	127
  2141  003300  1418               	andwf	(___fldiv@grs+3)^0,w,c
  2142  003302  6E0D               	movwf	(??___fldiv+3)^0,c
  2143  003304  500A               	movf	??___fldiv^0,w,c
  2144  003306  100B               	iorwf	(??___fldiv+1)^0,w,c
  2145  003308  100C               	iorwf	(??___fldiv+2)^0,w,c
  2146  00330A  100D               	iorwf	(??___fldiv+3)^0,w,c
  2147  00330C  B4D8               	btfsc	status,2,c
  2148  00330E  EF8B  F019         	goto	u2801
  2149  003312  EF8D  F019         	goto	u2800
  2150  003316                     u2801:
  2151  003316  EF91  F019         	goto	l902
  2152  00331A                     u2800:
  2153  00331A                     l4063:
  2154  00331A  0E01               	movlw	1
  2155  00331C  6E1A               	movwf	___fldiv@aexp^0,c
  2156  00331E  EF9A  F019         	goto	l901
  2157  003322                     l902:
  2158  003322  A002               	btfss	___fldiv@b^0,0,c
  2159  003324  EF96  F019         	goto	u2811
  2160  003328  EF98  F019         	goto	u2810
  2161  00332C                     u2811:
  2162  00332C  EF9A  F019         	goto	l901
  2163  003330                     u2810:
  2164  003330  EF8D  F019         	goto	l4063
  2165  003334                     l901:
  2166  003334  501A               	movf	___fldiv@aexp^0,w,c
  2167  003336  B4D8               	btfsc	status,2,c
  2168  003338  EFA0  F019         	goto	u2821
  2169  00333C  EFA2  F019         	goto	u2820
  2170  003340                     u2821:
  2171  003340  EFC6  F019         	goto	l4075
  2172  003344                     u2820:
  2173  003344  0E01               	movlw	1
  2174  003346  2602               	addwf	___fldiv@b^0,f,c
  2175  003348  0E00               	movlw	0
  2176  00334A  2203               	addwfc	(___fldiv@b+1)^0,f,c
  2177  00334C  2204               	addwfc	(___fldiv@b+2)^0,f,c
  2178  00334E  2205               	addwfc	(___fldiv@b+3)^0,f,c
  2179  003350  A005               	btfss	(___fldiv@b+3)^0,0,c
  2180  003352  EFAD  F019         	goto	u2831
  2181  003356  EFAF  F019         	goto	u2830
  2182  00335A                     u2831:
  2183  00335A  EFC6  F019         	goto	l4075
  2184  00335E                     u2830:
  2185  00335E  C002  F00A         	movff	___fldiv@b,??___fldiv
  2186  003362  C003  F00B         	movff	___fldiv@b+1,??___fldiv+1
  2187  003366  C004  F00C         	movff	___fldiv@b+2,??___fldiv+2
  2188  00336A  C005  F00D         	movff	___fldiv@b+3,??___fldiv+3
  2189  00336E  340D               	rlcf	(??___fldiv+3)^0,w,c
  2190  003370  320D               	rrcf	(??___fldiv+3)^0,f,c
  2191  003372  320C               	rrcf	(??___fldiv+2)^0,f,c
  2192  003374  320B               	rrcf	(??___fldiv+1)^0,f,c
  2193  003376  320A               	rrcf	??___fldiv^0,f,c
  2194  003378  C00A  F002         	movff	??___fldiv,___fldiv@b
  2195  00337C  C00B  F003         	movff	??___fldiv+1,___fldiv@b+1
  2196  003380  C00C  F004         	movff	??___fldiv+2,___fldiv@b+2
  2197  003384  C00D  F005         	movff	??___fldiv+3,___fldiv@b+3
  2198  003388  4A13               	infsnz	___fldiv@new_exp^0,f,c
  2199  00338A  2A14               	incf	(___fldiv@new_exp+1)^0,f,c
  2200  00338C                     l4075:
  2201  00338C  BE14               	btfsc	(___fldiv@new_exp+1)^0,7,c
  2202  00338E  EFD1  F019         	goto	u2841
  2203  003392  5014               	movf	(___fldiv@new_exp+1)^0,w,c
  2204  003394  E108               	bnz	u2840
  2205  003396  2813               	incf	___fldiv@new_exp^0,w,c
  2206  003398  A0D8               	btfss	status,0,c
  2207  00339A  EFD1  F019         	goto	u2841
  2208  00339E  EFD3  F019         	goto	u2840
  2209  0033A2                     u2841:
  2210  0033A2  EFDE  F019         	goto	l4079
  2211  0033A6                     u2840:
  2212  0033A6  0E00               	movlw	0
  2213  0033A8  6E14               	movwf	(___fldiv@new_exp+1)^0,c
  2214  0033AA  6813               	setf	___fldiv@new_exp^0,c
  2215  0033AC  0E00               	movlw	0
  2216  0033AE  6E02               	movwf	___fldiv@b^0,c
  2217  0033B0  0E00               	movlw	0
  2218  0033B2  6E03               	movwf	(___fldiv@b+1)^0,c
  2219  0033B4  0E00               	movlw	0
  2220  0033B6  6E04               	movwf	(___fldiv@b+2)^0,c
  2221  0033B8  0E00               	movlw	0
  2222  0033BA  6E05               	movwf	(___fldiv@b+3)^0,c
  2223  0033BC                     l4079:
  2224  0033BC  BE14               	btfsc	(___fldiv@new_exp+1)^0,7,c
  2225  0033BE  EFEB  F019         	goto	u2850
  2226  0033C2  5014               	movf	(___fldiv@new_exp+1)^0,w,c
  2227  0033C4  E106               	bnz	u2851
  2228  0033C6  0413               	decf	___fldiv@new_exp^0,w,c
  2229  0033C8  B0D8               	btfsc	status,0,c
  2230  0033CA  EFE9  F019         	goto	u2851
  2231  0033CE  EFEB  F019         	goto	u2850
  2232  0033D2                     u2851:
  2233  0033D2  EFF9  F019         	goto	l4083
  2234  0033D6                     u2850:
  2235  0033D6  0E00               	movlw	0
  2236  0033D8  6E14               	movwf	(___fldiv@new_exp+1)^0,c
  2237  0033DA  0E00               	movlw	0
  2238  0033DC  6E13               	movwf	___fldiv@new_exp^0,c
  2239  0033DE  0E00               	movlw	0
  2240  0033E0  6E02               	movwf	___fldiv@b^0,c
  2241  0033E2  0E00               	movlw	0
  2242  0033E4  6E03               	movwf	(___fldiv@b+1)^0,c
  2243  0033E6  0E00               	movlw	0
  2244  0033E8  6E04               	movwf	(___fldiv@b+2)^0,c
  2245  0033EA  0E00               	movlw	0
  2246  0033EC  6E05               	movwf	(___fldiv@b+3)^0,c
  2247  0033EE  0E00               	movlw	0
  2248  0033F0  6E12               	movwf	___fldiv@sign^0,c
  2249  0033F2                     l4083:
  2250  0033F2  C013  F019         	movff	___fldiv@new_exp,___fldiv@bexp
  2251  0033F6  A019               	btfss	___fldiv@bexp^0,0,c
  2252  0033F8  EF00  F01A         	goto	u2861
  2253  0033FC  EF02  F01A         	goto	u2860
  2254  003400                     u2861:
  2255  003400  EF05  F01A         	goto	l4089
  2256  003404                     u2860:
  2257  003404  8E04               	bsf	(___fldiv@b+2)^0,7,c
  2258  003406  EF06  F01A         	goto	l4091
  2259  00340A                     l4089:
  2260  00340A  9E04               	bcf	(___fldiv@b+2)^0,7,c
  2261  00340C                     l4091:
  2262  00340C  90D8               	bcf	status,0,c
  2263  00340E  3019               	rrcf	___fldiv@bexp^0,w,c
  2264  003410  6E05               	movwf	(___fldiv@b+3)^0,c
  2265  003412  EFBC  F018         	goto	l4005
  2266  003416                     l888:
  2267  003416  0012               	return		;funcret
  2268  003418                     __end_of___fldiv:
  2269                           	callstack 0
  2270                           
  2271 ;; *************** function ___fladd *****************
  2272 ;; Defined at:
  2273 ;;		line 10 in file "C:\Program Files\Microchip\xc8\v2.32\pic\sources\c99\common\sprcadd.c"
  2274 ;; Parameters:    Size  Location     Type
  2275 ;;  b               4   51[COMRAM] unsigned char 
  2276 ;;  a               4   55[COMRAM] unsigned char 
  2277 ;; Auto vars:     Size  Location     Type
  2278 ;;  grs             1   66[COMRAM] unsigned char 
  2279 ;;  bexp            1   65[COMRAM] unsigned char 
  2280 ;;  aexp            1   64[COMRAM] unsigned char 
  2281 ;;  signs           1   63[COMRAM] unsigned char 
  2282 ;; Return value:  Size  Location     Type
  2283 ;;                  4   51[COMRAM] unsigned char 
  2284 ;; Registers used:
  2285 ;;		wreg, status,2, status,0
  2286 ;; Tracked objects:
  2287 ;;		On entry : 0/0
  2288 ;;		On exit  : 0/0
  2289 ;;		Unchanged: 0/0
  2290 ;; Data sizes:     COMRAM   BANK0   BANK1   BANK2   BANK3   BANK4   BANK5   BANK6   BANK7   BANK8   BANK9  BANK10  BANK1
      +1  BANK12  BANK13  BANK14  BANK15  BANK16  BANK17  BANK18  BANK19  BANK20  BANK21  BANK22  BANK23  BANK24  BANK25  BANK2
      +6  BANK27  BANK28  BANK29  BANK30  BANK31
  2291 ;;      Params:         8       0       0       0       0       0       0       0       0       0       0       0       
      +0       0       0       0       0       0       0       0       0       0       0       0       0       0       0       
      +0       0       0       0       0       0
  2292 ;;      Locals:         4       0       0       0       0       0       0       0       0       0       0       0       
      +0       0       0       0       0       0       0       0       0       0       0       0       0       0       0       
      +0       0       0       0       0       0
  2293 ;;      Temps:          4       0       0       0       0       0       0       0       0       0       0       0       
      +0       0       0       0       0       0       0       0       0       0       0       0       0       0       0       
      +0       0       0       0       0       0
  2294 ;;      Totals:        16       0       0       0       0       0       0       0       0       0       0       0       
      +0       0       0       0       0       0       0       0       0       0       0       0       0       0       0       
      +0       0       0       0       0       0
  2295 ;;Total ram usage:       16 bytes
  2296 ;; Hardware stack levels used: 1
  2297 ;; Hardware stack levels required when called: 2
  2298 ;; This function calls:
  2299 ;;		Nothing
  2300 ;; This function is called by:
  2301 ;;		_initialize_tone_generator
  2302 ;; This function uses a non-reentrant model
  2303 ;;
  2304                           
  2305                           	psect	text6
  2306  002770                     __ptext6:
  2307                           	callstack 0
  2308  002770                     ___fladd:
  2309                           	callstack 27
  2310  002770  5037               	movf	(___fladd@b+3)^0,w,c
  2311  002772  0B80               	andlw	128
  2312  002774  6E40               	movwf	___fladd@signs^0,c
  2313  002776  5037               	movf	(___fladd@b+3)^0,w,c
  2314  002778  2437               	addwf	(___fladd@b+3)^0,w,c
  2315  00277A  6E42               	movwf	___fladd@bexp^0,c
  2316  00277C  AE36               	btfss	(___fladd@b+2)^0,7,c
  2317  00277E  EFC3  F013         	goto	u2251
  2318  002782  EFC5  F013         	goto	u2250
  2319  002786                     u2251:
  2320  002786  EFC6  F013         	goto	l3765
  2321  00278A                     u2250:
  2322  00278A  8042               	bsf	___fladd@bexp^0,0,c
  2323  00278C                     l3765:
  2324  00278C  5042               	movf	___fladd@bexp^0,w,c
  2325  00278E  B4D8               	btfsc	status,2,c
  2326  002790  EFCC  F013         	goto	u2261
  2327  002794  EFCE  F013         	goto	u2260
  2328  002798                     u2261:
  2329  002798  EFE3  F013         	goto	l3775
  2330  00279C                     u2260:
  2331  00279C  2842               	incf	___fladd@bexp^0,w,c
  2332  00279E  A4D8               	btfss	status,2,c
  2333  0027A0  EFD4  F013         	goto	u2271
  2334  0027A4  EFD6  F013         	goto	u2270
  2335  0027A8                     u2271:
  2336  0027A8  EFDE  F013         	goto	l3771
  2337  0027AC                     u2270:
  2338  0027AC  0E00               	movlw	0
  2339  0027AE  6E34               	movwf	___fladd@b^0,c
  2340  0027B0  0E00               	movlw	0
  2341  0027B2  6E35               	movwf	(___fladd@b+1)^0,c
  2342  0027B4  0E00               	movlw	0
  2343  0027B6  6E36               	movwf	(___fladd@b+2)^0,c
  2344  0027B8  0E00               	movlw	0
  2345  0027BA  6E37               	movwf	(___fladd@b+3)^0,c
  2346  0027BC                     l3771:
  2347  0027BC  8E36               	bsf	(___fladd@b+2)^0,7,c
  2348  0027BE  0E00               	movlw	0
  2349  0027C0  6E37               	movwf	(___fladd@b+3)^0,c
  2350  0027C2  EFEB  F013         	goto	l3777
  2351  0027C6                     l3775:
  2352  0027C6  0E00               	movlw	0
  2353  0027C8  6E34               	movwf	___fladd@b^0,c
  2354  0027CA  0E00               	movlw	0
  2355  0027CC  6E35               	movwf	(___fladd@b+1)^0,c
  2356  0027CE  0E00               	movlw	0
  2357  0027D0  6E36               	movwf	(___fladd@b+2)^0,c
  2358  0027D2  0E00               	movlw	0
  2359  0027D4  6E37               	movwf	(___fladd@b+3)^0,c
  2360  0027D6                     l3777:
  2361  0027D6  503B               	movf	(___fladd@a+3)^0,w,c
  2362  0027D8  0B80               	andlw	128
  2363  0027DA  6E41               	movwf	___fladd@aexp^0,c
  2364  0027DC  5040               	movf	___fladd@signs^0,w,c
  2365  0027DE  1841               	xorwf	___fladd@aexp^0,w,c
  2366  0027E0  B4D8               	btfsc	status,2,c
  2367  0027E2  EFF5  F013         	goto	u2281
  2368  0027E6  EFF7  F013         	goto	u2280
  2369  0027EA                     u2281:
  2370  0027EA  EFF8  F013         	goto	l3783
  2371  0027EE                     u2280:
  2372  0027EE  8C40               	bsf	___fladd@signs^0,6,c
  2373  0027F0                     l3783:
  2374  0027F0  503B               	movf	(___fladd@a+3)^0,w,c
  2375  0027F2  243B               	addwf	(___fladd@a+3)^0,w,c
  2376  0027F4  6E41               	movwf	___fladd@aexp^0,c
  2377  0027F6  AE3A               	btfss	(___fladd@a+2)^0,7,c
  2378  0027F8  EF00  F014         	goto	u2291
  2379  0027FC  EF02  F014         	goto	u2290
  2380  002800                     u2291:
  2381  002800  EF03  F014         	goto	l3789
  2382  002804                     u2290:
  2383  002804  8041               	bsf	___fladd@aexp^0,0,c
  2384  002806                     l3789:
  2385  002806  5041               	movf	___fladd@aexp^0,w,c
  2386  002808  B4D8               	btfsc	status,2,c
  2387  00280A  EF09  F014         	goto	u2301
  2388  00280E  EF0B  F014         	goto	u2300
  2389  002812                     u2301:
  2390  002812  EF20  F014         	goto	l3799
  2391  002816                     u2300:
  2392  002816  2841               	incf	___fladd@aexp^0,w,c
  2393  002818  A4D8               	btfss	status,2,c
  2394  00281A  EF11  F014         	goto	u2311
  2395  00281E  EF13  F014         	goto	u2310
  2396  002822                     u2311:
  2397  002822  EF1B  F014         	goto	l3795
  2398  002826                     u2310:
  2399  002826  0E00               	movlw	0
  2400  002828  6E38               	movwf	___fladd@a^0,c
  2401  00282A  0E00               	movlw	0
  2402  00282C  6E39               	movwf	(___fladd@a+1)^0,c
  2403  00282E  0E00               	movlw	0
  2404  002830  6E3A               	movwf	(___fladd@a+2)^0,c
  2405  002832  0E00               	movlw	0
  2406  002834  6E3B               	movwf	(___fladd@a+3)^0,c
  2407  002836                     l3795:
  2408  002836  8E3A               	bsf	(___fladd@a+2)^0,7,c
  2409  002838  0E00               	movlw	0
  2410  00283A  6E3B               	movwf	(___fladd@a+3)^0,c
  2411  00283C  EF28  F014         	goto	l3801
  2412  002840                     l3799:
  2413  002840  0E00               	movlw	0
  2414  002842  6E38               	movwf	___fladd@a^0,c
  2415  002844  0E00               	movlw	0
  2416  002846  6E39               	movwf	(___fladd@a+1)^0,c
  2417  002848  0E00               	movlw	0
  2418  00284A  6E3A               	movwf	(___fladd@a+2)^0,c
  2419  00284C  0E00               	movlw	0
  2420  00284E  6E3B               	movwf	(___fladd@a+3)^0,c
  2421  002850                     l3801:
  2422  002850  5042               	movf	___fladd@bexp^0,w,c
  2423  002852  5C41               	subwf	___fladd@aexp^0,w,c
  2424  002854  B0D8               	btfsc	status,0,c
  2425  002856  EF2F  F014         	goto	u2321
  2426  00285A  EF31  F014         	goto	u2320
  2427  00285E                     u2321:
  2428  00285E  EF58  F014         	goto	l3837
  2429  002862                     u2320:
  2430  002862  AC40               	btfss	___fladd@signs^0,6,c
  2431  002864  EF36  F014         	goto	u2331
  2432  002868  EF38  F014         	goto	u2330
  2433  00286C                     u2331:
  2434  00286C  EF3A  F014         	goto	l3807
  2435  002870                     u2330:
  2436  002870  0E80               	movlw	128
  2437  002872  1A40               	xorwf	___fladd@signs^0,f,c
  2438  002874                     l3807:
  2439  002874  C042  F043         	movff	___fladd@bexp,___fladd@grs
  2440  002878  C041  F042         	movff	___fladd@aexp,___fladd@bexp
  2441  00287C  C043  F041         	movff	___fladd@grs,___fladd@aexp
  2442  002880  C034  F043         	movff	___fladd@b,___fladd@grs
  2443  002884  C038  F034         	movff	___fladd@a,___fladd@b
  2444  002888  C043  F038         	movff	___fladd@grs,___fladd@a
  2445  00288C  C035  F043         	movff	___fladd@b+1,___fladd@grs
  2446  002890  C039  F035         	movff	___fladd@a+1,___fladd@b+1
  2447  002894  C043  F039         	movff	___fladd@grs,___fladd@a+1
  2448  002898  C036  F043         	movff	___fladd@b+2,___fladd@grs
  2449  00289C  C03A  F036         	movff	___fladd@a+2,___fladd@b+2
  2450  0028A0  C043  F03A         	movff	___fladd@grs,___fladd@a+2
  2451  0028A4  C037  F043         	movff	___fladd@b+3,___fladd@grs
  2452  0028A8  C03B  F037         	movff	___fladd@a+3,___fladd@b+3
  2453  0028AC  C043  F03B         	movff	___fladd@grs,___fladd@a+3
  2454  0028B0                     l3837:
  2455  0028B0  0E00               	movlw	0
  2456  0028B2  6E43               	movwf	___fladd@grs^0,c
  2457  0028B4  5042               	movf	___fladd@bexp^0,w,c
  2458  0028B6  C041  F03C         	movff	___fladd@aexp,??___fladd
  2459  0028BA  6A3D               	clrf	(??___fladd+1)^0,c
  2460  0028BC  5E3C               	subwf	??___fladd^0,f,c
  2461  0028BE  0E00               	movlw	0
  2462  0028C0  5A3D               	subwfb	(??___fladd+1)^0,f,c
  2463  0028C2  BE3D               	btfsc	(??___fladd+1)^0,7,c
  2464  0028C4  EF6D  F014         	goto	u2341
  2465  0028C8  503D               	movf	(??___fladd+1)^0,w,c
  2466  0028CA  E109               	bnz	u2340
  2467  0028CC  0E1A               	movlw	26
  2468  0028CE  5C3C               	subwf	??___fladd^0,w,c
  2469  0028D0  A0D8               	btfss	status,0,c
  2470  0028D2  EF6D  F014         	goto	u2341
  2471  0028D6  EF6F  F014         	goto	u2340
  2472  0028DA                     u2341:
  2473  0028DA  EFA6  F014         	goto	l835
  2474  0028DE                     u2340:
  2475  0028DE  5034               	movf	___fladd@b^0,w,c
  2476  0028E0  1035               	iorwf	(___fladd@b+1)^0,w,c
  2477  0028E2  1036               	iorwf	(___fladd@b+2)^0,w,c
  2478  0028E4  1037               	iorwf	(___fladd@b+3)^0,w,c
  2479  0028E6  A4D8               	btfss	status,2,c
  2480  0028E8  EF78  F014         	goto	u2351
  2481  0028EC  EF7B  F014         	goto	u2350
  2482  0028F0                     u2351:
  2483  0028F0  0E01               	movlw	1
  2484  0028F2  EF7C  F014         	goto	u2360
  2485  0028F6                     u2350:
  2486  0028F6  0E00               	movlw	0
  2487  0028F8                     u2360:
  2488  0028F8  6E43               	movwf	___fladd@grs^0,c
  2489  0028FA  0E00               	movlw	0
  2490  0028FC  6E34               	movwf	___fladd@b^0,c
  2491  0028FE  0E00               	movlw	0
  2492  002900  6E35               	movwf	(___fladd@b+1)^0,c
  2493  002902  0E00               	movlw	0
  2494  002904  6E36               	movwf	(___fladd@b+2)^0,c
  2495  002906  0E00               	movlw	0
  2496  002908  6E37               	movwf	(___fladd@b+3)^0,c
  2497  00290A  C041  F042         	movff	___fladd@aexp,___fladd@bexp
  2498  00290E  EFAF  F014         	goto	l834
  2499  002912                     l836:
  2500  002912  A043               	btfss	___fladd@grs^0,0,c
  2501  002914  EF8E  F014         	goto	u2371
  2502  002918  EF90  F014         	goto	u2370
  2503  00291C                     u2371:
  2504  00291C  EF96  F014         	goto	l3849
  2505  002920                     u2370:
  2506  002920  90D8               	bcf	status,0,c
  2507  002922  3043               	rrcf	___fladd@grs^0,w,c
  2508  002924  0901               	iorlw	1
  2509  002926  6E43               	movwf	___fladd@grs^0,c
  2510  002928  EF98  F014         	goto	l3851
  2511  00292C                     l3849:
  2512  00292C  90D8               	bcf	status,0,c
  2513  00292E  3243               	rrcf	___fladd@grs^0,f,c
  2514  002930                     l3851:
  2515  002930  A034               	btfss	___fladd@b^0,0,c
  2516  002932  EF9D  F014         	goto	u2381
  2517  002936  EF9F  F014         	goto	u2380
  2518  00293A                     u2381:
  2519  00293A  EFA0  F014         	goto	l3855
  2520  00293E                     u2380:
  2521  00293E  8E43               	bsf	___fladd@grs^0,7,c
  2522  002940                     l3855:
  2523  002940  3437               	rlcf	(___fladd@b+3)^0,w,c
  2524  002942  3237               	rrcf	(___fladd@b+3)^0,f,c
  2525  002944  3236               	rrcf	(___fladd@b+2)^0,f,c
  2526  002946  3235               	rrcf	(___fladd@b+1)^0,f,c
  2527  002948  3234               	rrcf	___fladd@b^0,f,c
  2528  00294A  2A42               	incf	___fladd@bexp^0,f,c
  2529  00294C                     l835:
  2530  00294C  5041               	movf	___fladd@aexp^0,w,c
  2531  00294E  5C42               	subwf	___fladd@bexp^0,w,c
  2532  002950  A0D8               	btfss	status,0,c
  2533  002952  EFAD  F014         	goto	u2391
  2534  002956  EFAF  F014         	goto	u2390
  2535  00295A                     u2391:
  2536  00295A  EF89  F014         	goto	l836
  2537  00295E                     u2390:
  2538  00295E                     l834:
  2539  00295E  BC40               	btfsc	___fladd@signs^0,6,c
  2540  002960  EFB4  F014         	goto	u2401
  2541  002964  EFB6  F014         	goto	u2400
  2542  002968                     u2401:
  2543  002968  EFF6  F014         	goto	l3883
  2544  00296C                     u2400:
  2545  00296C  5042               	movf	___fladd@bexp^0,w,c
  2546  00296E  A4D8               	btfss	status,2,c
  2547  002970  EFBC  F014         	goto	u2411
  2548  002974  EFBE  F014         	goto	u2410
  2549  002978                     u2411:
  2550  002978  EFC8  F014         	goto	l3865
  2551  00297C                     u2410:
  2552  00297C  0E00               	movlw	0
  2553  00297E  6E34               	movwf	?___fladd^0,c
  2554  002980  0E00               	movlw	0
  2555  002982  6E35               	movwf	(?___fladd+1)^0,c
  2556  002984  0E00               	movlw	0
  2557  002986  6E36               	movwf	(?___fladd+2)^0,c
  2558  002988  0E00               	movlw	0
  2559  00298A  6E37               	movwf	(?___fladd+3)^0,c
  2560  00298C  EF17  F016         	goto	l843
  2561  002990                     l3865:
  2562  002990  5038               	movf	___fladd@a^0,w,c
  2563  002992  2634               	addwf	___fladd@b^0,f,c
  2564  002994  5039               	movf	(___fladd@a+1)^0,w,c
  2565  002996  2235               	addwfc	(___fladd@b+1)^0,f,c
  2566  002998  503A               	movf	(___fladd@a+2)^0,w,c
  2567  00299A  2236               	addwfc	(___fladd@b+2)^0,f,c
  2568  00299C  503B               	movf	(___fladd@a+3)^0,w,c
  2569  00299E  2237               	addwfc	(___fladd@b+3)^0,f,c
  2570  0029A0  A037               	btfss	(___fladd@b+3)^0,0,c
  2571  0029A2  EFD5  F014         	goto	u2421
  2572  0029A6  EFD7  F014         	goto	u2420
  2573  0029AA                     u2421:
  2574  0029AA  EF83  F015         	goto	l3919
  2575  0029AE                     u2420:
  2576  0029AE  A043               	btfss	___fladd@grs^0,0,c
  2577  0029B0  EFDC  F014         	goto	u2431
  2578  0029B4  EFDE  F014         	goto	u2430
  2579  0029B8                     u2431:
  2580  0029B8  EFE4  F014         	goto	l3873
  2581  0029BC                     u2430:
  2582  0029BC  90D8               	bcf	status,0,c
  2583  0029BE  3043               	rrcf	___fladd@grs^0,w,c
  2584  0029C0  0901               	iorlw	1
  2585  0029C2  6E43               	movwf	___fladd@grs^0,c
  2586  0029C4  EFE6  F014         	goto	l3875
  2587  0029C8                     l3873:
  2588  0029C8  90D8               	bcf	status,0,c
  2589  0029CA  3243               	rrcf	___fladd@grs^0,f,c
  2590  0029CC                     l3875:
  2591  0029CC  A034               	btfss	___fladd@b^0,0,c
  2592  0029CE  EFEB  F014         	goto	u2441
  2593  0029D2  EFED  F014         	goto	u2440
  2594  0029D6                     u2441:
  2595  0029D6  EFEE  F014         	goto	l3879
  2596  0029DA                     u2440:
  2597  0029DA  8E43               	bsf	___fladd@grs^0,7,c
  2598  0029DC                     l3879:
  2599  0029DC  3437               	rlcf	(___fladd@b+3)^0,w,c
  2600  0029DE  3237               	rrcf	(___fladd@b+3)^0,f,c
  2601  0029E0  3236               	rrcf	(___fladd@b+2)^0,f,c
  2602  0029E2  3235               	rrcf	(___fladd@b+1)^0,f,c
  2603  0029E4  3234               	rrcf	___fladd@b^0,f,c
  2604  0029E6  2A42               	incf	___fladd@bexp^0,f,c
  2605  0029E8  EF83  F015         	goto	l3919
  2606  0029EC                     l3883:
  2607  0029EC  5038               	movf	___fladd@a^0,w,c
  2608  0029EE  5C34               	subwf	___fladd@b^0,w,c
  2609  0029F0  5039               	movf	(___fladd@a+1)^0,w,c
  2610  0029F2  5835               	subwfb	(___fladd@b+1)^0,w,c
  2611  0029F4  503A               	movf	(___fladd@a+2)^0,w,c
  2612  0029F6  5836               	subwfb	(___fladd@b+2)^0,w,c
  2613  0029F8  5037               	movf	(___fladd@b+3)^0,w,c
  2614  0029FA  0A80               	xorlw	128
  2615  0029FC  6E3C               	movwf	??___fladd^0,c
  2616  0029FE  503B               	movf	(___fladd@a+3)^0,w,c
  2617  002A00  0A80               	xorlw	128
  2618  002A02  583C               	subwfb	??___fladd^0,w,c
  2619  002A04  B0D8               	btfsc	status,0,c
  2620  002A06  EF07  F015         	goto	u2451
  2621  002A0A  EF09  F015         	goto	u2450
  2622  002A0E                     u2451:
  2623  002A0E  EF34  F015         	goto	l3893
  2624  002A12                     u2450:
  2625  002A12  5034               	movf	___fladd@b^0,w,c
  2626  002A14  5C38               	subwf	___fladd@a^0,w,c
  2627  002A16  6E3C               	movwf	??___fladd^0,c
  2628  002A18  5035               	movf	(___fladd@b+1)^0,w,c
  2629  002A1A  5839               	subwfb	(___fladd@a+1)^0,w,c
  2630  002A1C  6E3D               	movwf	(??___fladd+1)^0,c
  2631  002A1E  5036               	movf	(___fladd@b+2)^0,w,c
  2632  002A20  583A               	subwfb	(___fladd@a+2)^0,w,c
  2633  002A22  6E3E               	movwf	(??___fladd+2)^0,c
  2634  002A24  5037               	movf	(___fladd@b+3)^0,w,c
  2635  002A26  583B               	subwfb	(___fladd@a+3)^0,w,c
  2636  002A28  6E3F               	movwf	(??___fladd+3)^0,c
  2637  002A2A  0EFF               	movlw	255
  2638  002A2C  243C               	addwf	??___fladd^0,w,c
  2639  002A2E  6E34               	movwf	___fladd@b^0,c
  2640  002A30  0EFF               	movlw	255
  2641  002A32  203D               	addwfc	(??___fladd+1)^0,w,c
  2642  002A34  6E35               	movwf	(___fladd@b+1)^0,c
  2643  002A36  0EFF               	movlw	255
  2644  002A38  203E               	addwfc	(??___fladd+2)^0,w,c
  2645  002A3A  6E36               	movwf	(___fladd@b+2)^0,c
  2646  002A3C  0EFF               	movlw	255
  2647  002A3E  203F               	addwfc	(??___fladd+3)^0,w,c
  2648  002A40  6E37               	movwf	(___fladd@b+3)^0,c
  2649  002A42  0E80               	movlw	128
  2650  002A44  1A40               	xorwf	___fladd@signs^0,f,c
  2651  002A46  6C43               	negf	___fladd@grs^0,c
  2652  002A48  5043               	movf	___fladd@grs^0,w,c
  2653  002A4A  A4D8               	btfss	status,2,c
  2654  002A4C  EF2A  F015         	goto	u2461
  2655  002A50  EF2C  F015         	goto	u2460
  2656  002A54                     u2461:
  2657  002A54  EF3C  F015         	goto	l851
  2658  002A58                     u2460:
  2659  002A58  0E01               	movlw	1
  2660  002A5A  2634               	addwf	___fladd@b^0,f,c
  2661  002A5C  0E00               	movlw	0
  2662  002A5E  2235               	addwfc	(___fladd@b+1)^0,f,c
  2663  002A60  2236               	addwfc	(___fladd@b+2)^0,f,c
  2664  002A62  2237               	addwfc	(___fladd@b+3)^0,f,c
  2665  002A64  EF3C  F015         	goto	l851
  2666  002A68                     l3893:
  2667  002A68  5038               	movf	___fladd@a^0,w,c
  2668  002A6A  5E34               	subwf	___fladd@b^0,f,c
  2669  002A6C  5039               	movf	(___fladd@a+1)^0,w,c
  2670  002A6E  5A35               	subwfb	(___fladd@b+1)^0,f,c
  2671  002A70  503A               	movf	(___fladd@a+2)^0,w,c
  2672  002A72  5A36               	subwfb	(___fladd@b+2)^0,f,c
  2673  002A74  503B               	movf	(___fladd@a+3)^0,w,c
  2674  002A76  5A37               	subwfb	(___fladd@b+3)^0,f,c
  2675  002A78                     l851:
  2676  002A78  5034               	movf	___fladd@b^0,w,c
  2677  002A7A  1035               	iorwf	(___fladd@b+1)^0,w,c
  2678  002A7C  1036               	iorwf	(___fladd@b+2)^0,w,c
  2679  002A7E  1037               	iorwf	(___fladd@b+3)^0,w,c
  2680  002A80  A4D8               	btfss	status,2,c
  2681  002A82  EF45  F015         	goto	u2471
  2682  002A86  EF47  F015         	goto	u2470
  2683  002A8A                     u2471:
  2684  002A8A  EF7C  F015         	goto	l3917
  2685  002A8E                     u2470:
  2686  002A8E  5043               	movf	___fladd@grs^0,w,c
  2687  002A90  A4D8               	btfss	status,2,c
  2688  002A92  EF4D  F015         	goto	u2481
  2689  002A96  EF4F  F015         	goto	u2480
  2690  002A9A                     u2481:
  2691  002A9A  EF7C  F015         	goto	l3917
  2692  002A9E                     u2480:
  2693  002A9E  0E00               	movlw	0
  2694  002AA0  6E34               	movwf	?___fladd^0,c
  2695  002AA2  0E00               	movlw	0
  2696  002AA4  6E35               	movwf	(?___fladd+1)^0,c
  2697  002AA6  0E00               	movlw	0
  2698  002AA8  6E36               	movwf	(?___fladd+2)^0,c
  2699  002AAA  0E00               	movlw	0
  2700  002AAC  6E37               	movwf	(?___fladd+3)^0,c
  2701  002AAE  EF17  F016         	goto	l843
  2702  002AB2                     l3901:
  2703  002AB2  90D8               	bcf	status,0,c
  2704  002AB4  3634               	rlcf	___fladd@b^0,f,c
  2705  002AB6  3635               	rlcf	(___fladd@b+1)^0,f,c
  2706  002AB8  3636               	rlcf	(___fladd@b+2)^0,f,c
  2707  002ABA  3637               	rlcf	(___fladd@b+3)^0,f,c
  2708  002ABC  AE43               	btfss	___fladd@grs^0,7,c
  2709  002ABE  EF63  F015         	goto	u2491
  2710  002AC2  EF65  F015         	goto	u2490
  2711  002AC6                     u2491:
  2712  002AC6  EF66  F015         	goto	l3907
  2713  002ACA                     u2490:
  2714  002ACA  8034               	bsf	___fladd@b^0,0,c
  2715  002ACC                     l3907:
  2716  002ACC  A043               	btfss	___fladd@grs^0,0,c
  2717  002ACE  EF6B  F015         	goto	u2501
  2718  002AD2  EF6D  F015         	goto	u2500
  2719  002AD6                     u2501:
  2720  002AD6  EF71  F015         	goto	l3911
  2721  002ADA                     u2500:
  2722  002ADA  80D8               	bsf	status,0,c
  2723  002ADC  3643               	rlcf	___fladd@grs^0,f,c
  2724  002ADE  EF73  F015         	goto	l3913
  2725  002AE2                     l3911:
  2726  002AE2  90D8               	bcf	status,0,c
  2727  002AE4  3643               	rlcf	___fladd@grs^0,f,c
  2728  002AE6                     l3913:
  2729  002AE6  5042               	movf	___fladd@bexp^0,w,c
  2730  002AE8  B4D8               	btfsc	status,2,c
  2731  002AEA  EF79  F015         	goto	u2511
  2732  002AEE  EF7B  F015         	goto	u2510
  2733  002AF2                     u2511:
  2734  002AF2  EF7C  F015         	goto	l3917
  2735  002AF6                     u2510:
  2736  002AF6  0642               	decf	___fladd@bexp^0,f,c
  2737  002AF8                     l3917:
  2738  002AF8  AE36               	btfss	(___fladd@b+2)^0,7,c
  2739  002AFA  EF81  F015         	goto	u2521
  2740  002AFE  EF83  F015         	goto	u2520
  2741  002B02                     u2521:
  2742  002B02  EF59  F015         	goto	l3901
  2743  002B06                     u2520:
  2744  002B06                     l3919:
  2745  002B06  0E00               	movlw	0
  2746  002B08  6E41               	movwf	___fladd@aexp^0,c
  2747  002B0A  AE43               	btfss	___fladd@grs^0,7,c
  2748  002B0C  EF8A  F015         	goto	u2531
  2749  002B10  EF8C  F015         	goto	u2530
  2750  002B14                     u2531:
  2751  002B14  EFA4  F015         	goto	l860
  2752  002B18                     u2530:
  2753  002B18  C043  F03C         	movff	___fladd@grs,??___fladd
  2754  002B1C  0E7F               	movlw	127
  2755  002B1E  163C               	andwf	??___fladd^0,f,c
  2756  002B20  B4D8               	btfsc	status,2,c
  2757  002B22  EF95  F015         	goto	u2541
  2758  002B26  EF97  F015         	goto	u2540
  2759  002B2A                     u2541:
  2760  002B2A  EF9B  F015         	goto	l861
  2761  002B2E                     u2540:
  2762  002B2E                     l3925:
  2763  002B2E  0E01               	movlw	1
  2764  002B30  6E41               	movwf	___fladd@aexp^0,c
  2765  002B32  EFA4  F015         	goto	l860
  2766  002B36                     l861:
  2767  002B36  A034               	btfss	___fladd@b^0,0,c
  2768  002B38  EFA0  F015         	goto	u2551
  2769  002B3C  EFA2  F015         	goto	u2550
  2770  002B40                     u2551:
  2771  002B40  EFA4  F015         	goto	l860
  2772  002B44                     u2550:
  2773  002B44  EF97  F015         	goto	l3925
  2774  002B48                     l860:
  2775  002B48  5041               	movf	___fladd@aexp^0,w,c
  2776  002B4A  B4D8               	btfsc	status,2,c
  2777  002B4C  EFAA  F015         	goto	u2561
  2778  002B50  EFAC  F015         	goto	u2560
  2779  002B54                     u2561:
  2780  002B54  EFD7  F015         	goto	l3937
  2781  002B58                     u2560:
  2782  002B58  0E01               	movlw	1
  2783  002B5A  2634               	addwf	___fladd@b^0,f,c
  2784  002B5C  0E00               	movlw	0
  2785  002B5E  2235               	addwfc	(___fladd@b+1)^0,f,c
  2786  002B60  2236               	addwfc	(___fladd@b+2)^0,f,c
  2787  002B62  2237               	addwfc	(___fladd@b+3)^0,f,c
  2788  002B64  A037               	btfss	(___fladd@b+3)^0,0,c
  2789  002B66  EFB7  F015         	goto	u2571
  2790  002B6A  EFB9  F015         	goto	u2570
  2791  002B6E                     u2571:
  2792  002B6E  EFD7  F015         	goto	l3937
  2793  002B72                     u2570:
  2794  002B72  C034  F03C         	movff	___fladd@b,??___fladd
  2795  002B76  C035  F03D         	movff	___fladd@b+1,??___fladd+1
  2796  002B7A  C036  F03E         	movff	___fladd@b+2,??___fladd+2
  2797  002B7E  C037  F03F         	movff	___fladd@b+3,??___fladd+3
  2798  002B82  343F               	rlcf	(??___fladd+3)^0,w,c
  2799  002B84  323F               	rrcf	(??___fladd+3)^0,f,c
  2800  002B86  323E               	rrcf	(??___fladd+2)^0,f,c
  2801  002B88  323D               	rrcf	(??___fladd+1)^0,f,c
  2802  002B8A  323C               	rrcf	??___fladd^0,f,c
  2803  002B8C  C03C  F034         	movff	??___fladd,___fladd@b
  2804  002B90  C03D  F035         	movff	??___fladd+1,___fladd@b+1
  2805  002B94  C03E  F036         	movff	??___fladd+2,___fladd@b+2
  2806  002B98  C03F  F037         	movff	??___fladd+3,___fladd@b+3
  2807  002B9C  2842               	incf	___fladd@bexp^0,w,c
  2808  002B9E  B4D8               	btfsc	status,2,c
  2809  002BA0  EFD4  F015         	goto	u2581
  2810  002BA4  EFD6  F015         	goto	u2580
  2811  002BA8                     u2581:
  2812  002BA8  EFD7  F015         	goto	l3937
  2813  002BAC                     u2580:
  2814  002BAC  2A42               	incf	___fladd@bexp^0,f,c
  2815  002BAE                     l3937:
  2816  002BAE  2842               	incf	___fladd@bexp^0,w,c
  2817  002BB0  B4D8               	btfsc	status,2,c
  2818  002BB2  EFDD  F015         	goto	u2591
  2819  002BB6  EFDF  F015         	goto	u2590
  2820  002BBA                     u2591:
  2821  002BBA  EFE7  F015         	goto	l3941
  2822  002BBE                     u2590:
  2823  002BBE  5042               	movf	___fladd@bexp^0,w,c
  2824  002BC0  A4D8               	btfss	status,2,c
  2825  002BC2  EFE5  F015         	goto	u2601
  2826  002BC6  EFE7  F015         	goto	u2600
  2827  002BCA                     u2601:
  2828  002BCA  EFF9  F015         	goto	l3945
  2829  002BCE                     u2600:
  2830  002BCE                     l3941:
  2831  002BCE  0E00               	movlw	0
  2832  002BD0  6E34               	movwf	___fladd@b^0,c
  2833  002BD2  0E00               	movlw	0
  2834  002BD4  6E35               	movwf	(___fladd@b+1)^0,c
  2835  002BD6  0E00               	movlw	0
  2836  002BD8  6E36               	movwf	(___fladd@b+2)^0,c
  2837  002BDA  0E00               	movlw	0
  2838  002BDC  6E37               	movwf	(___fladd@b+3)^0,c
  2839  002BDE  5042               	movf	___fladd@bexp^0,w,c
  2840  002BE0  A4D8               	btfss	status,2,c
  2841  002BE2  EFF5  F015         	goto	u2611
  2842  002BE6  EFF7  F015         	goto	u2610
  2843  002BEA                     u2611:
  2844  002BEA  EFF9  F015         	goto	l3945
  2845  002BEE                     u2610:
  2846  002BEE  0E00               	movlw	0
  2847  002BF0  6E40               	movwf	___fladd@signs^0,c
  2848  002BF2                     l3945:
  2849  002BF2  A042               	btfss	___fladd@bexp^0,0,c
  2850  002BF4  EFFE  F015         	goto	u2621
  2851  002BF8  EF00  F016         	goto	u2620
  2852  002BFC                     u2621:
  2853  002BFC  EF03  F016         	goto	l3949
  2854  002C00                     u2620:
  2855  002C00  8E36               	bsf	(___fladd@b+2)^0,7,c
  2856  002C02  EF04  F016         	goto	l3951
  2857  002C06                     l3949:
  2858  002C06  9E36               	bcf	(___fladd@b+2)^0,7,c
  2859  002C08                     l3951:
  2860  002C08  90D8               	bcf	status,0,c
  2861  002C0A  3042               	rrcf	___fladd@bexp^0,w,c
  2862  002C0C  6E37               	movwf	(___fladd@b+3)^0,c
  2863  002C0E  AE40               	btfss	___fladd@signs^0,7,c
  2864  002C10  EF0C  F016         	goto	u2631
  2865  002C14  EF0E  F016         	goto	u2630
  2866  002C18                     u2631:
  2867  002C18  EF0F  F016         	goto	l3957
  2868  002C1C                     u2630:
  2869  002C1C  8E37               	bsf	(___fladd@b+3)^0,7,c
  2870  002C1E                     l3957:
  2871  002C1E  C034  F034         	movff	___fladd@b,?___fladd
  2872  002C22  C035  F035         	movff	___fladd@b+1,?___fladd+1
  2873  002C26  C036  F036         	movff	___fladd@b+2,?___fladd+2
  2874  002C2A  C037  F037         	movff	___fladd@b+3,?___fladd+3
  2875  002C2E                     l843:
  2876  002C2E  0012               	return		;funcret
  2877  002C30                     __end_of___fladd:
  2878                           	callstack 0
  2879                           
  2880 ;; *************** function _initialize_pins *****************
  2881 ;; Defined at:
  2882 ;;		line 65 in file "main.c"
  2883 ;; Parameters:    Size  Location     Type
  2884 ;;		None
  2885 ;; Auto vars:     Size  Location     Type
  2886 ;;		None
  2887 ;; Return value:  Size  Location     Type
  2888 ;;                  1    wreg      void 
  2889 ;; Registers used:
  2890 ;;		wreg, status,2
  2891 ;; Tracked objects:
  2892 ;;		On entry : 0/0
  2893 ;;		On exit  : 0/0
  2894 ;;		Unchanged: 0/0
  2895 ;; Data sizes:     COMRAM   BANK0   BANK1   BANK2   BANK3   BANK4   BANK5   BANK6   BANK7   BANK8   BANK9  BANK10  BANK1
      +1  BANK12  BANK13  BANK14  BANK15  BANK16  BANK17  BANK18  BANK19  BANK20  BANK21  BANK22  BANK23  BANK24  BANK25  BANK2
      +6  BANK27  BANK28  BANK29  BANK30  BANK31
  2896 ;;      Params:         0       0       0       0       0       0       0       0       0       0       0       0       
      +0       0       0       0       0       0       0       0       0       0       0       0       0       0       0       
      +0       0       0       0       0       0
  2897 ;;      Locals:         0       0       0       0       0       0       0       0       0       0       0       0       
      +0       0       0       0       0       0       0       0       0       0       0       0       0       0       0       
      +0       0       0       0       0       0
  2898 ;;      Temps:          0       0       0       0       0       0       0       0       0       0       0       0       
      +0       0       0       0       0       0       0       0       0       0       0       0       0       0       0       
      +0       0       0       0       0       0
  2899 ;;      Totals:         0       0       0       0       0       0       0       0       0       0       0       0       
      +0       0       0       0       0       0       0       0       0       0       0       0       0       0       0       
      +0       0       0       0       0       0
  2900 ;;Total ram usage:        0 bytes
  2901 ;; Hardware stack levels used: 1
  2902 ;; Hardware stack levels required when called: 2
  2903 ;; This function calls:
  2904 ;;		Nothing
  2905 ;; This function is called by:
  2906 ;;		_main
  2907 ;; This function uses a non-reentrant model
  2908 ;;
  2909                           
  2910                           	psect	text7
  2911  003B66                     __ptext7:
  2912                           	callstack 0
  2913  003B66                     _initialize_pins:
  2914                           	callstack 28
  2915  003B66                     
  2916                           ;main.c: 66:     ANSELA = 0x00;
  2917  003B66  0E00               	movlw	0
  2918  003B68  013A               	movlb	58	; () banked
  2919  003B6A  6F40               	movwf	64,b	;volatile
  2920  003B6C                     
  2921                           ; BSR set to: 58
  2922                           ;main.c: 67:     TRISAbits.TRISA0 = 1;
  2923  003B6C  80C2               	bsf	194,0,c	;volatile
  2924  003B6E                     
  2925                           ; BSR set to: 58
  2926                           ;main.c: 68:     TRISAbits.TRISA1 = 0;
  2927  003B6E  92C2               	bcf	194,1,c	;volatile
  2928  003B70                     
  2929                           ; BSR set to: 58
  2930                           ;main.c: 69:     TRISCbits.TRISC4 = 0;
  2931  003B70  98C4               	bcf	196,4,c	;volatile
  2932  003B72                     
  2933                           ; BSR set to: 58
  2934                           ;main.c: 70:     PORTAbits.RA1 = 0;
  2935  003B72  92CA               	bcf	202,1,c	;volatile
  2936  003B74                     
  2937                           ; BSR set to: 58
  2938  003B74  0012               	return		;funcret
  2939  003B76                     __end_of_initialize_pins:
  2940                           	callstack 0
  2941                           
  2942 ;; *************** function _initialize_interrupts *****************
  2943 ;; Defined at:
  2944 ;;		line 73 in file "main.c"
  2945 ;; Parameters:    Size  Location     Type
  2946 ;;		None
  2947 ;; Auto vars:     Size  Location     Type
  2948 ;;		None
  2949 ;; Return value:  Size  Location     Type
  2950 ;;                  1    wreg      void 
  2951 ;; Registers used:
  2952 ;;		None
  2953 ;; Tracked objects:
  2954 ;;		On entry : 0/0
  2955 ;;		On exit  : 0/0
  2956 ;;		Unchanged: 0/0
  2957 ;; Data sizes:     COMRAM   BANK0   BANK1   BANK2   BANK3   BANK4   BANK5   BANK6   BANK7   BANK8   BANK9  BANK10  BANK1
      +1  BANK12  BANK13  BANK14  BANK15  BANK16  BANK17  BANK18  BANK19  BANK20  BANK21  BANK22  BANK23  BANK24  BANK25  BANK2
      +6  BANK27  BANK28  BANK29  BANK30  BANK31
  2958 ;;      Params:         0       0       0       0       0       0       0       0       0       0       0       0       
      +0       0       0       0       0       0       0       0       0       0       0       0       0       0       0       
      +0       0       0       0       0       0
  2959 ;;      Locals:         0       0       0       0       0       0       0       0       0       0       0       0       
      +0       0       0       0       0       0       0       0       0       0       0       0       0       0       0       
      +0       0       0       0       0       0
  2960 ;;      Temps:          0       0       0       0       0       0       0       0       0       0       0       0       
      +0       0       0       0       0       0       0       0       0       0       0       0       0       0       0       
      +0       0       0       0       0       0
  2961 ;;      Totals:         0       0       0       0       0       0       0       0       0       0       0       0       
      +0       0       0       0       0       0       0       0       0       0       0       0       0       0       0       
      +0       0       0       0       0       0
  2962 ;;Total ram usage:        0 bytes
  2963 ;; Hardware stack levels used: 1
  2964 ;; Hardware stack levels required when called: 2
  2965 ;; This function calls:
  2966 ;;		Nothing
  2967 ;; This function is called by:
  2968 ;;		_main
  2969 ;; This function uses a non-reentrant model
  2970 ;;
  2971                           
  2972                           	psect	text8
  2973  003B92                     __ptext8:
  2974                           	callstack 0
  2975  003B92                     _initialize_interrupts:
  2976                           	callstack 28
  2977  003B92                     
  2978                           ;main.c: 74:     INTCON0bits.IPEN = 0;
  2979  003B92  9AD2               	bcf	210,5,c	;volatile
  2980                           
  2981                           ;main.c: 75:     INTCON0bits.GIE = 1;
  2982  003B94  8ED2               	bsf	210,7,c	;volatile
  2983                           
  2984                           ;main.c: 76:     PIE4bits.TMR1IE = 1;
  2985  003B96  0139               	movlb	57	; () banked
  2986  003B98  8194               	bsf	148,0,b	;volatile
  2987                           
  2988                           ;main.c: 77:     TMR1IF = 0;
  2989  003B9A  91A4               	bcf	164,0,b	;volatile
  2990  003B9C                     
  2991                           ; BSR set to: 57
  2992  003B9C  0012               	return		;funcret
  2993  003B9E                     __end_of_initialize_interrupts:
  2994                           	callstack 0
  2995                           
  2996 ;; *************** function _end_foxhunt *****************
  2997 ;; Defined at:
  2998 ;;		line 106 in file "main.c"
  2999 ;; Parameters:    Size  Location     Type
  3000 ;;		None
  3001 ;; Auto vars:     Size  Location     Type
  3002 ;;		None
  3003 ;; Return value:  Size  Location     Type
  3004 ;;                  1    wreg      void 
  3005 ;; Registers used:
  3006 ;;		wreg, status,2, status,0, tblptrl, tblptrh, tblptru, cstack
  3007 ;; Tracked objects:
  3008 ;;		On entry : 0/0
  3009 ;;		On exit  : 0/0
  3010 ;;		Unchanged: 0/0
  3011 ;; Data sizes:     COMRAM   BANK0   BANK1   BANK2   BANK3   BANK4   BANK5   BANK6   BANK7   BANK8   BANK9  BANK10  BANK1
      +1  BANK12  BANK13  BANK14  BANK15  BANK16  BANK17  BANK18  BANK19  BANK20  BANK21  BANK22  BANK23  BANK24  BANK25  BANK2
      +6  BANK27  BANK28  BANK29  BANK30  BANK31
  3012 ;;      Params:         0       0       0       0       0       0       0       0       0       0       0       0       
      +0       0       0       0       0       0       0       0       0       0       0       0       0       0       0       
      +0       0       0       0       0       0
  3013 ;;      Locals:         0       0       0       0       0       0       0       0       0       0       0       0       
      +0       0       0       0       0       0       0       0       0       0       0       0       0       0       0       
      +0       0       0       0       0       0
  3014 ;;      Temps:          1       0       0       0       0       0       0       0       0       0       0       0       
      +0       0       0       0       0       0       0       0       0       0       0       0       0       0       0       
      +0       0       0       0       0       0
  3015 ;;      Totals:         1       0       0       0       0       0       0       0       0       0       0       0       
      +0       0       0       0       0       0       0       0       0       0       0       0       0       0       0       
      +0       0       0       0       0       0
  3016 ;;Total ram usage:        1 bytes
  3017 ;; Hardware stack levels used: 1
  3018 ;; Hardware stack levels required when called: 7
  3019 ;; This function calls:
  3020 ;;		_cw_message
  3021 ;;		_deinitialize_cw
  3022 ;;		_deinitialize_tone_generator
  3023 ;;		_initialize_cw
  3024 ;; This function is called by:
  3025 ;;		_main
  3026 ;; This function uses a non-reentrant model
  3027 ;;
  3028                           
  3029                           	psect	text9
  3030  003904                     __ptext9:
  3031                           	callstack 0
  3032  003904                     _end_foxhunt:
  3033                           	callstack 23
  3034  003904                     
  3035                           ;main.c: 107:     if (PORTAbits.RA0) {
  3036  003904  A0CA               	btfss	202,0,c	;volatile
  3037  003906  EF87  F01C         	goto	u2181
  3038  00390A  EF89  F01C         	goto	u2180
  3039  00390E                     u2181:
  3040  00390E  EFC1  F01C         	goto	l115
  3041  003912                     u2180:
  3042  003912                     l112:
  3043  003912  B0CA               	btfsc	202,0,c	;volatile
  3044  003914  EF8E  F01C         	goto	u2191
  3045  003918  EF90  F01C         	goto	u2190
  3046  00391C                     u2191:
  3047  00391C  EF89  F01C         	goto	l112
  3048  003920                     u2190:
  3049  003920                     
  3050                           ;main.c: 109:         PORTAbits.RA1 = 1;
  3051  003920  82CA               	bsf	202,1,c	;volatile
  3052  003922                     
  3053                           ;main.c: 110:         _delay((unsigned long)((500)*(31000UL/4000.0)));
  3054  003922  0E06               	movlw	6
  3055  003924  6E0F               	movwf	??_end_foxhunt^0,c
  3056  003926  0E07               	movlw	7
  3057  003928                     u3287:
  3058  003928  2EE8               	decfsz	wreg,f,c
  3059  00392A  D7FE               	bra	u3287
  3060  00392C  2E0F               	decfsz	??_end_foxhunt^0,f,c
  3061  00392E  D7FC               	bra	u3287
  3062  003930                     
  3063                           ;main.c: 111:         initialize_cw(60);
  3064  003930  0E00               	movlw	0
  3065  003932  6E04               	movwf	(initialize_cw@speed+1)^0,c
  3066  003934  0E3C               	movlw	60
  3067  003936  6E03               	movwf	initialize_cw@speed^0,c
  3068  003938  EC24  F01D         	call	_initialize_cw	;wreg free
  3069  00393C                     
  3070                           ;main.c: 112:         cw_message("OK ", 2);
  3071  00393C  0E11               	movlw	low STR_3
  3072  00393E  6E07               	movwf	cw_message@message^0,c
  3073  003940  0E20               	movlw	high STR_3
  3074  003942  6E08               	movwf	(cw_message@message+1)^0,c
  3075  003944  0E00               	movlw	0
  3076  003946  6E0A               	movwf	(cw_message@message_size+1)^0,c
  3077  003948  0E02               	movlw	2
  3078  00394A  6E09               	movwf	cw_message@message_size^0,c
  3079  00394C  ECFA  F01C         	call	_cw_message	;wreg free
  3080  003950                     
  3081                           ;main.c: 113:         cw_message("N0MCW", sizeof("N0MCW"));
  3082  003950  0E0B               	movlw	low STR_2
  3083  003952  6E07               	movwf	cw_message@message^0,c
  3084  003954  0E20               	movlw	high STR_2
  3085  003956  6E08               	movwf	(cw_message@message+1)^0,c
  3086  003958  0E00               	movlw	0
  3087  00395A  6E0A               	movwf	(cw_message@message_size+1)^0,c
  3088  00395C  0E06               	movlw	6
  3089  00395E  6E09               	movwf	cw_message@message_size^0,c
  3090  003960  ECFA  F01C         	call	_cw_message	;wreg free
  3091  003964                     
  3092                           ;main.c: 114:         deinitialize_cw();
  3093  003964  ECCF  F01D         	call	_deinitialize_cw	;wreg free
  3094  003968                     
  3095                           ;main.c: 115:         deinitialize_tone_generator();
  3096  003968  ECDB  F01D         	call	_deinitialize_tone_generator	;wreg free
  3097  00396C                     
  3098                           ;main.c: 116:         _delay((unsigned long)((500)*(31000UL/4000.0)));
  3099  00396C  0E06               	movlw	6
  3100  00396E  6E0F               	movwf	??_end_foxhunt^0,c
  3101  003970  0E07               	movlw	7
  3102  003972                     u3297:
  3103  003972  2EE8               	decfsz	wreg,f,c
  3104  003974  D7FE               	bra	u3297
  3105  003976  2E0F               	decfsz	??_end_foxhunt^0,f,c
  3106  003978  D7FC               	bra	u3297
  3107  00397A                     
  3108                           ;main.c: 117:         PORTAbits.RA1 = 0;
  3109  00397A  92CA               	bcf	202,1,c	;volatile
  3110  00397C                     
  3111                           ;main.c: 118:         fox_hunt = 0;
  3112  00397C  0E00               	movlw	0
  3113  00397E  0100               	movlb	0	; () banked
  3114  003980  6F6A               	movwf	_fox_hunt& (0+255),b
  3115  003982                     l115:
  3116  003982  0012               	return		;funcret
  3117  003984                     __end_of_end_foxhunt:
  3118                           	callstack 0
  3119                           
  3120 ;; *************** function _deinitialize_tone_generator *****************
  3121 ;; Defined at:
  3122 ;;		line 34 in file "tone_generator.c"
  3123 ;; Parameters:    Size  Location     Type
  3124 ;;		None
  3125 ;; Auto vars:     Size  Location     Type
  3126 ;;		None
  3127 ;; Return value:  Size  Location     Type
  3128 ;;                  1    wreg      void 
  3129 ;; Registers used:
  3130 ;;		wreg, status,2
  3131 ;; Tracked objects:
  3132 ;;		On entry : 0/0
  3133 ;;		On exit  : 0/0
  3134 ;;		Unchanged: 0/0
  3135 ;; Data sizes:     COMRAM   BANK0   BANK1   BANK2   BANK3   BANK4   BANK5   BANK6   BANK7   BANK8   BANK9  BANK10  BANK1
      +1  BANK12  BANK13  BANK14  BANK15  BANK16  BANK17  BANK18  BANK19  BANK20  BANK21  BANK22  BANK23  BANK24  BANK25  BANK2
      +6  BANK27  BANK28  BANK29  BANK30  BANK31
  3136 ;;      Params:         0       0       0       0       0       0       0       0       0       0       0       0       
      +0       0       0       0       0       0       0       0       0       0       0       0       0       0       0       
      +0       0       0       0       0       0
  3137 ;;      Locals:         0       0       0       0       0       0       0       0       0       0       0       0       
      +0       0       0       0       0       0       0       0       0       0       0       0       0       0       0       
      +0       0       0       0       0       0
  3138 ;;      Temps:          0       0       0       0       0       0       0       0       0       0       0       0       
      +0       0       0       0       0       0       0       0       0       0       0       0       0       0       0       
      +0       0       0       0       0       0
  3139 ;;      Totals:         0       0       0       0       0       0       0       0       0       0       0       0       
      +0       0       0       0       0       0       0       0       0       0       0       0       0       0       0       
      +0       0       0       0       0       0
  3140 ;;Total ram usage:        0 bytes
  3141 ;; Hardware stack levels used: 1
  3142 ;; Hardware stack levels required when called: 2
  3143 ;; This function calls:
  3144 ;;		Nothing
  3145 ;; This function is called by:
  3146 ;;		_end_foxhunt
  3147 ;; This function uses a non-reentrant model
  3148 ;;
  3149                           
  3150                           	psect	text10
  3151  003BB6                     __ptext10:
  3152                           	callstack 0
  3153  003BB6                     _deinitialize_tone_generator:
  3154                           	callstack 27
  3155  003BB6                     
  3156                           ;tone_generator.c: 35:     PWM5CON = 0;
  3157  003BB6  0E00               	movlw	0
  3158  003BB8  6E6E               	movwf	110,c	;volatile
  3159  003BBA                     
  3160                           ;tone_generator.c: 36:     T2CONbits.ON = 0;
  3161  003BBA  9EAC               	bcf	172,7,c	;volatile
  3162  003BBC  0012               	return		;funcret
  3163  003BBE                     __end_of_deinitialize_tone_generator:
  3164                           	callstack 0
  3165                           
  3166 ;; *************** function _cycle_transmitter *****************
  3167 ;; Defined at:
  3168 ;;		line 86 in file "main.c"
  3169 ;; Parameters:    Size  Location     Type
  3170 ;;		None
  3171 ;; Auto vars:     Size  Location     Type
  3172 ;;		None
  3173 ;; Return value:  Size  Location     Type
  3174 ;;                  1    wreg      void 
  3175 ;; Registers used:
  3176 ;;		wreg, status,2, status,0, tblptrl, tblptrh, tblptru, cstack
  3177 ;; Tracked objects:
  3178 ;;		On entry : 0/0
  3179 ;;		On exit  : 0/0
  3180 ;;		Unchanged: 0/0
  3181 ;; Data sizes:     COMRAM   BANK0   BANK1   BANK2   BANK3   BANK4   BANK5   BANK6   BANK7   BANK8   BANK9  BANK10  BANK1
      +1  BANK12  BANK13  BANK14  BANK15  BANK16  BANK17  BANK18  BANK19  BANK20  BANK21  BANK22  BANK23  BANK24  BANK25  BANK2
      +6  BANK27  BANK28  BANK29  BANK30  BANK31
  3182 ;;      Params:         0       0       0       0       0       0       0       0       0       0       0       0       
      +0       0       0       0       0       0       0       0       0       0       0       0       0       0       0       
      +0       0       0       0       0       0
  3183 ;;      Locals:         0       0       0       0       0       0       0       0       0       0       0       0       
      +0       0       0       0       0       0       0       0       0       0       0       0       0       0       0       
      +0       0       0       0       0       0
  3184 ;;      Temps:          1       0       0       0       0       0       0       0       0       0       0       0       
      +0       0       0       0       0       0       0       0       0       0       0       0       0       0       0       
      +0       0       0       0       0       0
  3185 ;;      Totals:         1       0       0       0       0       0       0       0       0       0       0       0       
      +0       0       0       0       0       0       0       0       0       0       0       0       0       0       0       
      +0       0       0       0       0       0
  3186 ;;Total ram usage:        1 bytes
  3187 ;; Hardware stack levels used: 1
  3188 ;; Hardware stack levels required when called: 7
  3189 ;; This function calls:
  3190 ;;		_cw_message
  3191 ;;		_deinitialize_cw
  3192 ;;		_initialize_cw
  3193 ;; This function is called by:
  3194 ;;		_main
  3195 ;; This function uses a non-reentrant model
  3196 ;;
  3197                           
  3198                           	psect	text11
  3199  003984                     __ptext11:
  3200                           	callstack 0
  3201  003984                     _cycle_transmitter:
  3202                           	callstack 23
  3203  003984                     
  3204                           ;main.c: 87:     if (transmit_change) {
  3205  003984  0100               	movlb	0	; () banked
  3206  003986  5169               	movf	_transmit_change& (0+255),w,b
  3207  003988  B4D8               	btfsc	status,2,c
  3208  00398A  EFC9  F01C         	goto	u2161
  3209  00398E  EFCB  F01C         	goto	u2160
  3210  003992                     u2161:
  3211  003992  EFF9  F01C         	goto	l108
  3212  003996                     u2160:
  3213  003996                     
  3214                           ; BSR set to: 0
  3215                           ;main.c: 88:         T1CONbits.ON = 0;
  3216  003996  90B2               	bcf	178,0,c	;volatile
  3217  003998                     
  3218                           ; BSR set to: 0
  3219                           ;main.c: 89:         if (transmit) {
  3220  003998  5059               	movf	_transmit^0,w,c
  3221  00399A  B4D8               	btfsc	status,2,c
  3222  00399C  EFD2  F01C         	goto	u2171
  3223  0039A0  EFD4  F01C         	goto	u2170
  3224  0039A4                     u2171:
  3225  0039A4  EFD7  F01C         	goto	l3663
  3226  0039A8                     u2170:
  3227  0039A8                     
  3228                           ; BSR set to: 0
  3229                           ;main.c: 90:             PORTAbits.RA1 = 1;
  3230  0039A8  82CA               	bsf	202,1,c	;volatile
  3231                           
  3232                           ;main.c: 91:         } else {
  3233  0039AA  EFF1  F01C         	goto	l3673
  3234  0039AE                     l3663:
  3235                           
  3236                           ; BSR set to: 0
  3237                           ;main.c: 92:             initialize_cw(60);
  3238  0039AE  0E00               	movlw	0
  3239  0039B0  6E04               	movwf	(initialize_cw@speed+1)^0,c
  3240  0039B2  0E3C               	movlw	60
  3241  0039B4  6E03               	movwf	initialize_cw@speed^0,c
  3242  0039B6  EC24  F01D         	call	_initialize_cw	;wreg free
  3243  0039BA                     
  3244                           ;main.c: 93:             cw_message("N0MCW", sizeof("N0MCW"));
  3245  0039BA  0E0B               	movlw	low STR_2
  3246  0039BC  6E07               	movwf	cw_message@message^0,c
  3247  0039BE  0E20               	movlw	high STR_2
  3248  0039C0  6E08               	movwf	(cw_message@message+1)^0,c
  3249  0039C2  0E00               	movlw	0
  3250  0039C4  6E0A               	movwf	(cw_message@message_size+1)^0,c
  3251  0039C6  0E06               	movlw	6
  3252  0039C8  6E09               	movwf	cw_message@message_size^0,c
  3253  0039CA  ECFA  F01C         	call	_cw_message	;wreg free
  3254  0039CE                     
  3255                           ;main.c: 94:             _delay((unsigned long)((500)*(31000UL/4000.0)));
  3256  0039CE  0E06               	movlw	6
  3257  0039D0  6E0F               	movwf	??_cycle_transmitter^0,c
  3258  0039D2  0E07               	movlw	7
  3259  0039D4                     u3307:
  3260  0039D4  2EE8               	decfsz	wreg,f,c
  3261  0039D6  D7FE               	bra	u3307
  3262  0039D8  2E0F               	decfsz	??_cycle_transmitter^0,f,c
  3263  0039DA  D7FC               	bra	u3307
  3264  0039DC                     
  3265                           ;main.c: 95:             PORTAbits.RA1 = 0;
  3266  0039DC  92CA               	bcf	202,1,c	;volatile
  3267  0039DE                     
  3268                           ;main.c: 96:             deinitialize_cw();
  3269  0039DE  ECCF  F01D         	call	_deinitialize_cw	;wreg free
  3270  0039E2                     l3673:
  3271                           
  3272                           ;main.c: 98:         transmit_change = 0;
  3273  0039E2  0E00               	movlw	0
  3274  0039E4  0100               	movlb	0	; () banked
  3275  0039E6  6F69               	movwf	_transmit_change& (0+255),b
  3276  0039E8                     
  3277                           ; BSR set to: 0
  3278                           ;main.c: 99:         TMR1H = 0x1C;
  3279  0039E8  0E1C               	movlw	28
  3280  0039EA  6EB1               	movwf	177,c	;volatile
  3281  0039EC                     
  3282                           ; BSR set to: 0
  3283                           ;main.c: 100:         TMR1L = 0xF2;
  3284  0039EC  0EF2               	movlw	242
  3285  0039EE  6EB0               	movwf	176,c	;volatile
  3286  0039F0                     
  3287                           ; BSR set to: 0
  3288                           ;main.c: 101:         T1CONbits.ON = 1;
  3289  0039F0  80B2               	bsf	178,0,c	;volatile
  3290  0039F2                     l108:
  3291                           
  3292                           ; BSR set to: 0
  3293  0039F2  0012               	return		;funcret
  3294  0039F4                     __end_of_cycle_transmitter:
  3295                           	callstack 0
  3296                           
  3297 ;; *************** function _initialize_cw *****************
  3298 ;; Defined at:
  3299 ;;		line 10 in file "cw.c"
  3300 ;; Parameters:    Size  Location     Type
  3301 ;;  speed           2    2[COMRAM] int 
  3302 ;; Auto vars:     Size  Location     Type
  3303 ;;		None
  3304 ;; Return value:  Size  Location     Type
  3305 ;;                  1    wreg      void 
  3306 ;; Registers used:
  3307 ;;		wreg, status,2, cstack
  3308 ;; Tracked objects:
  3309 ;;		On entry : 0/0
  3310 ;;		On exit  : 0/0
  3311 ;;		Unchanged: 0/0
  3312 ;; Data sizes:     COMRAM   BANK0   BANK1   BANK2   BANK3   BANK4   BANK5   BANK6   BANK7   BANK8   BANK9  BANK10  BANK1
      +1  BANK12  BANK13  BANK14  BANK15  BANK16  BANK17  BANK18  BANK19  BANK20  BANK21  BANK22  BANK23  BANK24  BANK25  BANK2
      +6  BANK27  BANK28  BANK29  BANK30  BANK31
  3313 ;;      Params:         2       0       0       0       0       0       0       0       0       0       0       0       
      +0       0       0       0       0       0       0       0       0       0       0       0       0       0       0       
      +0       0       0       0       0       0
  3314 ;;      Locals:         0       0       0       0       0       0       0       0       0       0       0       0       
      +0       0       0       0       0       0       0       0       0       0       0       0       0       0       0       
      +0       0       0       0       0       0
  3315 ;;      Temps:          0       0       0       0       0       0       0       0       0       0       0       0       
      +0       0       0       0       0       0       0       0       0       0       0       0       0       0       0       
      +0       0       0       0       0       0
  3316 ;;      Totals:         2       0       0       0       0       0       0       0       0       0       0       0       
      +0       0       0       0       0       0       0       0       0       0       0       0       0       0       0       
      +0       0       0       0       0       0
  3317 ;;Total ram usage:        2 bytes
  3318 ;; Hardware stack levels used: 1
  3319 ;; Hardware stack levels required when called: 3
  3320 ;; This function calls:
  3321 ;;		_tone_enable
  3322 ;; This function is called by:
  3323 ;;		_main
  3324 ;;		_cycle_transmitter
  3325 ;;		_end_foxhunt
  3326 ;; This function uses a non-reentrant model
  3327 ;;
  3328                           
  3329                           	psect	text12
  3330  003A48                     __ptext12:
  3331                           	callstack 0
  3332  003A48                     _initialize_cw:
  3333                           	callstack 27
  3334  003A48                     
  3335                           ;cw.c: 11:     MD1CON1bits.CHSYNC = 0;
  3336  003A48  013C               	movlb	60	; () banked
  3337  003A4A  99FB               	bcf	251,4,b	;volatile
  3338                           
  3339                           ;cw.c: 12:     MD1CON1bits.CLSYNC = 0;
  3340  003A4C  91FB               	bcf	251,0,b	;volatile
  3341  003A4E                     
  3342                           ; BSR set to: 60
  3343                           ;cw.c: 13:     MD1CARHbits.CH = 0b01000;
  3344  003A4E  51FE               	movf	254,w,b	;volatile
  3345  003A50  0BE0               	andlw	-32
  3346  003A52  0908               	iorlw	8
  3347  003A54  6FFE               	movwf	254,b	;volatile
  3348                           
  3349                           ;cw.c: 14:     MD1SRCbits.MD1MS = 0b00001;
  3350  003A56  51FC               	movf	252,w,b	;volatile
  3351  003A58  0BE0               	andlw	-32
  3352  003A5A  0901               	iorlw	1
  3353  003A5C  6FFC               	movwf	252,b	;volatile
  3354                           
  3355                           ;cw.c: 15:     RC4PPS = 0b101000;
  3356  003A5E  0E28               	movlw	40
  3357  003A60  013A               	movlb	58	; () banked
  3358  003A62  6F14               	movwf	20,b	;volatile
  3359  003A64                     
  3360                           ; BSR set to: 58
  3361                           ;cw.c: 16:     MD1CON0bits.EN = 1;
  3362  003A64  013C               	movlb	60	; () banked
  3363  003A66  8FFA               	bsf	250,7,b	;volatile
  3364  003A68                     
  3365                           ; BSR set to: 60
  3366                           ;cw.c: 17:     T4CLKbits.T4CS0 = 1;
  3367  003A68  80A2               	bsf	162,0,c	;volatile
  3368                           
  3369                           ;cw.c: 18:     T4CONbits.CKPS = 0b110;
  3370  003A6A  50A0               	movf	160,w,c	;volatile
  3371  003A6C  0B8F               	andlw	-113
  3372  003A6E  0960               	iorlw	96
  3373  003A70  6EA0               	movwf	160,c	;volatile
  3374                           
  3375                           ;cw.c: 19:     T4PRbits.PR4 = 0x7;
  3376  003A72  0E07               	movlw	7
  3377  003A74  6E9F               	movwf	159,c	;volatile
  3378                           
  3379                           ;cw.c: 20:     T4HLTbits.MODE = 0b01000;
  3380  003A76  50A1               	movf	161,w,c	;volatile
  3381  003A78  0BE0               	andlw	-32
  3382  003A7A  0908               	iorlw	8
  3383  003A7C  6EA1               	movwf	161,c	;volatile
  3384  003A7E                     
  3385                           ; BSR set to: 60
  3386                           ;cw.c: 22:     tone_enable(1);
  3387  003A7E  0E01               	movlw	1
  3388  003A80  EC9C  F01D         	call	_tone_enable
  3389  003A84                     
  3390                           ;cw.c: 23:     dit_length = speed;
  3391  003A84  C003  F067         	movff	initialize_cw@speed,_dit_length
  3392  003A88  C004  F068         	movff	initialize_cw@speed+1,_dit_length+1
  3393  003A8C  0012               	return		;funcret
  3394  003A8E                     __end_of_initialize_cw:
  3395                           	callstack 0
  3396                           
  3397 ;; *************** function _deinitialize_cw *****************
  3398 ;; Defined at:
  3399 ;;		line 26 in file "cw.c"
  3400 ;; Parameters:    Size  Location     Type
  3401 ;;		None
  3402 ;; Auto vars:     Size  Location     Type
  3403 ;;		None
  3404 ;; Return value:  Size  Location     Type
  3405 ;;                  1    wreg      void 
  3406 ;; Registers used:
  3407 ;;		wreg, status,2, cstack
  3408 ;; Tracked objects:
  3409 ;;		On entry : 0/0
  3410 ;;		On exit  : 0/0
  3411 ;;		Unchanged: 0/0
  3412 ;; Data sizes:     COMRAM   BANK0   BANK1   BANK2   BANK3   BANK4   BANK5   BANK6   BANK7   BANK8   BANK9  BANK10  BANK1
      +1  BANK12  BANK13  BANK14  BANK15  BANK16  BANK17  BANK18  BANK19  BANK20  BANK21  BANK22  BANK23  BANK24  BANK25  BANK2
      +6  BANK27  BANK28  BANK29  BANK30  BANK31
  3413 ;;      Params:         0       0       0       0       0       0       0       0       0       0       0       0       
      +0       0       0       0       0       0       0       0       0       0       0       0       0       0       0       
      +0       0       0       0       0       0
  3414 ;;      Locals:         0       0       0       0       0       0       0       0       0       0       0       0       
      +0       0       0       0       0       0       0       0       0       0       0       0       0       0       0       
      +0       0       0       0       0       0
  3415 ;;      Temps:          0       0       0       0       0       0       0       0       0       0       0       0       
      +0       0       0       0       0       0       0       0       0       0       0       0       0       0       0       
      +0       0       0       0       0       0
  3416 ;;      Totals:         0       0       0       0       0       0       0       0       0       0       0       0       
      +0       0       0       0       0       0       0       0       0       0       0       0       0       0       0       
      +0       0       0       0       0       0
  3417 ;;Total ram usage:        0 bytes
  3418 ;; Hardware stack levels used: 1
  3419 ;; Hardware stack levels required when called: 3
  3420 ;; This function calls:
  3421 ;;		_tone_enable
  3422 ;; This function is called by:
  3423 ;;		_main
  3424 ;;		_cycle_transmitter
  3425 ;;		_end_foxhunt
  3426 ;; This function uses a non-reentrant model
  3427 ;;
  3428                           
  3429                           	psect	text13
  3430  003B9E                     __ptext13:
  3431                           	callstack 0
  3432  003B9E                     _deinitialize_cw:
  3433                           	callstack 26
  3434  003B9E                     
  3435                           ;cw.c: 27:     MD1CON0bits.EN = 0;
  3436  003B9E  013C               	movlb	60	; () banked
  3437  003BA0  9FFA               	bcf	250,7,b	;volatile
  3438  003BA2                     
  3439                           ; BSR set to: 60
  3440                           ;cw.c: 28:     tone_enable(0);
  3441  003BA2  0E00               	movlw	0
  3442  003BA4  EC9C  F01D         	call	_tone_enable
  3443  003BA8  0012               	return		;funcret
  3444  003BAA                     __end_of_deinitialize_cw:
  3445                           	callstack 0
  3446                           
  3447 ;; *************** function _tone_enable *****************
  3448 ;; Defined at:
  3449 ;;		line 39 in file "tone_generator.c"
  3450 ;; Parameters:    Size  Location     Type
  3451 ;;  tone_active     1    wreg     _Bool 
  3452 ;; Auto vars:     Size  Location     Type
  3453 ;;  tone_active     1    1[COMRAM] _Bool 
  3454 ;; Return value:  Size  Location     Type
  3455 ;;                  1    wreg      void 
  3456 ;; Registers used:
  3457 ;;		wreg, status,2
  3458 ;; Tracked objects:
  3459 ;;		On entry : 0/0
  3460 ;;		On exit  : 0/0
  3461 ;;		Unchanged: 0/0
  3462 ;; Data sizes:     COMRAM   BANK0   BANK1   BANK2   BANK3   BANK4   BANK5   BANK6   BANK7   BANK8   BANK9  BANK10  BANK1
      +1  BANK12  BANK13  BANK14  BANK15  BANK16  BANK17  BANK18  BANK19  BANK20  BANK21  BANK22  BANK23  BANK24  BANK25  BANK2
      +6  BANK27  BANK28  BANK29  BANK30  BANK31
  3463 ;;      Params:         0       0       0       0       0       0       0       0       0       0       0       0       
      +0       0       0       0       0       0       0       0       0       0       0       0       0       0       0       
      +0       0       0       0       0       0
  3464 ;;      Locals:         1       0       0       0       0       0       0       0       0       0       0       0       
      +0       0       0       0       0       0       0       0       0       0       0       0       0       0       0       
      +0       0       0       0       0       0
  3465 ;;      Temps:          0       0       0       0       0       0       0       0       0       0       0       0       
      +0       0       0       0       0       0       0       0       0       0       0       0       0       0       0       
      +0       0       0       0       0       0
  3466 ;;      Totals:         1       0       0       0       0       0       0       0       0       0       0       0       
      +0       0       0       0       0       0       0       0       0       0       0       0       0       0       0       
      +0       0       0       0       0       0
  3467 ;;Total ram usage:        1 bytes
  3468 ;; Hardware stack levels used: 1
  3469 ;; Hardware stack levels required when called: 2
  3470 ;; This function calls:
  3471 ;;		Nothing
  3472 ;; This function is called by:
  3473 ;;		_initialize_cw
  3474 ;;		_deinitialize_cw
  3475 ;; This function uses a non-reentrant model
  3476 ;;
  3477                           
  3478                           	psect	text14
  3479  003B38                     __ptext14:
  3480                           	callstack 0
  3481  003B38                     _tone_enable:
  3482                           	callstack 27
  3483                           
  3484                           ;incstack = 0
  3485                           ;tone_enable@tone_active stored from wreg
  3486  003B38  6E02               	movwf	tone_enable@tone_active^0,c
  3487  003B3A                     
  3488                           ;tone_generator.c: 40:     if (tone_active) {
  3489  003B3A  5002               	movf	tone_enable@tone_active^0,w,c
  3490  003B3C  B4D8               	btfsc	status,2,c
  3491  003B3E  EFA3  F01D         	goto	u1151
  3492  003B42  EFA5  F01D         	goto	u1150
  3493  003B46                     u1151:
  3494  003B46  EFA8  F01D         	goto	l301
  3495  003B4A                     u1150:
  3496  003B4A                     
  3497                           ;tone_generator.c: 41:         PWM5CONbits.EN = 1;
  3498  003B4A  8E6E               	bsf	110,7,c	;volatile
  3499                           
  3500                           ;tone_generator.c: 42:     } else {
  3501  003B4C  EFA9  F01D         	goto	l303
  3502  003B50                     l301:
  3503                           
  3504                           ;tone_generator.c: 43:         PWM5CONbits.EN = 0;
  3505  003B50  9E6E               	bcf	110,7,c	;volatile
  3506  003B52                     l303:
  3507  003B52  0012               	return		;funcret
  3508  003B54                     __end_of_tone_enable:
  3509                           	callstack 0
  3510                           
  3511 ;; *************** function _cw_message *****************
  3512 ;; Defined at:
  3513 ;;		line 31 in file "cw.c"
  3514 ;; Parameters:    Size  Location     Type
  3515 ;;  message         2    6[COMRAM] PTR unsigned char 
  3516 ;;		 -> STR_4(6), STR_3(4), STR_2(6), STR_1(10), 
  3517 ;;  message_size    2    8[COMRAM] unsigned int 
  3518 ;; Auto vars:     Size  Location     Type
  3519 ;;  i               2   12[COMRAM] int 
  3520 ;; Return value:  Size  Location     Type
  3521 ;;                  1    wreg      void 
  3522 ;; Registers used:
  3523 ;;		wreg, status,2, status,0, tblptrl, tblptrh, tblptru, cstack
  3524 ;; Tracked objects:
  3525 ;;		On entry : 0/0
  3526 ;;		On exit  : 0/0
  3527 ;;		Unchanged: 0/0
  3528 ;; Data sizes:     COMRAM   BANK0   BANK1   BANK2   BANK3   BANK4   BANK5   BANK6   BANK7   BANK8   BANK9  BANK10  BANK1
      +1  BANK12  BANK13  BANK14  BANK15  BANK16  BANK17  BANK18  BANK19  BANK20  BANK21  BANK22  BANK23  BANK24  BANK25  BANK2
      +6  BANK27  BANK28  BANK29  BANK30  BANK31
  3529 ;;      Params:         4       0       0       0       0       0       0       0       0       0       0       0       
      +0       0       0       0       0       0       0       0       0       0       0       0       0       0       0       
      +0       0       0       0       0       0
  3530 ;;      Locals:         2       0       0       0       0       0       0       0       0       0       0       0       
      +0       0       0       0       0       0       0       0       0       0       0       0       0       0       0       
      +0       0       0       0       0       0
  3531 ;;      Temps:          2       0       0       0       0       0       0       0       0       0       0       0       
      +0       0       0       0       0       0       0       0       0       0       0       0       0       0       0       
      +0       0       0       0       0       0
  3532 ;;      Totals:         8       0       0       0       0       0       0       0       0       0       0       0       
      +0       0       0       0       0       0       0       0       0       0       0       0       0       0       0       
      +0       0       0       0       0       0
  3533 ;;Total ram usage:        8 bytes
  3534 ;; Hardware stack levels used: 1
  3535 ;; Hardware stack levels required when called: 6
  3536 ;; This function calls:
  3537 ;;		_cw
  3538 ;;		_dahspace
  3539 ;; This function is called by:
  3540 ;;		_main
  3541 ;;		_cycle_transmitter
  3542 ;;		_end_foxhunt
  3543 ;; This function uses a non-reentrant model
  3544 ;;
  3545                           
  3546                           	psect	text15
  3547  0039F4                     __ptext15:
  3548                           	callstack 0
  3549  0039F4                     _cw_message:
  3550                           	callstack 23
  3551  0039F4                     
  3552                           ;cw.c: 32:     for (int i = 0; i < message_size; i++) {
  3553  0039F4  0E00               	movlw	0
  3554  0039F6  6E0E               	movwf	(cw_message@i+1)^0,c
  3555  0039F8  0E00               	movlw	0
  3556  0039FA  6E0D               	movwf	cw_message@i^0,c
  3557  0039FC  EF14  F01D         	goto	l3039
  3558  003A00                     l3035:
  3559                           
  3560                           ;cw.c: 33:         cw(message[i]);
  3561  003A00  500D               	movf	cw_message@i^0,w,c
  3562  003A02  2407               	addwf	cw_message@message^0,w,c
  3563  003A04  6E0B               	movwf	??_cw_message^0,c
  3564  003A06  500E               	movf	(cw_message@i+1)^0,w,c
  3565  003A08  2008               	addwfc	(cw_message@message+1)^0,w,c
  3566  003A0A  6E0C               	movwf	(??_cw_message+1)^0,c
  3567  003A0C  0060  F02F  FFF6   	movff	??_cw_message,tblptrl
  3568  003A12  0060  F033  FFF7   	movff	??_cw_message+1,tblptrh
  3569  003A18                     	if	0	;tblptru may be non-zero
  3570  003A18                     	endif
  3571  003A18                     	if	1	;Program memory is > 0xFFFF, there are 3 active tblptr bytes
  3572  003A18  0E00               	movlw	low (__mediumconst shr (0+16))
  3573  003A1A  6EF8               	movwf	tblptru,c
  3574  003A1C                     	endif
  3575  003A1C  0008               	tblrd		*
  3576  003A1E  50F5               	movf	tablat,w,c
  3577  003A20  EC0B  F010         	call	_cw
  3578  003A24                     
  3579                           ;cw.c: 34:     }
  3580  003A24  4A0D               	infsnz	cw_message@i^0,f,c
  3581  003A26  2A0E               	incf	(cw_message@i+1)^0,f,c
  3582  003A28                     l3039:
  3583  003A28  5009               	movf	cw_message@message_size^0,w,c
  3584  003A2A  5C0D               	subwf	cw_message@i^0,w,c
  3585  003A2C  500A               	movf	(cw_message@message_size+1)^0,w,c
  3586  003A2E  580E               	subwfb	(cw_message@i+1)^0,w,c
  3587  003A30  A0D8               	btfss	status,0,c
  3588  003A32  EF1D  F01D         	goto	u1161
  3589  003A36  EF1F  F01D         	goto	u1160
  3590  003A3A                     u1161:
  3591  003A3A  EF00  F01D         	goto	l3035
  3592  003A3E                     u1160:
  3593  003A3E                     
  3594                           ;cw.c: 35:     dahspace(); dahspace();
  3595  003A3E  EC64  F01D         	call	_dahspace	;wreg free
  3596  003A42  EC64  F01D         	call	_dahspace	;wreg free
  3597  003A46  0012               	return		;funcret
  3598  003A48                     __end_of_cw_message:
  3599                           	callstack 0
  3600                           
  3601 ;; *************** function _cw *****************
  3602 ;; Defined at:
  3603 ;;		line 38 in file "cw.c"
  3604 ;; Parameters:    Size  Location     Type
  3605 ;;  character       1    wreg     unsigned char 
  3606 ;; Auto vars:     Size  Location     Type
  3607 ;;  character       1    5[COMRAM] unsigned char 
  3608 ;; Return value:  Size  Location     Type
  3609 ;;                  1    wreg      void 
  3610 ;; Registers used:
  3611 ;;		wreg, status,2, status,0, cstack
  3612 ;; Tracked objects:
  3613 ;;		On entry : 0/0
  3614 ;;		On exit  : 0/0
  3615 ;;		Unchanged: 0/0
  3616 ;; Data sizes:     COMRAM   BANK0   BANK1   BANK2   BANK3   BANK4   BANK5   BANK6   BANK7   BANK8   BANK9  BANK10  BANK1
      +1  BANK12  BANK13  BANK14  BANK15  BANK16  BANK17  BANK18  BANK19  BANK20  BANK21  BANK22  BANK23  BANK24  BANK25  BANK2
      +6  BANK27  BANK28  BANK29  BANK30  BANK31
  3617 ;;      Params:         0       0       0       0       0       0       0       0       0       0       0       0       
      +0       0       0       0       0       0       0       0       0       0       0       0       0       0       0       
      +0       0       0       0       0       0
  3618 ;;      Locals:         1       0       0       0       0       0       0       0       0       0       0       0       
      +0       0       0       0       0       0       0       0       0       0       0       0       0       0       0       
      +0       0       0       0       0       0
  3619 ;;      Temps:          2       0       0       0       0       0       0       0       0       0       0       0       
      +0       0       0       0       0       0       0       0       0       0       0       0       0       0       0       
      +0       0       0       0       0       0
  3620 ;;      Totals:         3       0       0       0       0       0       0       0       0       0       0       0       
      +0       0       0       0       0       0       0       0       0       0       0       0       0       0       0       
      +0       0       0       0       0       0
  3621 ;;Total ram usage:        3 bytes
  3622 ;; Hardware stack levels used: 1
  3623 ;; Hardware stack levels required when called: 5
  3624 ;; This function calls:
  3625 ;;		_dah
  3626 ;;		_dahspace
  3627 ;;		_dit
  3628 ;;		_ditspace
  3629 ;; This function is called by:
  3630 ;;		_cw_message
  3631 ;; This function uses a non-reentrant model
  3632 ;;
  3633                           
  3634                           	psect	text16
  3635  002016                     __ptext16:
  3636                           	callstack 0
  3637  002016                     _cw:
  3638                           	callstack 23
  3639                           
  3640                           ;incstack = 0
  3641                           ;cw@character stored from wreg
  3642  002016  6E06               	movwf	cw@character^0,c
  3643  002018                     
  3644                           ;cw.c: 39:   switch(character){
  3645  002018  EF6E  F012         	goto	l3015
  3646  00201C                     l2409:
  3647                           
  3648                           ;cw.c: 43:         dit(); ditspace(); dah(); dahspace(); break;
  3649  00201C  ECBB  F01D         	call	_dit	;wreg free
  3650  002020  ECAA  F01D         	call	_ditspace	;wreg free
  3651  002024                     l2411:
  3652  002024  ECC2  F01D         	call	_dah	;wreg free
  3653  002028                     l2413:
  3654  002028  EC64  F01D         	call	_dahspace	;wreg free
  3655  00202C  EFB7  F013         	goto	l254
  3656  002030                     l2415:
  3657                           
  3658                           ;cw.c: 45:         dah(); ditspace(); dit(); ditspace(); dit(); ditspace(); dit(); dahsp
      +                          ace(); break;
  3659  002030  ECC2  F01D         	call	_dah	;wreg free
  3660  002034                     l2417:
  3661  002034  ECAA  F01D         	call	_ditspace	;wreg free
  3662  002038  ECBB  F01D         	call	_dit	;wreg free
  3663  00203C                     l2421:
  3664  00203C  ECAA  F01D         	call	_ditspace	;wreg free
  3665  002040  ECBB  F01D         	call	_dit	;wreg free
  3666  002044                     l2425:
  3667  002044  ECAA  F01D         	call	_ditspace	;wreg free
  3668  002048  ECBB  F01D         	call	_dit	;wreg free
  3669  00204C  EC64  F01D         	call	_dahspace	;wreg free
  3670  002050  EFB7  F013         	goto	l254
  3671  002054                     l2429:
  3672                           
  3673                           ;cw.c: 47:         dah(); ditspace(); dit(); ditspace(); dah(); ditspace(); dit(); dahsp
      +                          ace(); break;
  3674  002054  ECC2  F01D         	call	_dah	;wreg free
  3675  002058                     l2431:
  3676  002058  ECAA  F01D         	call	_ditspace	;wreg free
  3677  00205C  ECBB  F01D         	call	_dit	;wreg free
  3678  002060                     l2435:
  3679  002060  ECAA  F01D         	call	_ditspace	;wreg free
  3680  002064  ECC2  F01D         	call	_dah	;wreg free
  3681  002068  ECAA  F01D         	call	_ditspace	;wreg free
  3682  00206C  ECBB  F01D         	call	_dit	;wreg free
  3683  002070  EF14  F010         	goto	l2413
  3684  002074                     l2441:
  3685                           
  3686                           ;cw.c: 49:         dah(); ditspace(); dit(); ditspace(); dit(); dahspace(); break;
  3687  002074  ECC2  F01D         	call	_dah	;wreg free
  3688  002078  EF1E  F010         	goto	l2421
  3689  00207C                     l2451:
  3690                           
  3691                           ;cw.c: 51:         dit(); dahspace(); break;
  3692  00207C  ECBB  F01D         	call	_dit	;wreg free
  3693  002080  EF14  F010         	goto	l2413
  3694  002084                     l2455:
  3695                           
  3696                           ;cw.c: 53:         dit(); ditspace(); dit(); ditspace(); dah(); ditspace(); dit(); dahsp
      +                          ace(); break;
  3697  002084  ECBB  F01D         	call	_dit	;wreg free
  3698  002088  ECAA  F01D         	call	_ditspace	;wreg free
  3699  00208C  ECBB  F01D         	call	_dit	;wreg free
  3700  002090  ECAA  F01D         	call	_ditspace	;wreg free
  3701  002094                     l2457:
  3702  002094  ECC2  F01D         	call	_dah	;wreg free
  3703  002098                     l2459:
  3704  002098  ECAA  F01D         	call	_ditspace	;wreg free
  3705  00209C  EF3E  F010         	goto	l2451
  3706  0020A0                     l2465:
  3707                           
  3708                           ;cw.c: 55:         dah(); ditspace(); dah(); ditspace(); dit(); dahspace(); break;
  3709  0020A0  ECC2  F01D         	call	_dah	;wreg free
  3710  0020A4  EF30  F010         	goto	l2435
  3711  0020A8                     l2473:
  3712                           
  3713                           ;cw.c: 57:         dit(); ditspace(); dit(); ditspace(); dit(); ditspace(); dit(); dahsp
      +                          ace(); break;
  3714  0020A8  ECBB  F01D         	call	_dit	;wreg free
  3715  0020AC  ECAA  F01D         	call	_ditspace	;wreg free
  3716  0020B0  ECBB  F01D         	call	_dit	;wreg free
  3717  0020B4  ECAA  F01D         	call	_ditspace	;wreg free
  3718  0020B8  ECBB  F01D         	call	_dit	;wreg free
  3719  0020BC  ECAA  F01D         	call	_ditspace	;wreg free
  3720  0020C0  ECBB  F01D         	call	_dit	;wreg free
  3721  0020C4  EF14  F010         	goto	l2413
  3722  0020C8                     l2477:
  3723                           
  3724                           ;cw.c: 59:         dit(); ditspace(); dit(); dahspace(); break;
  3725  0020C8  ECBB  F01D         	call	_dit	;wreg free
  3726  0020CC  ECAA  F01D         	call	_ditspace	;wreg free
  3727  0020D0  ECBB  F01D         	call	_dit	;wreg free
  3728  0020D4  EF14  F010         	goto	l2413
  3729  0020D8                     l2481:
  3730                           
  3731                           ;cw.c: 61:         dit(); ditspace(); dah(); ditspace(); dah(); ditspace(); dah(); dahsp
      +                          ace(); break;
  3732  0020D8  ECBB  F01D         	call	_dit	;wreg free
  3733  0020DC  ECAA  F01D         	call	_ditspace	;wreg free
  3734  0020E0                     l2483:
  3735  0020E0  ECC2  F01D         	call	_dah	;wreg free
  3736  0020E4  ECAA  F01D         	call	_ditspace	;wreg free
  3737  0020E8  ECC2  F01D         	call	_dah	;wreg free
  3738  0020EC                     l2487:
  3739  0020EC  ECAA  F01D         	call	_ditspace	;wreg free
  3740  0020F0  EF12  F010         	goto	l2411
  3741  0020F4                     l2493:
  3742                           
  3743                           ;cw.c: 63:         dah(); ditspace(); dit(); ditspace(); dah(); dahspace(); break;
  3744  0020F4  ECC2  F01D         	call	_dah	;wreg free
  3745  0020F8                     l2495:
  3746  0020F8  ECAA  F01D         	call	_ditspace	;wreg free
  3747  0020FC  ECBB  F01D         	call	_dit	;wreg free
  3748  002100  EF76  F010         	goto	l2487
  3749  002104                     l2505:
  3750                           
  3751                           ;cw.c: 65:         dit(); ditspace(); dah(); ditspace(); dit(); ditspace(); dit(); dahsp
      +                          ace(); break;
  3752  002104  ECBB  F01D         	call	_dit	;wreg free
  3753  002108  ECAA  F01D         	call	_ditspace	;wreg free
  3754  00210C                     l2507:
  3755  00210C  ECC2  F01D         	call	_dah	;wreg free
  3756  002110                     l2509:
  3757  002110  ECAA  F01D         	call	_ditspace	;wreg free
  3758  002114  ECBB  F01D         	call	_dit	;wreg free
  3759  002118  EF4C  F010         	goto	l2459
  3760  00211C                     l2519:
  3761                           
  3762                           ;cw.c: 67:         dah(); ditspace(); dah(); dahspace(); break;
  3763  00211C  ECC2  F01D         	call	_dah	;wreg free
  3764  002120  EF76  F010         	goto	l2487
  3765  002124                     l2527:
  3766                           
  3767                           ;cw.c: 69:         dah(); ditspace(); dit(); dahspace(); break;
  3768  002124  ECC2  F01D         	call	_dah	;wreg free
  3769  002128  EF22  F010         	goto	l2425
  3770  00212C                     l2533:
  3771                           
  3772                           ;cw.c: 71:         dah(); ditspace(); dah(); ditspace(); dah(); dahspace(); break;
  3773  00212C  ECC2  F01D         	call	_dah	;wreg free
  3774  002130                     l2535:
  3775  002130  ECAA  F01D         	call	_ditspace	;wreg free
  3776  002134  ECC2  F01D         	call	_dah	;wreg free
  3777  002138  ECAA  F01D         	call	_ditspace	;wreg free
  3778  00213C  EF12  F010         	goto	l2411
  3779  002140                     l2543:
  3780                           
  3781                           ;cw.c: 73:         dit(); ditspace(); dah(); ditspace(); dah(); ditspace(); dit(); dahsp
      +                          ace(); break;
  3782  002140  ECBB  F01D         	call	_dit	;wreg free
  3783  002144  ECAA  F01D         	call	_ditspace	;wreg free
  3784  002148                     l2545:
  3785  002148  ECC2  F01D         	call	_dah	;wreg free
  3786  00214C                     l2547:
  3787  00214C  ECAA  F01D         	call	_ditspace	;wreg free
  3788  002150  ECC2  F01D         	call	_dah	;wreg free
  3789  002154  EF22  F010         	goto	l2425
  3790  002158                     l2563:
  3791                           
  3792                           ;cw.c: 77:         dit(); ditspace(); dah(); ditspace(); dit(); dahspace(); break;
  3793  002158  ECBB  F01D         	call	_dit	;wreg free
  3794  00215C  ECAA  F01D         	call	_ditspace	;wreg free
  3795  002160  EF4A  F010         	goto	l2457
  3796  002164                     l2573:
  3797                           
  3798                           ;cw.c: 79:         dit(); ditspace(); dit(); ditspace(); dit(); dahspace(); break;
  3799  002164  ECBB  F01D         	call	_dit	;wreg free
  3800  002168  ECAA  F01D         	call	_ditspace	;wreg free
  3801  00216C  ECBB  F01D         	call	_dit	;wreg free
  3802  002170  ECAA  F01D         	call	_ditspace	;wreg free
  3803  002174  ECBB  F01D         	call	_dit	;wreg free
  3804  002178  EF14  F010         	goto	l2413
  3805  00217C                     l2577:
  3806                           
  3807                           ;cw.c: 81:         dah(); dahspace(); break;
  3808  00217C  ECC2  F01D         	call	_dah	;wreg free
  3809  002180  EC64  F01D         	call	_dahspace	;wreg free
  3810  002184  EFB7  F013         	goto	l254
  3811  002188                     l2579:
  3812                           
  3813                           ;cw.c: 83:         dit(); ditspace(); dit(); ditspace(); dah(); dahspace(); break;
  3814  002188  ECBB  F01D         	call	_dit	;wreg free
  3815  00218C  ECAA  F01D         	call	_ditspace	;wreg free
  3816  002190  ECBB  F01D         	call	_dit	;wreg free
  3817  002194  ECAA  F01D         	call	_ditspace	;wreg free
  3818  002198  EF12  F010         	goto	l2411
  3819  00219C                     l2585:
  3820                           
  3821                           ;cw.c: 85:         dit(); ditspace(); dit(); ditspace(); dit(); ditspace(); dah(); dahsp
      +                          ace(); break;
  3822  00219C  ECBB  F01D         	call	_dit	;wreg free
  3823  0021A0  ECAA  F01D         	call	_ditspace	;wreg free
  3824  0021A4  ECBB  F01D         	call	_dit	;wreg free
  3825  0021A8  ECAA  F01D         	call	_ditspace	;wreg free
  3826  0021AC  ECBB  F01D         	call	_dit	;wreg free
  3827  0021B0  ECAA  F01D         	call	_ditspace	;wreg free
  3828  0021B4  EF12  F010         	goto	l2411
  3829  0021B8                     l2591:
  3830                           
  3831                           ;cw.c: 87:         dit(); ditspace(); dah(); ditspace(); dah(); dahspace(); break;
  3832  0021B8  ECBB  F01D         	call	_dit	;wreg free
  3833  0021BC  ECAA  F01D         	call	_ditspace	;wreg free
  3834  0021C0                     l2593:
  3835  0021C0  ECC2  F01D         	call	_dah	;wreg free
  3836  0021C4                     l2595:
  3837  0021C4  ECAA  F01D         	call	_ditspace	;wreg free
  3838  0021C8  ECC2  F01D         	call	_dah	;wreg free
  3839  0021CC  EC64  F01D         	call	_dahspace	;wreg free
  3840  0021D0  EFB7  F013         	goto	l254
  3841  0021D4                     l2597:
  3842                           
  3843                           ;cw.c: 89:         dah(); ditspace(); dit(); ditspace(); dit(); ditspace(); dah(); dahsp
      +                          ace(); break;
  3844  0021D4  ECC2  F01D         	call	_dah	;wreg free
  3845  0021D8                     l2599:
  3846  0021D8  ECAA  F01D         	call	_ditspace	;wreg free
  3847  0021DC  ECBB  F01D         	call	_dit	;wreg free
  3848  0021E0  EF7C  F010         	goto	l2495
  3849  0021E4                     l2613:
  3850                           
  3851                           ;cw.c: 91:         dah(); ditspace(); dit(); ditspace(); dah(); ditspace(); dah(); dahsp
      +                          ace(); break;
  3852  0021E4  ECC2  F01D         	call	_dah	;wreg free
  3853  0021E8  ECAA  F01D         	call	_ditspace	;wreg free
  3854  0021EC  ECBB  F01D         	call	_dit	;wreg free
  3855  0021F0  EF98  F010         	goto	l2535
  3856  0021F4                     l2627:
  3857                           
  3858                           ;cw.c: 93:         dah(); ditspace(); dah(); ditspace(); dit(); ditspace(); dit(); dahsp
      +                          ace(); break;
  3859  0021F4  ECC2  F01D         	call	_dah	;wreg free
  3860  0021F8  ECAA  F01D         	call	_ditspace	;wreg free
  3861  0021FC  ECC2  F01D         	call	_dah	;wreg free
  3862  002200  ECAA  F01D         	call	_ditspace	;wreg free
  3863  002204  ECBB  F01D         	call	_dit	;wreg free
  3864  002208  ECAA  F01D         	call	_ditspace	;wreg free
  3865  00220C  ECBB  F01D         	call	_dit	;wreg free
  3866  002210  EF14  F010         	goto	l2413
  3867  002214                     l2635:
  3868                           
  3869                           ;cw.c: 97:         dit(); ditspace(); dah(); ditspace(); dah(); ditspace(); dah(); ditsp
      +                          ace(); dah(); dahspace(); break;
  3870  002214  ECBB  F01D         	call	_dit	;wreg free
  3871  002218  ECAA  F01D         	call	_ditspace	;wreg free
  3872  00221C  ECC2  F01D         	call	_dah	;wreg free
  3873  002220  ECAA  F01D         	call	_ditspace	;wreg free
  3874  002224  ECC2  F01D         	call	_dah	;wreg free
  3875  002228  EF98  F010         	goto	l2535
  3876  00222C                     l2649:
  3877                           
  3878                           ;cw.c: 99:         dit(); ditspace(); dit(); ditspace(); dah(); ditspace(); dah(); ditsp
      +                          ace(); dah(); dahspace(); break;
  3879  00222C  ECBB  F01D         	call	_dit	;wreg free
  3880  002230  ECAA  F01D         	call	_ditspace	;wreg free
  3881  002234  ECBB  F01D         	call	_dit	;wreg free
  3882  002238  ECAA  F01D         	call	_ditspace	;wreg free
  3883  00223C  EF70  F010         	goto	l2483
  3884  002240                     l2661:
  3885                           
  3886                           ;cw.c: 101:         dit(); ditspace(); dit(); ditspace(); dit(); ditspace(); dah(); dits
      +                          pace(); dah(); dahspace(); break;
  3887  002240  ECBB  F01D         	call	_dit	;wreg free
  3888  002244  ECAA  F01D         	call	_ditspace	;wreg free
  3889  002248  ECBB  F01D         	call	_dit	;wreg free
  3890  00224C  ECAA  F01D         	call	_ditspace	;wreg free
  3891  002250  ECBB  F01D         	call	_dit	;wreg free
  3892  002254  ECAA  F01D         	call	_ditspace	;wreg free
  3893  002258  EFE0  F010         	goto	l2593
  3894  00225C                     l2667:
  3895                           
  3896                           ;cw.c: 103:         dit(); ditspace(); dit(); ditspace(); dit(); ditspace(); dit(); dits
      +                          pace(); dah(); dahspace(); break;
  3897  00225C  ECBB  F01D         	call	_dit	;wreg free
  3898  002260  ECAA  F01D         	call	_ditspace	;wreg free
  3899  002264  ECBB  F01D         	call	_dit	;wreg free
  3900  002268  ECAA  F01D         	call	_ditspace	;wreg free
  3901  00226C  ECBB  F01D         	call	_dit	;wreg free
  3902  002270  ECAA  F01D         	call	_ditspace	;wreg free
  3903  002274  ECBB  F01D         	call	_dit	;wreg free
  3904  002278  ECAA  F01D         	call	_ditspace	;wreg free
  3905  00227C  EF12  F010         	goto	l2411
  3906  002280                     l2673:
  3907                           
  3908                           ;cw.c: 105:         dit(); ditspace(); dit(); ditspace(); dit(); ditspace(); dit(); dits
      +                          pace(); dit(); dahspace(); break;
  3909  002280  ECBB  F01D         	call	_dit	;wreg free
  3910  002284  ECAA  F01D         	call	_ditspace	;wreg free
  3911  002288  ECBB  F01D         	call	_dit	;wreg free
  3912  00228C  ECAA  F01D         	call	_ditspace	;wreg free
  3913  002290  ECBB  F01D         	call	_dit	;wreg free
  3914  002294  ECAA  F01D         	call	_ditspace	;wreg free
  3915  002298  ECBB  F01D         	call	_dit	;wreg free
  3916  00229C  ECAA  F01D         	call	_ditspace	;wreg free
  3917  0022A0  ECBB  F01D         	call	_dit	;wreg free
  3918  0022A4  EF14  F010         	goto	l2413
  3919  0022A8                     l2677:
  3920                           
  3921                           ;cw.c: 107:         dah(); ditspace(); dit(); ditspace(); dit(); ditspace(); dit(); dits
      +                          pace(); dit(); dahspace(); break;
  3922  0022A8  ECC2  F01D         	call	_dah	;wreg free
  3923  0022AC  ECAA  F01D         	call	_ditspace	;wreg free
  3924  0022B0  ECBB  F01D         	call	_dit	;wreg free
  3925  0022B4  EF1A  F010         	goto	l2417
  3926  0022B8                     l2695:
  3927                           
  3928                           ;cw.c: 109:         dah(); ditspace(); dah(); ditspace(); dit(); ditspace(); dit(); dits
      +                          pace(); dit(); dahspace(); break;
  3929  0022B8  ECC2  F01D         	call	_dah	;wreg free
  3930  0022BC  ECAA  F01D         	call	_ditspace	;wreg free
  3931  0022C0  ECC2  F01D         	call	_dah	;wreg free
  3932  0022C4  ECAA  F01D         	call	_ditspace	;wreg free
  3933  0022C8  ECBB  F01D         	call	_dit	;wreg free
  3934  0022CC  ECAA  F01D         	call	_ditspace	;wreg free
  3935  0022D0  ECBB  F01D         	call	_dit	;wreg free
  3936  0022D4  ECAA  F01D         	call	_ditspace	;wreg free
  3937  0022D8  ECBB  F01D         	call	_dit	;wreg free
  3938  0022DC  EF14  F010         	goto	l2413
  3939  0022E0                     l2703:
  3940                           
  3941                           ;cw.c: 111:         dah(); ditspace(); dah(); ditspace(); dah(); ditspace(); dit(); dits
      +                          pace(); dit(); dahspace(); break;
  3942  0022E0  ECC2  F01D         	call	_dah	;wreg free
  3943  0022E4  ECAA  F01D         	call	_ditspace	;wreg free
  3944  0022E8  ECC2  F01D         	call	_dah	;wreg free
  3945  0022EC  ECAA  F01D         	call	_ditspace	;wreg free
  3946  0022F0  EF86  F010         	goto	l2507
  3947  0022F4                     l2721:
  3948                           
  3949                           ;cw.c: 113:         dah(); ditspace(); dah(); ditspace(); dah(); ditspace(); dah(); dits
      +                          pace(); dit(); dahspace(); break;
  3950  0022F4  ECC2  F01D         	call	_dah	;wreg free
  3951  0022F8  ECAA  F01D         	call	_ditspace	;wreg free
  3952  0022FC  ECC2  F01D         	call	_dah	;wreg free
  3953  002300  ECAA  F01D         	call	_ditspace	;wreg free
  3954  002304  EFA4  F010         	goto	l2545
  3955  002308                     l2735:
  3956                           
  3957                           ;cw.c: 115:         dah(); ditspace(); dah(); ditspace(); dah(); ditspace(); dah(); dits
      +                          pace(); dah(); dahspace(); break;
  3958  002308  ECC2  F01D         	call	_dah	;wreg free
  3959  00230C  ECAA  F01D         	call	_ditspace	;wreg free
  3960  002310  ECC2  F01D         	call	_dah	;wreg free
  3961  002314  ECAA  F01D         	call	_ditspace	;wreg free
  3962  002318  EF70  F010         	goto	l2483
  3963  00231C                     l2751:
  3964                           
  3965                           ;cw.c: 119:         dit(); ditspace(); dah(); ditspace(); dit(); ditspace(); dah(); dits
      +                          pace(); dit(); ditspace(); dah(); dahspace(); break;
  3966  00231C  ECBB  F01D         	call	_dit	;wreg free
  3967  002320  ECAA  F01D         	call	_ditspace	;wreg free
  3968  002324  ECC2  F01D         	call	_dah	;wreg free
  3969  002328  ECAA  F01D         	call	_ditspace	;wreg free
  3970  00232C  ECBB  F01D         	call	_dit	;wreg free
  3971  002330                     l2759:
  3972  002330  ECAA  F01D         	call	_ditspace	;wreg free
  3973  002334  ECC2  F01D         	call	_dah	;wreg free
  3974  002338  EF7C  F010         	goto	l2495
  3975  00233C                     l2771:
  3976                           
  3977                           ;cw.c: 121:         dah(); ditspace(); dah(); ditspace(); dit(); ditspace(); dit(); dits
      +                          pace(); dah(); ditspace(); dah(); dahspace(); break;
  3978  00233C  ECC2  F01D         	call	_dah	;wreg free
  3979  002340  ECAA  F01D         	call	_ditspace	;wreg free
  3980  002344  ECC2  F01D         	call	_dah	;wreg free
  3981  002348  ECAA  F01D         	call	_ditspace	;wreg free
  3982  00234C  ECBB  F01D         	call	_dit	;wreg free
  3983  002350  ECAA  F01D         	call	_ditspace	;wreg free
  3984  002354  ECBB  F01D         	call	_dit	;wreg free
  3985  002358  ECAA  F01D         	call	_ditspace	;wreg free
  3986  00235C  EFE0  F010         	goto	l2593
  3987  002360                     l2781:
  3988                           
  3989                           ;cw.c: 123:         dit(); ditspace(); dit(); ditspace(); dah(); ditspace(); dah(); dits
      +                          pace(); dit(); ditspace(); dit(); dahspace(); break;
  3990  002360  ECBB  F01D         	call	_dit	;wreg free
  3991  002364  ECAA  F01D         	call	_ditspace	;wreg free
  3992  002368  ECBB  F01D         	call	_dit	;wreg free
  3993  00236C  ECAA  F01D         	call	_ditspace	;wreg free
  3994  002370  ECC2  F01D         	call	_dah	;wreg free
  3995  002374  ECAA  F01D         	call	_ditspace	;wreg free
  3996  002378  ECC2  F01D         	call	_dah	;wreg free
  3997  00237C  EF1E  F010         	goto	l2421
  3998  002380                     l2795:
  3999                           
  4000                           ;cw.c: 125:         dah(); ditspace(); dah(); ditspace(); dah(); ditspace(); dit(); dits
      +                          pace(); dit(); ditspace(); dit(); dahspace(); break;
  4001  002380  ECC2  F01D         	call	_dah	;wreg free
  4002  002384  ECAA  F01D         	call	_ditspace	;wreg free
  4003  002388  ECC2  F01D         	call	_dah	;wreg free
  4004  00238C  ECAA  F01D         	call	_ditspace	;wreg free
  4005  002390                     l2801:
  4006  002390  ECC2  F01D         	call	_dah	;wreg free
  4007  002394  ECAA  F01D         	call	_ditspace	;wreg free
  4008  002398  ECBB  F01D         	call	_dit	;wreg free
  4009  00239C  EF88  F010         	goto	l2509
  4010  0023A0                     l2817:
  4011                           
  4012                           ;cw.c: 127:         dah(); ditspace(); dit(); ditspace(); dit(); ditspace(); dah(); dits
      +                          pace(); dit(); dahspace(); break;
  4013  0023A0  ECC2  F01D         	call	_dah	;wreg free
  4014  0023A4  ECAA  F01D         	call	_ditspace	;wreg free
  4015  0023A8  ECBB  F01D         	call	_dit	;wreg free
  4016  0023AC  EF2C  F010         	goto	l2431
  4017  0023B0                     l2833:
  4018                           
  4019                           ;cw.c: 129:         dah(); ditspace(); dit(); ditspace(); dit(); ditspace(); dit(); dits
      +                          pace(); dit(); ditspace(); dah(); dahspace(); break;
  4020  0023B0  ECC2  F01D         	call	_dah	;wreg free
  4021  0023B4  ECAA  F01D         	call	_ditspace	;wreg free
  4022  0023B8  ECBB  F01D         	call	_dit	;wreg free
  4023  0023BC                     l2839:
  4024  0023BC  ECAA  F01D         	call	_ditspace	;wreg free
  4025  0023C0  ECBB  F01D         	call	_dit	;wreg free
  4026  0023C4  EFEC  F010         	goto	l2599
  4027  0023C8                     l2857:
  4028                           
  4029                           ;cw.c: 131:         dah(); ditspace(); dit(); ditspace(); dit(); ditspace(); dit(); dits
      +                          pace(); dah(); dahspace(); break;
  4030  0023C8  ECC2  F01D         	call	_dah	;wreg free
  4031  0023CC  EFDE  F011         	goto	l2839
  4032  0023D0                     l2877:
  4033                           
  4034                           ;cw.c: 133:         dit(); ditspace(); dah(); ditspace(); dah(); ditspace(); dah(); dits
      +                          pace(); dah(); ditspace(); dit(); dahspace(); break;
  4035  0023D0  ECBB  F01D         	call	_dit	;wreg free
  4036  0023D4  ECAA  F01D         	call	_ditspace	;wreg free
  4037  0023D8  ECC2  F01D         	call	_dah	;wreg free
  4038  0023DC  ECAA  F01D         	call	_ditspace	;wreg free
  4039  0023E0  ECC2  F01D         	call	_dah	;wreg free
  4040  0023E4  ECAA  F01D         	call	_ditspace	;wreg free
  4041  0023E8  ECC2  F01D         	call	_dah	;wreg free
  4042  0023EC  ECAA  F01D         	call	_ditspace	;wreg free
  4043  0023F0  EF4A  F010         	goto	l2457
  4044  0023F4                     l2895:
  4045                           
  4046                           ;cw.c: 135:         dah(); ditspace(); dit(); ditspace(); dah(); ditspace(); dah(); dits
      +                          pace(); dit(); ditspace(); dah(); dahspace(); break;
  4047  0023F4  ECC2  F01D         	call	_dah	;wreg free
  4048  0023F8  ECAA  F01D         	call	_ditspace	;wreg free
  4049  0023FC  ECBB  F01D         	call	_dit	;wreg free
  4050  002400  ECAA  F01D         	call	_ditspace	;wreg free
  4051  002404  ECC2  F01D         	call	_dah	;wreg free
  4052  002408  ECAA  F01D         	call	_ditspace	;wreg free
  4053  00240C  ECC2  F01D         	call	_dah	;wreg free
  4054  002410                     l2907:
  4055  002410  ECAA  F01D         	call	_ditspace	;wreg free
  4056  002414  ECBB  F01D         	call	_dit	;wreg free
  4057  002418  EFE2  F010         	goto	l2595
  4058  00241C                     l2913:
  4059                           
  4060                           ;cw.c: 137:         dit(); ditspace(); dit(); ditspace(); dah(); ditspace(); dah(); dits
      +                          pace(); dit(); ditspace(); dah(); dahspace(); break;
  4061  00241C  ECBB  F01D         	call	_dit	;wreg free
  4062  002420  ECAA  F01D         	call	_ditspace	;wreg free
  4063  002424  ECBB  F01D         	call	_dit	;wreg free
  4064  002428  ECAA  F01D         	call	_ditspace	;wreg free
  4065  00242C  ECC2  F01D         	call	_dah	;wreg free
  4066  002430  EF98  F011         	goto	l2759
  4067  002434                     l2929:
  4068                           
  4069                           ;cw.c: 139:         dah(); ditspace(); dit(); ditspace(); dah(); ditspace(); dit(); dits
      +                          pace(); dah(); ditspace(); dah(); dahspace(); break;
  4070  002434  ECC2  F01D         	call	_dah	;wreg free
  4071  002438  ECAA  F01D         	call	_ditspace	;wreg free
  4072  00243C  ECBB  F01D         	call	_dit	;wreg free
  4073  002440  ECAA  F01D         	call	_ditspace	;wreg free
  4074  002444  ECC2  F01D         	call	_dah	;wreg free
  4075  002448  ECAA  F01D         	call	_ditspace	;wreg free
  4076  00244C  ECBB  F01D         	call	_dit	;wreg free
  4077  002450  ECAA  F01D         	call	_ditspace	;wreg free
  4078  002454  EFE0  F010         	goto	l2593
  4079  002458                     l2943:
  4080                           
  4081                           ;cw.c: 141:         dit(); ditspace(); dah(); ditspace(); dit(); ditspace(); dit(); dits
      +                          pace(); dit(); dahspace(); break;
  4082  002458  ECBB  F01D         	call	_dit	;wreg free
  4083  00245C  ECAA  F01D         	call	_ditspace	;wreg free
  4084  002460  EFC8  F011         	goto	l2801
  4085  002464                     l2961:
  4086                           
  4087                           ;cw.c: 143:         dit(); ditspace(); dah(); ditspace(); dit(); ditspace(); dit(); dits
      +                          pace(); dah(); ditspace(); dit(); dahspace(); break;
  4088  002464  ECBB  F01D         	call	_dit	;wreg free
  4089  002468  ECAA  F01D         	call	_ditspace	;wreg free
  4090  00246C  ECC2  F01D         	call	_dah	;wreg free
  4091  002470  ECAA  F01D         	call	_ditspace	;wreg free
  4092  002474  ECBB  F01D         	call	_dit	;wreg free
  4093  002478  ECAA  F01D         	call	_ditspace	;wreg free
  4094  00247C  ECBB  F01D         	call	_dit	;wreg free
  4095  002480  EFA6  F010         	goto	l2547
  4096  002484                     l2979:
  4097                           
  4098                           ;cw.c: 145:         dah(); ditspace(); dit(); ditspace(); dah(); ditspace(); dit(); dits
      +                          pace(); dah(); ditspace(); dit(); dahspace(); break;
  4099  002484  ECC2  F01D         	call	_dah	;wreg free
  4100  002488  ECAA  F01D         	call	_ditspace	;wreg free
  4101  00248C  ECBB  F01D         	call	_dit	;wreg free
  4102  002490  ECAA  F01D         	call	_ditspace	;wreg free
  4103  002494  ECC2  F01D         	call	_dah	;wreg free
  4104  002498  ECAA  F01D         	call	_ditspace	;wreg free
  4105  00249C  ECBB  F01D         	call	_dit	;wreg free
  4106  0024A0  ECAA  F01D         	call	_ditspace	;wreg free
  4107  0024A4  EF4A  F010         	goto	l2457
  4108  0024A8                     l2997:
  4109                           
  4110                           ;cw.c: 147:         dit(); ditspace(); dit(); ditspace(); dit(); ditspace(); dah(); dits
      +                          pace(); dit(); ditspace(); dit(); ditspace(); dah(); dahspace(); break;
  4111  0024A8  ECBB  F01D         	call	_dit	;wreg free
  4112  0024AC  ECAA  F01D         	call	_ditspace	;wreg free
  4113  0024B0  ECBB  F01D         	call	_dit	;wreg free
  4114  0024B4  ECAA  F01D         	call	_ditspace	;wreg free
  4115  0024B8  ECBB  F01D         	call	_dit	;wreg free
  4116  0024BC  ECAA  F01D         	call	_ditspace	;wreg free
  4117  0024C0  ECC2  F01D         	call	_dah	;wreg free
  4118  0024C4  ECAA  F01D         	call	_ditspace	;wreg free
  4119  0024C8  ECBB  F01D         	call	_dit	;wreg free
  4120  0024CC  EF08  F012         	goto	l2907
  4121  0024D0                     l3011:
  4122                           
  4123                           ;cw.c: 149:         dahspace(); dahspace();
  4124  0024D0  EC64  F01D         	call	_dahspace	;wreg free
  4125  0024D4  EC64  F01D         	call	_dahspace	;wreg free
  4126                           
  4127                           ;cw.c: 150:         break;
  4128  0024D8  EFB7  F013         	goto	l254
  4129  0024DC                     l3015:
  4130  0024DC  5006               	movf	cw@character^0,w,c
  4131  0024DE  6E04               	movwf	??_cw^0,c
  4132  0024E0  6A05               	clrf	(??_cw+1)^0,c
  4133                           
  4134                           ; Switch on 2 bytes has been partitioned into a top level switch of size 1, and 1 sub-sw
      +                          itches
  4135                           ; Switch size 1, requested type "simple"
  4136                           ; Number of cases is 1, Range of values is 0 to 0
  4137                           ; switch strategies available:
  4138                           ; Name         Instructions Cycles
  4139                           ; simple_byte            4     3 (average)
  4140                           ;	Chosen strategy is simple_byte
  4141  0024E2  5005               	movf	(??_cw+1)^0,w,c
  4142  0024E4  0A00               	xorlw	0	; case 0
  4143  0024E6  B4D8               	btfsc	status,2,c
  4144  0024E8  EF78  F012         	goto	l4399
  4145  0024EC  EF68  F012         	goto	l3011
  4146  0024F0                     l4399:
  4147                           
  4148                           ; Switch size 1, requested type "simple"
  4149                           ; Number of cases is 79, Range of values is 32 to 122
  4150                           ; switch strategies available:
  4151                           ; Name         Instructions Cycles
  4152                           ; simple_byte          238   120 (average)
  4153                           ;	Chosen strategy is simple_byte
  4154  0024F0  5004               	movf	??_cw^0,w,c
  4155  0024F2  0A20               	xorlw	32	; case 32
  4156  0024F4  B4D8               	btfsc	status,2,c
  4157  0024F6  EF68  F012         	goto	l3011
  4158  0024FA  0A01               	xorlw	1	; case 33
  4159  0024FC  B4D8               	btfsc	status,2,c
  4160  0024FE  EF1A  F012         	goto	l2929
  4161  002502  0A03               	xorlw	3	; case 34
  4162  002504  B4D8               	btfsc	status,2,c
  4163  002506  EF32  F012         	goto	l2961
  4164  00250A  0A06               	xorlw	6	; case 36
  4165  00250C  B4D8               	btfsc	status,2,c
  4166  00250E  EF54  F012         	goto	l2997
  4167  002512  0A02               	xorlw	2	; case 38
  4168  002514  B4D8               	btfsc	status,2,c
  4169  002516  EF2C  F012         	goto	l2943
  4170  00251A  0A01               	xorlw	1	; case 39
  4171  00251C  B4D8               	btfsc	status,2,c
  4172  00251E  EFE8  F011         	goto	l2877
  4173  002522  0A0F               	xorlw	15	; case 40
  4174  002524  B4D8               	btfsc	status,2,c
  4175  002526  EFFA  F011         	goto	l2895
  4176  00252A  0A01               	xorlw	1	; case 41
  4177  00252C  B4D8               	btfsc	status,2,c
  4178  00252E  EFFA  F011         	goto	l2895
  4179  002532  0A05               	xorlw	5	; case 44
  4180  002534  B4D8               	btfsc	status,2,c
  4181  002536  EF9E  F011         	goto	l2771
  4182  00253A  0A01               	xorlw	1	; case 45
  4183  00253C  B4D8               	btfsc	status,2,c
  4184  00253E  EFD8  F011         	goto	l2833
  4185  002542  0A03               	xorlw	3	; case 46
  4186  002544  B4D8               	btfsc	status,2,c
  4187  002546  EF8E  F011         	goto	l2751
  4188  00254A  0A01               	xorlw	1	; case 47
  4189  00254C  B4D8               	btfsc	status,2,c
  4190  00254E  EFD0  F011         	goto	l2817
  4191  002552  0A1F               	xorlw	31	; case 48
  4192  002554  B4D8               	btfsc	status,2,c
  4193  002556  EF84  F011         	goto	l2735
  4194  00255A  0A01               	xorlw	1	; case 49
  4195  00255C  B4D8               	btfsc	status,2,c
  4196  00255E  EF0A  F011         	goto	l2635
  4197  002562  0A03               	xorlw	3	; case 50
  4198  002564  B4D8               	btfsc	status,2,c
  4199  002566  EF16  F011         	goto	l2649
  4200  00256A  0A01               	xorlw	1	; case 51
  4201  00256C  B4D8               	btfsc	status,2,c
  4202  00256E  EF20  F011         	goto	l2661
  4203  002572  0A07               	xorlw	7	; case 52
  4204  002574  B4D8               	btfsc	status,2,c
  4205  002576  EF2E  F011         	goto	l2667
  4206  00257A  0A01               	xorlw	1	; case 53
  4207  00257C  B4D8               	btfsc	status,2,c
  4208  00257E  EF40  F011         	goto	l2673
  4209  002582  0A03               	xorlw	3	; case 54
  4210  002584  B4D8               	btfsc	status,2,c
  4211  002586  EF54  F011         	goto	l2677
  4212  00258A  0A01               	xorlw	1	; case 55
  4213  00258C  B4D8               	btfsc	status,2,c
  4214  00258E  EF5C  F011         	goto	l2695
  4215  002592  0A0F               	xorlw	15	; case 56
  4216  002594  B4D8               	btfsc	status,2,c
  4217  002596  EF70  F011         	goto	l2703
  4218  00259A  0A01               	xorlw	1	; case 57
  4219  00259C  B4D8               	btfsc	status,2,c
  4220  00259E  EF7A  F011         	goto	l2721
  4221  0025A2  0A03               	xorlw	3	; case 58
  4222  0025A4  B4D8               	btfsc	status,2,c
  4223  0025A6  EFC0  F011         	goto	l2795
  4224  0025AA  0A01               	xorlw	1	; case 59
  4225  0025AC  B4D8               	btfsc	status,2,c
  4226  0025AE  EF42  F012         	goto	l2979
  4227  0025B2  0A06               	xorlw	6	; case 61
  4228  0025B4  B4D8               	btfsc	status,2,c
  4229  0025B6  EFE4  F011         	goto	l2857
  4230  0025BA  0A02               	xorlw	2	; case 63
  4231  0025BC  B4D8               	btfsc	status,2,c
  4232  0025BE  EFB0  F011         	goto	l2781
  4233  0025C2  0A7E               	xorlw	126	; case 65
  4234  0025C4  B4D8               	btfsc	status,2,c
  4235  0025C6  EF0E  F010         	goto	l2409
  4236  0025CA  0A03               	xorlw	3	; case 66
  4237  0025CC  B4D8               	btfsc	status,2,c
  4238  0025CE  EF18  F010         	goto	l2415
  4239  0025D2  0A01               	xorlw	1	; case 67
  4240  0025D4  B4D8               	btfsc	status,2,c
  4241  0025D6  EF2A  F010         	goto	l2429
  4242  0025DA  0A07               	xorlw	7	; case 68
  4243  0025DC  B4D8               	btfsc	status,2,c
  4244  0025DE  EF3A  F010         	goto	l2441
  4245  0025E2  0A01               	xorlw	1	; case 69
  4246  0025E4  B4D8               	btfsc	status,2,c
  4247  0025E6  EF3E  F010         	goto	l2451
  4248  0025EA  0A03               	xorlw	3	; case 70
  4249  0025EC  B4D8               	btfsc	status,2,c
  4250  0025EE  EF42  F010         	goto	l2455
  4251  0025F2  0A01               	xorlw	1	; case 71
  4252  0025F4  B4D8               	btfsc	status,2,c
  4253  0025F6  EF50  F010         	goto	l2465
  4254  0025FA  0A0F               	xorlw	15	; case 72
  4255  0025FC  B4D8               	btfsc	status,2,c
  4256  0025FE  EF54  F010         	goto	l2473
  4257  002602  0A01               	xorlw	1	; case 73
  4258  002604  B4D8               	btfsc	status,2,c
  4259  002606  EF64  F010         	goto	l2477
  4260  00260A  0A03               	xorlw	3	; case 74
  4261  00260C  B4D8               	btfsc	status,2,c
  4262  00260E  EF6C  F010         	goto	l2481
  4263  002612  0A01               	xorlw	1	; case 75
  4264  002614  B4D8               	btfsc	status,2,c
  4265  002616  EF7A  F010         	goto	l2493
  4266  00261A  0A07               	xorlw	7	; case 76
  4267  00261C  B4D8               	btfsc	status,2,c
  4268  00261E  EF82  F010         	goto	l2505
  4269  002622  0A01               	xorlw	1	; case 77
  4270  002624  B4D8               	btfsc	status,2,c
  4271  002626  EF8E  F010         	goto	l2519
  4272  00262A  0A03               	xorlw	3	; case 78
  4273  00262C  B4D8               	btfsc	status,2,c
  4274  00262E  EF92  F010         	goto	l2527
  4275  002632  0A01               	xorlw	1	; case 79
  4276  002634  B4D8               	btfsc	status,2,c
  4277  002636  EF96  F010         	goto	l2533
  4278  00263A  0A1F               	xorlw	31	; case 80
  4279  00263C  B4D8               	btfsc	status,2,c
  4280  00263E  EFA0  F010         	goto	l2543
  4281  002642  0A01               	xorlw	1	; case 81
  4282  002644  B4D8               	btfsc	status,2,c
  4283  002646  EF96  F010         	goto	l2533
  4284  00264A  0A03               	xorlw	3	; case 82
  4285  00264C  B4D8               	btfsc	status,2,c
  4286  00264E  EFAC  F010         	goto	l2563
  4287  002652  0A01               	xorlw	1	; case 83
  4288  002654  B4D8               	btfsc	status,2,c
  4289  002656  EFB2  F010         	goto	l2573
  4290  00265A  0A07               	xorlw	7	; case 84
  4291  00265C  B4D8               	btfsc	status,2,c
  4292  00265E  EFBE  F010         	goto	l2577
  4293  002662  0A01               	xorlw	1	; case 85
  4294  002664  B4D8               	btfsc	status,2,c
  4295  002666  EFC4  F010         	goto	l2579
  4296  00266A  0A03               	xorlw	3	; case 86
  4297  00266C  B4D8               	btfsc	status,2,c
  4298  00266E  EFCE  F010         	goto	l2585
  4299  002672  0A01               	xorlw	1	; case 87
  4300  002674  B4D8               	btfsc	status,2,c
  4301  002676  EFDC  F010         	goto	l2591
  4302  00267A  0A0F               	xorlw	15	; case 88
  4303  00267C  B4D8               	btfsc	status,2,c
  4304  00267E  EFEA  F010         	goto	l2597
  4305  002682  0A01               	xorlw	1	; case 89
  4306  002684  B4D8               	btfsc	status,2,c
  4307  002686  EFF2  F010         	goto	l2613
  4308  00268A  0A03               	xorlw	3	; case 90
  4309  00268C  B4D8               	btfsc	status,2,c
  4310  00268E  EFFA  F010         	goto	l2627
  4311  002692  0A05               	xorlw	5	; case 95
  4312  002694  B4D8               	btfsc	status,2,c
  4313  002696  EF0E  F012         	goto	l2913
  4314  00269A  0A3E               	xorlw	62	; case 97
  4315  00269C  B4D8               	btfsc	status,2,c
  4316  00269E  EF0E  F010         	goto	l2409
  4317  0026A2  0A03               	xorlw	3	; case 98
  4318  0026A4  B4D8               	btfsc	status,2,c
  4319  0026A6  EF18  F010         	goto	l2415
  4320  0026AA  0A01               	xorlw	1	; case 99
  4321  0026AC  B4D8               	btfsc	status,2,c
  4322  0026AE  EF2A  F010         	goto	l2429
  4323  0026B2  0A07               	xorlw	7	; case 100
  4324  0026B4  B4D8               	btfsc	status,2,c
  4325  0026B6  EF3A  F010         	goto	l2441
  4326  0026BA  0A01               	xorlw	1	; case 101
  4327  0026BC  B4D8               	btfsc	status,2,c
  4328  0026BE  EF3E  F010         	goto	l2451
  4329  0026C2  0A03               	xorlw	3	; case 102
  4330  0026C4  B4D8               	btfsc	status,2,c
  4331  0026C6  EF42  F010         	goto	l2455
  4332  0026CA  0A01               	xorlw	1	; case 103
  4333  0026CC  B4D8               	btfsc	status,2,c
  4334  0026CE  EF50  F010         	goto	l2465
  4335  0026D2  0A0F               	xorlw	15	; case 104
  4336  0026D4  B4D8               	btfsc	status,2,c
  4337  0026D6  EF54  F010         	goto	l2473
  4338  0026DA  0A01               	xorlw	1	; case 105
  4339  0026DC  B4D8               	btfsc	status,2,c
  4340  0026DE  EF64  F010         	goto	l2477
  4341  0026E2  0A03               	xorlw	3	; case 106
  4342  0026E4  B4D8               	btfsc	status,2,c
  4343  0026E6  EF6C  F010         	goto	l2481
  4344  0026EA  0A01               	xorlw	1	; case 107
  4345  0026EC  B4D8               	btfsc	status,2,c
  4346  0026EE  EF7A  F010         	goto	l2493
  4347  0026F2  0A07               	xorlw	7	; case 108
  4348  0026F4  B4D8               	btfsc	status,2,c
  4349  0026F6  EF82  F010         	goto	l2505
  4350  0026FA  0A01               	xorlw	1	; case 109
  4351  0026FC  B4D8               	btfsc	status,2,c
  4352  0026FE  EF8E  F010         	goto	l2519
  4353  002702  0A03               	xorlw	3	; case 110
  4354  002704  B4D8               	btfsc	status,2,c
  4355  002706  EF92  F010         	goto	l2527
  4356  00270A  0A01               	xorlw	1	; case 111
  4357  00270C  B4D8               	btfsc	status,2,c
  4358  00270E  EF96  F010         	goto	l2533
  4359  002712  0A1F               	xorlw	31	; case 112
  4360  002714  B4D8               	btfsc	status,2,c
  4361  002716  EFA0  F010         	goto	l2543
  4362  00271A  0A01               	xorlw	1	; case 113
  4363  00271C  B4D8               	btfsc	status,2,c
  4364  00271E  EF96  F010         	goto	l2533
  4365  002722  0A03               	xorlw	3	; case 114
  4366  002724  B4D8               	btfsc	status,2,c
  4367  002726  EFAC  F010         	goto	l2563
  4368  00272A  0A01               	xorlw	1	; case 115
  4369  00272C  B4D8               	btfsc	status,2,c
  4370  00272E  EFB2  F010         	goto	l2573
  4371  002732  0A07               	xorlw	7	; case 116
  4372  002734  B4D8               	btfsc	status,2,c
  4373  002736  EFBE  F010         	goto	l2577
  4374  00273A  0A01               	xorlw	1	; case 117
  4375  00273C  B4D8               	btfsc	status,2,c
  4376  00273E  EFC4  F010         	goto	l2579
  4377  002742  0A03               	xorlw	3	; case 118
  4378  002744  B4D8               	btfsc	status,2,c
  4379  002746  EFCE  F010         	goto	l2585
  4380  00274A  0A01               	xorlw	1	; case 119
  4381  00274C  B4D8               	btfsc	status,2,c
  4382  00274E  EFDC  F010         	goto	l2591
  4383  002752  0A0F               	xorlw	15	; case 120
  4384  002754  B4D8               	btfsc	status,2,c
  4385  002756  EFEA  F010         	goto	l2597
  4386  00275A  0A01               	xorlw	1	; case 121
  4387  00275C  B4D8               	btfsc	status,2,c
  4388  00275E  EFF2  F010         	goto	l2613
  4389  002762  0A03               	xorlw	3	; case 122
  4390  002764  B4D8               	btfsc	status,2,c
  4391  002766  EFFA  F010         	goto	l2627
  4392  00276A  EF68  F012         	goto	l3011
  4393  00276E                     l254:
  4394  00276E  0012               	return		;funcret
  4395  002770                     __end_of_cw:
  4396                           	callstack 0
  4397                           
  4398 ;; *************** function _dit *****************
  4399 ;; Defined at:
  4400 ;;		line 164 in file "cw.c"
  4401 ;; Parameters:    Size  Location     Type
  4402 ;;		None
  4403 ;; Auto vars:     Size  Location     Type
  4404 ;;		None
  4405 ;; Return value:  Size  Location     Type
  4406 ;;                  1    wreg      void 
  4407 ;; Registers used:
  4408 ;;		cstack
  4409 ;; Tracked objects:
  4410 ;;		On entry : 0/0
  4411 ;;		On exit  : 0/0
  4412 ;;		Unchanged: 0/0
  4413 ;; Data sizes:     COMRAM   BANK0   BANK1   BANK2   BANK3   BANK4   BANK5   BANK6   BANK7   BANK8   BANK9  BANK10  BANK1
      +1  BANK12  BANK13  BANK14  BANK15  BANK16  BANK17  BANK18  BANK19  BANK20  BANK21  BANK22  BANK23  BANK24  BANK25  BANK2
      +6  BANK27  BANK28  BANK29  BANK30  BANK31
  4414 ;;      Params:         0       0       0       0       0       0       0       0       0       0       0       0       
      +0       0       0       0       0       0       0       0       0       0       0       0       0       0       0       
      +0       0       0       0       0       0
  4415 ;;      Locals:         0       0       0       0       0       0       0       0       0       0       0       0       
      +0       0       0       0       0       0       0       0       0       0       0       0       0       0       0       
      +0       0       0       0       0       0
  4416 ;;      Temps:          0       0       0       0       0       0       0       0       0       0       0       0       
      +0       0       0       0       0       0       0       0       0       0       0       0       0       0       0       
      +0       0       0       0       0       0
  4417 ;;      Totals:         0       0       0       0       0       0       0       0       0       0       0       0       
      +0       0       0       0       0       0       0       0       0       0       0       0       0       0       0       
      +0       0       0       0       0       0
  4418 ;;Total ram usage:        0 bytes
  4419 ;; Hardware stack levels used: 1
  4420 ;; Hardware stack levels required when called: 3
  4421 ;; This function calls:
  4422 ;;		_ditspace
  4423 ;; This function is called by:
  4424 ;;		_cw
  4425 ;; This function uses a non-reentrant model
  4426 ;;
  4427                           
  4428                           	psect	text17
  4429  003B76                     __ptext17:
  4430                           	callstack 0
  4431  003B76                     _dit:
  4432                           	callstack 24
  4433  003B76                     
  4434                           ;cw.c: 165:     MD1CON0bits.BIT = 1;
  4435  003B76  013C               	movlb	60	; () banked
  4436  003B78  81FA               	bsf	250,0,b	;volatile
  4437  003B7A                     
  4438                           ; BSR set to: 60
  4439                           ;cw.c: 166:     ditspace();
  4440  003B7A  ECAA  F01D         	call	_ditspace	;wreg free
  4441  003B7E                     
  4442                           ;cw.c: 167:     MD1CON0bits.BIT = 0;
  4443  003B7E  013C               	movlb	60	; () banked
  4444  003B80  91FA               	bcf	250,0,b	;volatile
  4445  003B82                     
  4446                           ; BSR set to: 60
  4447  003B82  0012               	return		;funcret
  4448  003B84                     __end_of_dit:
  4449                           	callstack 0
  4450                           
  4451 ;; *************** function _dah *****************
  4452 ;; Defined at:
  4453 ;;		line 158 in file "cw.c"
  4454 ;; Parameters:    Size  Location     Type
  4455 ;;		None
  4456 ;; Auto vars:     Size  Location     Type
  4457 ;;		None
  4458 ;; Return value:  Size  Location     Type
  4459 ;;                  1    wreg      void 
  4460 ;; Registers used:
  4461 ;;		wreg, status,2, status,0, cstack
  4462 ;; Tracked objects:
  4463 ;;		On entry : 0/0
  4464 ;;		On exit  : 0/0
  4465 ;;		Unchanged: 0/0
  4466 ;; Data sizes:     COMRAM   BANK0   BANK1   BANK2   BANK3   BANK4   BANK5   BANK6   BANK7   BANK8   BANK9  BANK10  BANK1
      +1  BANK12  BANK13  BANK14  BANK15  BANK16  BANK17  BANK18  BANK19  BANK20  BANK21  BANK22  BANK23  BANK24  BANK25  BANK2
      +6  BANK27  BANK28  BANK29  BANK30  BANK31
  4467 ;;      Params:         0       0       0       0       0       0       0       0       0       0       0       0       
      +0       0       0       0       0       0       0       0       0       0       0       0       0       0       0       
      +0       0       0       0       0       0
  4468 ;;      Locals:         0       0       0       0       0       0       0       0       0       0       0       0       
      +0       0       0       0       0       0       0       0       0       0       0       0       0       0       0       
      +0       0       0       0       0       0
  4469 ;;      Temps:          0       0       0       0       0       0       0       0       0       0       0       0       
      +0       0       0       0       0       0       0       0       0       0       0       0       0       0       0       
      +0       0       0       0       0       0
  4470 ;;      Totals:         0       0       0       0       0       0       0       0       0       0       0       0       
      +0       0       0       0       0       0       0       0       0       0       0       0       0       0       0       
      +0       0       0       0       0       0
  4471 ;;Total ram usage:        0 bytes
  4472 ;; Hardware stack levels used: 1
  4473 ;; Hardware stack levels required when called: 4
  4474 ;; This function calls:
  4475 ;;		_dahspace
  4476 ;; This function is called by:
  4477 ;;		_cw
  4478 ;; This function uses a non-reentrant model
  4479 ;;
  4480                           
  4481                           	psect	text18
  4482  003B84                     __ptext18:
  4483                           	callstack 0
  4484  003B84                     _dah:
  4485                           	callstack 23
  4486  003B84                     
  4487                           ;cw.c: 159:     MD1CON0bits.BIT = 1;
  4488  003B84  013C               	movlb	60	; () banked
  4489  003B86  81FA               	bsf	250,0,b	;volatile
  4490  003B88                     
  4491                           ; BSR set to: 60
  4492                           ;cw.c: 160:     dahspace();
  4493  003B88  EC64  F01D         	call	_dahspace	;wreg free
  4494  003B8C                     
  4495                           ;cw.c: 161:     MD1CON0bits.BIT = 0;
  4496  003B8C  013C               	movlb	60	; () banked
  4497  003B8E  91FA               	bcf	250,0,b	;volatile
  4498  003B90                     
  4499                           ; BSR set to: 60
  4500  003B90  0012               	return		;funcret
  4501  003B92                     __end_of_dah:
  4502                           	callstack 0
  4503                           
  4504 ;; *************** function _dahspace *****************
  4505 ;; Defined at:
  4506 ;;		line 175 in file "cw.c"
  4507 ;; Parameters:    Size  Location     Type
  4508 ;;		None
  4509 ;; Auto vars:     Size  Location     Type
  4510 ;;  i               2    1[COMRAM] int 
  4511 ;; Return value:  Size  Location     Type
  4512 ;;                  1    wreg      void 
  4513 ;; Registers used:
  4514 ;;		wreg, status,2, status,0, cstack
  4515 ;; Tracked objects:
  4516 ;;		On entry : 0/0
  4517 ;;		On exit  : 0/0
  4518 ;;		Unchanged: 0/0
  4519 ;; Data sizes:     COMRAM   BANK0   BANK1   BANK2   BANK3   BANK4   BANK5   BANK6   BANK7   BANK8   BANK9  BANK10  BANK1
      +1  BANK12  BANK13  BANK14  BANK15  BANK16  BANK17  BANK18  BANK19  BANK20  BANK21  BANK22  BANK23  BANK24  BANK25  BANK2
      +6  BANK27  BANK28  BANK29  BANK30  BANK31
  4520 ;;      Params:         0       0       0       0       0       0       0       0       0       0       0       0       
      +0       0       0       0       0       0       0       0       0       0       0       0       0       0       0       
      +0       0       0       0       0       0
  4521 ;;      Locals:         2       0       0       0       0       0       0       0       0       0       0       0       
      +0       0       0       0       0       0       0       0       0       0       0       0       0       0       0       
      +0       0       0       0       0       0
  4522 ;;      Temps:          0       0       0       0       0       0       0       0       0       0       0       0       
      +0       0       0       0       0       0       0       0       0       0       0       0       0       0       0       
      +0       0       0       0       0       0
  4523 ;;      Totals:         2       0       0       0       0       0       0       0       0       0       0       0       
      +0       0       0       0       0       0       0       0       0       0       0       0       0       0       0       
      +0       0       0       0       0       0
  4524 ;;Total ram usage:        2 bytes
  4525 ;; Hardware stack levels used: 1
  4526 ;; Hardware stack levels required when called: 3
  4527 ;; This function calls:
  4528 ;;		_ditspace
  4529 ;; This function is called by:
  4530 ;;		_cw_message
  4531 ;;		_cw
  4532 ;;		_dah
  4533 ;; This function uses a non-reentrant model
  4534 ;;
  4535                           
  4536                           	psect	text19
  4537  003AC8                     __ptext19:
  4538                           	callstack 0
  4539  003AC8                     _dahspace:
  4540                           	callstack 25
  4541  003AC8                     
  4542                           ;cw.c: 176:     for (int i = 0; i < 3; i++) {
  4543  003AC8  0E00               	movlw	0
  4544  003ACA  6E03               	movwf	(dahspace@i+1)^0,c
  4545  003ACC  0E00               	movlw	0
  4546  003ACE  6E02               	movwf	dahspace@i^0,c
  4547  003AD0                     l2385:
  4548                           
  4549                           ;cw.c: 177:         ditspace();
  4550  003AD0  ECAA  F01D         	call	_ditspace	;wreg free
  4551  003AD4                     
  4552                           ;cw.c: 178:     }
  4553  003AD4  4A02               	infsnz	dahspace@i^0,f,c
  4554  003AD6  2A03               	incf	(dahspace@i+1)^0,f,c
  4555  003AD8  BE03               	btfsc	(dahspace@i+1)^0,7,c
  4556  003ADA  EF78  F01D         	goto	u1141
  4557  003ADE  5003               	movf	(dahspace@i+1)^0,w,c
  4558  003AE0  E109               	bnz	u1140
  4559  003AE2  0E03               	movlw	3
  4560  003AE4  5C02               	subwf	dahspace@i^0,w,c
  4561  003AE6  A0D8               	btfss	status,0,c
  4562  003AE8  EF78  F01D         	goto	u1141
  4563  003AEC  EF7A  F01D         	goto	u1140
  4564  003AF0                     u1141:
  4565  003AF0  EF68  F01D         	goto	l2385
  4566  003AF4                     u1140:
  4567  003AF4  0012               	return		;funcret
  4568  003AF6                     __end_of_dahspace:
  4569                           	callstack 0
  4570                           
  4571 ;; *************** function _ditspace *****************
  4572 ;; Defined at:
  4573 ;;		line 170 in file "cw.c"
  4574 ;; Parameters:    Size  Location     Type
  4575 ;;		None
  4576 ;; Auto vars:     Size  Location     Type
  4577 ;;		None
  4578 ;; Return value:  Size  Location     Type
  4579 ;;                  1    wreg      void 
  4580 ;; Registers used:
  4581 ;;		None
  4582 ;; Tracked objects:
  4583 ;;		On entry : 0/0
  4584 ;;		On exit  : 0/0
  4585 ;;		Unchanged: 0/0
  4586 ;; Data sizes:     COMRAM   BANK0   BANK1   BANK2   BANK3   BANK4   BANK5   BANK6   BANK7   BANK8   BANK9  BANK10  BANK1
      +1  BANK12  BANK13  BANK14  BANK15  BANK16  BANK17  BANK18  BANK19  BANK20  BANK21  BANK22  BANK23  BANK24  BANK25  BANK2
      +6  BANK27  BANK28  BANK29  BANK30  BANK31
  4587 ;;      Params:         0       0       0       0       0       0       0       0       0       0       0       0       
      +0       0       0       0       0       0       0       0       0       0       0       0       0       0       0       
      +0       0       0       0       0       0
  4588 ;;      Locals:         0       0       0       0       0       0       0       0       0       0       0       0       
      +0       0       0       0       0       0       0       0       0       0       0       0       0       0       0       
      +0       0       0       0       0       0
  4589 ;;      Temps:          0       0       0       0       0       0       0       0       0       0       0       0       
      +0       0       0       0       0       0       0       0       0       0       0       0       0       0       0       
      +0       0       0       0       0       0
  4590 ;;      Totals:         0       0       0       0       0       0       0       0       0       0       0       0       
      +0       0       0       0       0       0       0       0       0       0       0       0       0       0       0       
      +0       0       0       0       0       0
  4591 ;;Total ram usage:        0 bytes
  4592 ;; Hardware stack levels used: 1
  4593 ;; Hardware stack levels required when called: 2
  4594 ;; This function calls:
  4595 ;;		Nothing
  4596 ;; This function is called by:
  4597 ;;		_cw
  4598 ;;		_dit
  4599 ;;		_dahspace
  4600 ;; This function uses a non-reentrant model
  4601 ;;
  4602                           
  4603                           	psect	text20
  4604  003B54                     __ptext20:
  4605                           	callstack 0
  4606  003B54                     _ditspace:
  4607                           	callstack 25
  4608  003B54                     
  4609                           ;cw.c: 171:     T4CONbits.ON = 1;
  4610  003B54  8EA0               	bsf	160,7,c	;volatile
  4611  003B56                     l263:
  4612  003B56  BEA0               	btfsc	160,7,c	;volatile
  4613  003B58  EFB0  F01D         	goto	u1131
  4614  003B5C  EFB2  F01D         	goto	u1130
  4615  003B60                     u1131:
  4616  003B60  EFAB  F01D         	goto	l263
  4617  003B64                     u1130:
  4618  003B64  0012               	return		;funcret
  4619  003B66                     __end_of_ditspace:
  4620                           	callstack 0
  4621                           
  4622 ;; *************** function _configure_timer *****************
  4623 ;; Defined at:
  4624 ;;		line 80 in file "main.c"
  4625 ;; Parameters:    Size  Location     Type
  4626 ;;		None
  4627 ;; Auto vars:     Size  Location     Type
  4628 ;;		None
  4629 ;; Return value:  Size  Location     Type
  4630 ;;                  1    wreg      void 
  4631 ;; Registers used:
  4632 ;;		wreg, status,2
  4633 ;; Tracked objects:
  4634 ;;		On entry : 0/0
  4635 ;;		On exit  : 0/0
  4636 ;;		Unchanged: 0/0
  4637 ;; Data sizes:     COMRAM   BANK0   BANK1   BANK2   BANK3   BANK4   BANK5   BANK6   BANK7   BANK8   BANK9  BANK10  BANK1
      +1  BANK12  BANK13  BANK14  BANK15  BANK16  BANK17  BANK18  BANK19  BANK20  BANK21  BANK22  BANK23  BANK24  BANK25  BANK2
      +6  BANK27  BANK28  BANK29  BANK30  BANK31
  4638 ;;      Params:         0       0       0       0       0       0       0       0       0       0       0       0       
      +0       0       0       0       0       0       0       0       0       0       0       0       0       0       0       
      +0       0       0       0       0       0
  4639 ;;      Locals:         0       0       0       0       0       0       0       0       0       0       0       0       
      +0       0       0       0       0       0       0       0       0       0       0       0       0       0       0       
      +0       0       0       0       0       0
  4640 ;;      Temps:          0       0       0       0       0       0       0       0       0       0       0       0       
      +0       0       0       0       0       0       0       0       0       0       0       0       0       0       0       
      +0       0       0       0       0       0
  4641 ;;      Totals:         0       0       0       0       0       0       0       0       0       0       0       0       
      +0       0       0       0       0       0       0       0       0       0       0       0       0       0       0       
      +0       0       0       0       0       0
  4642 ;;Total ram usage:        0 bytes
  4643 ;; Hardware stack levels used: 1
  4644 ;; Hardware stack levels required when called: 2
  4645 ;; This function calls:
  4646 ;;		Nothing
  4647 ;; This function is called by:
  4648 ;;		_main
  4649 ;; This function uses a non-reentrant model
  4650 ;;
  4651                           
  4652                           	psect	text21
  4653  003BAA                     __ptext21:
  4654                           	callstack 0
  4655  003BAA                     _configure_timer:
  4656                           	callstack 28
  4657  003BAA                     
  4658                           ;main.c: 81:     T1CONbits.CKPS = 0b11;
  4659  003BAA  0E30               	movlw	48
  4660  003BAC  12B2               	iorwf	178,f,c	;volatile
  4661                           
  4662                           ;main.c: 82:     T1CLKbits.CS = 0b0001;
  4663  003BAE  0E01               	movlw	1
  4664  003BB0  6EB5               	movwf	181,c	;volatile
  4665  003BB2                     
  4666                           ;main.c: 83:     T1GCONbits.GE = 0;
  4667  003BB2  9EB3               	bcf	179,7,c	;volatile
  4668  003BB4  0012               	return		;funcret
  4669  003BB6                     __end_of_configure_timer:
  4670                           	callstack 0
  4671                           
  4672 ;; *************** function _DEFAULT_ISR *****************
  4673 ;; Defined at:
  4674 ;;		line 129 in file "main.c"
  4675 ;; Parameters:    Size  Location     Type
  4676 ;;		None
  4677 ;; Auto vars:     Size  Location     Type
  4678 ;;		None
  4679 ;; Return value:  Size  Location     Type
  4680 ;;                  1    wreg      void 
  4681 ;; Registers used:
  4682 ;;		wreg, status,2, status,0
  4683 ;; Tracked objects:
  4684 ;;		On entry : 0/0
  4685 ;;		On exit  : 0/0
  4686 ;;		Unchanged: 0/0
  4687 ;; Data sizes:     COMRAM   BANK0   BANK1   BANK2   BANK3   BANK4   BANK5   BANK6   BANK7   BANK8   BANK9  BANK10  BANK1
      +1  BANK12  BANK13  BANK14  BANK15  BANK16  BANK17  BANK18  BANK19  BANK20  BANK21  BANK22  BANK23  BANK24  BANK25  BANK2
      +6  BANK27  BANK28  BANK29  BANK30  BANK31
  4688 ;;      Params:         0       0       0       0       0       0       0       0       0       0       0       0       
      +0       0       0       0       0       0       0       0       0       0       0       0       0       0       0       
      +0       0       0       0       0       0
  4689 ;;      Locals:         0       0       0       0       0       0       0       0       0       0       0       0       
      +0       0       0       0       0       0       0       0       0       0       0       0       0       0       0       
      +0       0       0       0       0       0
  4690 ;;      Temps:          1       0       0       0       0       0       0       0       0       0       0       0       
      +0       0       0       0       0       0       0       0       0       0       0       0       0       0       0       
      +0       0       0       0       0       0
  4691 ;;      Totals:         1       0       0       0       0       0       0       0       0       0       0       0       
      +0       0       0       0       0       0       0       0       0       0       0       0       0       0       0       
      +0       0       0       0       0       0
  4692 ;;Total ram usage:        1 bytes
  4693 ;; Hardware stack levels used: 1
  4694 ;; Hardware stack levels required when called: 1
  4695 ;; This function calls:
  4696 ;;		Nothing
  4697 ;; This function is called by:
  4698 ;;		Interrupt level 1
  4699 ;; This function uses a non-reentrant model
  4700 ;;
  4701                           
  4702                           	psect	text22
  4703  003A90                     __ptext22:
  4704                           	callstack 0
  4705  003A90                     _DEFAULT_ISR:
  4706                           	callstack 23
  4707                           
  4708                           ;incstack = 0
  4709  003A90  006F FF60  F001    	movff	status,??_DEFAULT_ISR
  4710  003A96                     
  4711                           ;main.c: 133:     PIR1 = 0;
  4712  003A96  0E00               	movlw	0
  4713  003A98  0139               	movlb	57	; () banked
  4714  003A9A  6FA1               	movwf	161,b	;volatile
  4715                           
  4716                           ;main.c: 134:     PIR2 = 0;
  4717  003A9C  0E00               	movlw	0
  4718  003A9E  6FA2               	movwf	162,b	;volatile
  4719                           
  4720                           ;main.c: 135:     PIR3 = 0;
  4721  003AA0  0E00               	movlw	0
  4722  003AA2  6FA3               	movwf	163,b	;volatile
  4723  003AA4                     
  4724                           ; BSR set to: 57
  4725                           ;main.c: 136:     PIR4 &= ~(0b11111110);
  4726  003AA4  0E01               	movlw	1
  4727  003AA6  17A4               	andwf	164,f,b	;volatile
  4728  003AA8                     
  4729                           ; BSR set to: 57
  4730                           ;main.c: 137:     PIR5 = 0;
  4731  003AA8  0E00               	movlw	0
  4732  003AAA  6FA5               	movwf	165,b	;volatile
  4733  003AAC                     
  4734                           ; BSR set to: 57
  4735                           ;main.c: 138:     PIR6 = 0;
  4736  003AAC  0E00               	movlw	0
  4737  003AAE  6FA6               	movwf	166,b	;volatile
  4738  003AB0                     
  4739                           ; BSR set to: 57
  4740                           ;main.c: 139:     PIR7 = 0;
  4741  003AB0  0E00               	movlw	0
  4742  003AB2  6FA7               	movwf	167,b	;volatile
  4743  003AB4                     
  4744                           ; BSR set to: 57
  4745                           ;main.c: 140:     PIR8 = 0;
  4746  003AB4  0E00               	movlw	0
  4747  003AB6  6FA8               	movwf	168,b	;volatile
  4748  003AB8                     
  4749                           ; BSR set to: 57
  4750                           ;main.c: 141:     PIR9 = 0;
  4751  003AB8  0E00               	movlw	0
  4752  003ABA  6FA9               	movwf	169,b	;volatile
  4753  003ABC                     
  4754                           ; BSR set to: 57
  4755                           ;main.c: 142:     PIR10 = 0;
  4756  003ABC  0E00               	movlw	0
  4757  003ABE  6FAA               	movwf	170,b	;volatile
  4758  003AC0                     
  4759                           ; BSR set to: 57
  4760  003AC0  0060  F007  FFD8   	movff	??_DEFAULT_ISR,status
  4761  003AC6  0011               	retfie		f
  4762  003AC8                     __end_of_DEFAULT_ISR:
  4763                           	callstack 0
  4764                           
  4765 ;; *************** function _TMR1_ISR *****************
  4766 ;; Defined at:
  4767 ;;		line 122 in file "main.c"
  4768 ;; Parameters:    Size  Location     Type
  4769 ;;		None
  4770 ;; Auto vars:     Size  Location     Type
  4771 ;;		None
  4772 ;; Return value:  Size  Location     Type
  4773 ;;                  1    wreg      void 
  4774 ;; Registers used:
  4775 ;;		wreg, status,2
  4776 ;; Tracked objects:
  4777 ;;		On entry : 0/0
  4778 ;;		On exit  : 0/0
  4779 ;;		Unchanged: 0/0
  4780 ;; Data sizes:     COMRAM   BANK0   BANK1   BANK2   BANK3   BANK4   BANK5   BANK6   BANK7   BANK8   BANK9  BANK10  BANK1
      +1  BANK12  BANK13  BANK14  BANK15  BANK16  BANK17  BANK18  BANK19  BANK20  BANK21  BANK22  BANK23  BANK24  BANK25  BANK2
      +6  BANK27  BANK28  BANK29  BANK30  BANK31
  4781 ;;      Params:         0       0       0       0       0       0       0       0       0       0       0       0       
      +0       0       0       0       0       0       0       0       0       0       0       0       0       0       0       
      +0       0       0       0       0       0
  4782 ;;      Locals:         0       0       0       0       0       0       0       0       0       0       0       0       
      +0       0       0       0       0       0       0       0       0       0       0       0       0       0       0       
      +0       0       0       0       0       0
  4783 ;;      Temps:          0       0       0       0       0       0       0       0       0       0       0       0       
      +0       0       0       0       0       0       0       0       0       0       0       0       0       0       0       
      +0       0       0       0       0       0
  4784 ;;      Totals:         0       0       0       0       0       0       0       0       0       0       0       0       
      +0       0       0       0       0       0       0       0       0       0       0       0       0       0       0       
      +0       0       0       0       0       0
  4785 ;;Total ram usage:        0 bytes
  4786 ;; Hardware stack levels used: 1
  4787 ;; This function calls:
  4788 ;;		Nothing
  4789 ;; This function is called by:
  4790 ;;		Interrupt level 2
  4791 ;; This function uses a non-reentrant model
  4792 ;;
  4793                           
  4794                           	psect	text23
  4795  003AF8                     __ptext23:
  4796                           	callstack 0
  4797  003AF8                     _TMR1_ISR:
  4798                           	callstack 23
  4799  003AF8                     
  4800                           ;main.c: 123:     TMR1IF = 0;
  4801  003AF8  0139               	movlb	57	; () banked
  4802  003AFA  91A4               	bcf	164,0,b	;volatile
  4803  003AFC                     
  4804                           ; BSR set to: 57
  4805                           ;main.c: 124:     transmit_change = 1;
  4806  003AFC  0E01               	movlw	1
  4807  003AFE  0100               	movlb	0	; () banked
  4808  003B00  6F69               	movwf	_transmit_change& (0+255),b
  4809                           
  4810                           ;main.c: 125:     transmit = !transmit;
  4811  003B02  5059               	movf	_transmit^0,w,c
  4812  003B04  B4D8               	btfsc	status,2,c
  4813  003B06  EF87  F01D         	goto	i2u223_41
  4814  003B0A  EF8A  F01D         	goto	i2u223_40
  4815  003B0E                     i2u223_41:
  4816  003B0E  0E01               	movlw	1
  4817  003B10  EF8B  F01D         	goto	i2u224_40
  4818  003B14                     i2u223_40:
  4819  003B14  0E00               	movlw	0
  4820  003B16                     i2u224_40:
  4821  003B16  6E59               	movwf	_transmit^0,c
  4822  003B18                     
  4823                           ; BSR set to: 0
  4824  003B18  0011               	retfie		f
  4825  003B1A                     __end_of_TMR1_ISR:
  4826                           	callstack 0
  4827                           
  4828                           ;
  4829                           ; Interrupt Vector Table @ 0x8
  4830                           ;
  4831                           
  4832                           	psect	ivt0x8
  4833  000008                     __pivt0x8:
  4834                           	callstack 0
  4835  000008                     ivt0x8_base:
  4836                           	callstack 0
  4837                           
  4838                           ; Vector 0 : SWINT
  4839  000008  0EA4               	dw	_DEFAULT_ISR shr (0+2)
  4840                           
  4841                           ; Vector 1 : HLVD
  4842  00000A  0EA4               	dw	_DEFAULT_ISR shr (0+2)
  4843                           
  4844                           ; Vector 2 : OSF
  4845  00000C  0EA4               	dw	_DEFAULT_ISR shr (0+2)
  4846                           
  4847                           ; Vector 3 : CSW
  4848  00000E  0EA4               	dw	_DEFAULT_ISR shr (0+2)
  4849                           
  4850                           ; Vector 4 : NVM
  4851  000010  0EA4               	dw	_DEFAULT_ISR shr (0+2)
  4852                           
  4853                           ; Vector 5 : SCAN
  4854  000012  0EA4               	dw	_DEFAULT_ISR shr (0+2)
  4855                           
  4856                           ; Vector 6 : CRC
  4857  000014  0EA4               	dw	_DEFAULT_ISR shr (0+2)
  4858                           
  4859                           ; Vector 7 : IOC
  4860  000016  0EA4               	dw	_DEFAULT_ISR shr (0+2)
  4861                           
  4862                           ; Vector 8 : INT0
  4863  000018  0EA4               	dw	_DEFAULT_ISR shr (0+2)
  4864                           
  4865                           ; Vector 9 : ZCD
  4866  00001A  0EA4               	dw	_DEFAULT_ISR shr (0+2)
  4867                           
  4868                           ; Vector 10 : AD
  4869  00001C  0EA4               	dw	_DEFAULT_ISR shr (0+2)
  4870                           
  4871                           ; Vector 11 : ADT
  4872  00001E  0EA4               	dw	_DEFAULT_ISR shr (0+2)
  4873                           
  4874                           ; Vector 12 : CMP1
  4875  000020  0EA4               	dw	_DEFAULT_ISR shr (0+2)
  4876                           
  4877                           ; Vector 13 : SMT1
  4878  000022  0EA4               	dw	_DEFAULT_ISR shr (0+2)
  4879                           
  4880                           ; Vector 14 : SMT1PRA
  4881  000024  0EA4               	dw	_DEFAULT_ISR shr (0+2)
  4882                           
  4883                           ; Vector 15 : SMT1PRW
  4884  000026  0EA4               	dw	_DEFAULT_ISR shr (0+2)
  4885                           
  4886                           ; Vector 16 : DMA1SCNT
  4887  000028  0EA4               	dw	_DEFAULT_ISR shr (0+2)
  4888                           
  4889                           ; Vector 17 : DMA1DCNT
  4890  00002A  0EA4               	dw	_DEFAULT_ISR shr (0+2)
  4891                           
  4892                           ; Vector 18 : DMA1OR
  4893  00002C  0EA4               	dw	_DEFAULT_ISR shr (0+2)
  4894                           
  4895                           ; Vector 19 : DMA1A
  4896  00002E  0EA4               	dw	_DEFAULT_ISR shr (0+2)
  4897                           
  4898                           ; Vector 20 : SPI1RX
  4899  000030  0EA4               	dw	_DEFAULT_ISR shr (0+2)
  4900                           
  4901                           ; Vector 21 : SPI1TX
  4902  000032  0EA4               	dw	_DEFAULT_ISR shr (0+2)
  4903                           
  4904                           ; Vector 22 : SPI1
  4905  000034  0EA4               	dw	_DEFAULT_ISR shr (0+2)
  4906                           
  4907                           ; Vector 23 : I2C1RX
  4908  000036  0EA4               	dw	_DEFAULT_ISR shr (0+2)
  4909                           
  4910                           ; Vector 24 : I2C1TX
  4911  000038  0EA4               	dw	_DEFAULT_ISR shr (0+2)
  4912                           
  4913                           ; Vector 25 : I2C1
  4914  00003A  0EA4               	dw	_DEFAULT_ISR shr (0+2)
  4915                           
  4916                           ; Vector 26 : I2C1E
  4917  00003C  0EA4               	dw	_DEFAULT_ISR shr (0+2)
  4918                           
  4919                           ; Vector 27 : U1RX
  4920  00003E  0EA4               	dw	_DEFAULT_ISR shr (0+2)
  4921                           
  4922                           ; Vector 28 : U1TX
  4923  000040  0EA4               	dw	_DEFAULT_ISR shr (0+2)
  4924                           
  4925                           ; Vector 29 : U1E
  4926  000042  0EA4               	dw	_DEFAULT_ISR shr (0+2)
  4927                           
  4928                           ; Vector 30 : U1
  4929  000044  0EA4               	dw	_DEFAULT_ISR shr (0+2)
  4930                           
  4931                           ; Vector 31 : TMR0
  4932  000046  0EA4               	dw	_DEFAULT_ISR shr (0+2)
  4933                           
  4934                           ; Vector 32 : TMR1
  4935  000048  0EBE               	dw	_TMR1_ISR shr (0+2)
  4936                           
  4937                           ; Vector 33 : TMR1G
  4938  00004A  0EA4               	dw	_DEFAULT_ISR shr (0+2)
  4939                           
  4940                           ; Vector 34 : TMR2
  4941  00004C  0EA4               	dw	_DEFAULT_ISR shr (0+2)
  4942                           
  4943                           ; Vector 35 : CCP1
  4944  00004E  0EA4               	dw	_DEFAULT_ISR shr (0+2)
  4945                           
  4946                           ; Vector 36 : Undefined
  4947  000050  002B               	dw	ivt0x8_undefint shr (0+2)
  4948                           
  4949                           ; Vector 37 : NCO1
  4950  000052  0EA4               	dw	_DEFAULT_ISR shr (0+2)
  4951                           
  4952                           ; Vector 38 : CWG1
  4953  000054  0EA4               	dw	_DEFAULT_ISR shr (0+2)
  4954                           
  4955                           ; Vector 39 : CLC1
  4956  000056  0EA4               	dw	_DEFAULT_ISR shr (0+2)
  4957                           
  4958                           ; Vector 40 : INT1
  4959  000058  0EA4               	dw	_DEFAULT_ISR shr (0+2)
  4960                           
  4961                           ; Vector 41 : CMP2
  4962  00005A  0EA4               	dw	_DEFAULT_ISR shr (0+2)
  4963                           
  4964                           ; Vector 42 : DMA2SCNT
  4965  00005C  0EA4               	dw	_DEFAULT_ISR shr (0+2)
  4966                           
  4967                           ; Vector 43 : DMA2DCNT
  4968  00005E  0EA4               	dw	_DEFAULT_ISR shr (0+2)
  4969                           
  4970                           ; Vector 44 : DMA2OR
  4971  000060  0EA4               	dw	_DEFAULT_ISR shr (0+2)
  4972                           
  4973                           ; Vector 45 : DMA2A
  4974  000062  0EA4               	dw	_DEFAULT_ISR shr (0+2)
  4975                           
  4976                           ; Vector 46 : I2C2RX
  4977  000064  0EA4               	dw	_DEFAULT_ISR shr (0+2)
  4978                           
  4979                           ; Vector 47 : I2C2TX
  4980  000066  0EA4               	dw	_DEFAULT_ISR shr (0+2)
  4981                           
  4982                           ; Vector 48 : I2C2
  4983  000068  0EA4               	dw	_DEFAULT_ISR shr (0+2)
  4984                           
  4985                           ; Vector 49 : I2C2E
  4986  00006A  0EA4               	dw	_DEFAULT_ISR shr (0+2)
  4987                           
  4988                           ; Vector 50 : U2RX
  4989  00006C  0EA4               	dw	_DEFAULT_ISR shr (0+2)
  4990                           
  4991                           ; Vector 51 : U2TX
  4992  00006E  0EA4               	dw	_DEFAULT_ISR shr (0+2)
  4993                           
  4994                           ; Vector 52 : U2E
  4995  000070  0EA4               	dw	_DEFAULT_ISR shr (0+2)
  4996                           
  4997                           ; Vector 53 : U2
  4998  000072  0EA4               	dw	_DEFAULT_ISR shr (0+2)
  4999                           
  5000                           ; Vector 54 : TMR3
  5001  000074  0EA4               	dw	_DEFAULT_ISR shr (0+2)
  5002                           
  5003                           ; Vector 55 : TMR3G
  5004  000076  0EA4               	dw	_DEFAULT_ISR shr (0+2)
  5005                           
  5006                           ; Vector 56 : TMR4
  5007  000078  0EA4               	dw	_DEFAULT_ISR shr (0+2)
  5008                           
  5009                           ; Vector 57 : CCP2
  5010  00007A  0EA4               	dw	_DEFAULT_ISR shr (0+2)
  5011                           
  5012                           ; Vector 58 : Undefined
  5013  00007C  002B               	dw	ivt0x8_undefint shr (0+2)
  5014                           
  5015                           ; Vector 59 : CWG2
  5016  00007E  0EA4               	dw	_DEFAULT_ISR shr (0+2)
  5017                           
  5018                           ; Vector 60 : CLC2
  5019  000080  0EA4               	dw	_DEFAULT_ISR shr (0+2)
  5020                           
  5021                           ; Vector 61 : INT2
  5022  000082  0EA4               	dw	_DEFAULT_ISR shr (0+2)
  5023                           
  5024                           ; Vector 62 : Undefined
  5025  000084  002B               	dw	ivt0x8_undefint shr (0+2)
  5026                           
  5027                           ; Vector 63 : Undefined
  5028  000086  002B               	dw	ivt0x8_undefint shr (0+2)
  5029                           
  5030                           ; Vector 64 : Undefined
  5031  000088  002B               	dw	ivt0x8_undefint shr (0+2)
  5032                           
  5033                           ; Vector 65 : Undefined
  5034  00008A  002B               	dw	ivt0x8_undefint shr (0+2)
  5035                           
  5036                           ; Vector 66 : Undefined
  5037  00008C  002B               	dw	ivt0x8_undefint shr (0+2)
  5038                           
  5039                           ; Vector 67 : Undefined
  5040  00008E  002B               	dw	ivt0x8_undefint shr (0+2)
  5041                           
  5042                           ; Vector 68 : Undefined
  5043  000090  002B               	dw	ivt0x8_undefint shr (0+2)
  5044                           
  5045                           ; Vector 69 : Undefined
  5046  000092  002B               	dw	ivt0x8_undefint shr (0+2)
  5047                           
  5048                           ; Vector 70 : TMR5
  5049  000094  0EA4               	dw	_DEFAULT_ISR shr (0+2)
  5050                           
  5051                           ; Vector 71 : TMR5G
  5052  000096  0EA4               	dw	_DEFAULT_ISR shr (0+2)
  5053                           
  5054                           ; Vector 72 : TMR6
  5055  000098  0EA4               	dw	_DEFAULT_ISR shr (0+2)
  5056                           
  5057                           ; Vector 73 : CCP3
  5058  00009A  0EA4               	dw	_DEFAULT_ISR shr (0+2)
  5059                           
  5060                           ; Vector 74 : CWG3
  5061  00009C  0EA4               	dw	_DEFAULT_ISR shr (0+2)
  5062                           
  5063                           ; Vector 75 : CLC3
  5064  00009E  0EA4               	dw	_DEFAULT_ISR shr (0+2)
  5065                           
  5066                           ; Vector 76 : Undefined
  5067  0000A0  002B               	dw	ivt0x8_undefint shr (0+2)
  5068                           
  5069                           ; Vector 77 : Undefined
  5070  0000A2  002B               	dw	ivt0x8_undefint shr (0+2)
  5071                           
  5072                           ; Vector 78 : Undefined
  5073  0000A4  002B               	dw	ivt0x8_undefint shr (0+2)
  5074                           
  5075                           ; Vector 79 : Undefined
  5076  0000A6  002B               	dw	ivt0x8_undefint shr (0+2)
  5077                           
  5078                           ; Vector 80 : CCP4
  5079  0000A8  0EA4               	dw	_DEFAULT_ISR shr (0+2)
  5080                           
  5081                           ; Vector 81 : CLC4
  5082  0000AA  0EA4               	dw	_DEFAULT_ISR shr (0+2)
  5083  0000AC                     ivt0x8_undefint:
  5084                           	callstack 0
  5085  0000AC  00FF               	reset	
  5086                           
  5087                           	psect	rparam
  5088  0000                     
  5089                           	psect	idloc
  5090                           
  5091                           ;Config register IDLOC0 @ 0x200000
  5092                           ;	unspecified, using default values
  5093  200000                     	org	2097152
  5094  200000  0FFF               	dw	4095
  5095                           
  5096                           ;Config register IDLOC1 @ 0x200002
  5097                           ;	unspecified, using default values
  5098  200002                     	org	2097154
  5099  200002  0FFF               	dw	4095
  5100                           
  5101                           ;Config register IDLOC2 @ 0x200004
  5102                           ;	unspecified, using default values
  5103  200004                     	org	2097156
  5104  200004  0FFF               	dw	4095
  5105                           
  5106                           ;Config register IDLOC3 @ 0x200006
  5107                           ;	unspecified, using default values
  5108  200006                     	org	2097158
  5109  200006  0FFF               	dw	4095
  5110                           
  5111                           ;Config register IDLOC4 @ 0x200008
  5112                           ;	unspecified, using default values
  5113  200008                     	org	2097160
  5114  200008  0FFF               	dw	4095
  5115                           
  5116                           ;Config register IDLOC5 @ 0x20000A
  5117                           ;	unspecified, using default values
  5118  20000A                     	org	2097162
  5119  20000A  0FFF               	dw	4095
  5120                           
  5121                           ;Config register IDLOC6 @ 0x20000C
  5122                           ;	unspecified, using default values
  5123  20000C                     	org	2097164
  5124  20000C  0FFF               	dw	4095
  5125                           
  5126                           ;Config register IDLOC7 @ 0x20000E
  5127                           ;	unspecified, using default values
  5128  20000E                     	org	2097166
  5129  20000E  0FFF               	dw	4095
  5130                           
  5131                           	psect	config
  5132                           
  5133                           ;Config register CONFIG1L @ 0x300000
  5134                           ;	External Oscillator Selection
  5135                           ;	FEXTOSC = OFF, Oscillator not enabled
  5136                           ;	Reset Oscillator Selection
  5137                           ;	RSTOSC = LFINTOSC, Low-Frequency Oscillator
  5138  300000                     	org	3145728
  5139  300000  DC                 	db	220
  5140                           
  5141                           ;Config register CONFIG1H @ 0x300001
  5142                           ;	Clock out Enable bit
  5143                           ;	CLKOUTEN = OFF, CLKOUT function is disabled
  5144                           ;	PRLOCKED One-Way Set Enable bit
  5145                           ;	PR1WAY = ON, PRLOCK bit can be cleared and set only once
  5146                           ;	Clock Switch Enable bit
  5147                           ;	CSWEN = ON, Writing to NOSC and NDIV is allowed
  5148                           ;	Fail-Safe Clock Monitor Enable bit
  5149                           ;	FCMEN = ON, Fail-Safe Clock Monitor enabled
  5150  300001                     	org	3145729
  5151  300001  FF                 	db	255
  5152                           
  5153                           ;Config register CONFIG2L @ 0x300002
  5154                           ;	MCLR Enable bit
  5155                           ;	MCLRE = EXTMCLR, If LVP = 0, MCLR pin is MCLR; If LVP = 1, RE3 pin function is MCLR
  5156                           ;	Power-up timer selection bits
  5157                           ;	PWRTS = PWRT_OFF, PWRT is disabled
  5158                           ;	Multi-vector enable bit
  5159                           ;	MVECEN = ON, Multi-vector enabled, Vector table used for interrupts
  5160                           ;	IVTLOCK bit One-way set enable bit
  5161                           ;	IVT1WAY = ON, IVTLOCK bit can be cleared and set only once
  5162                           ;	Low Power BOR Enable bit
  5163                           ;	LPBOREN = OFF, ULPBOR disabled
  5164                           ;	Brown-out Reset Enable bits
  5165                           ;	BOREN = SBORDIS, Brown-out Reset enabled , SBOREN bit is ignored
  5166  300002                     	org	3145730
  5167  300002  FF                 	db	255
  5168                           
  5169                           ;Config register CONFIG2H @ 0x300003
  5170                           ;	Brown-out Reset Voltage Selection bits
  5171                           ;	BORV = VBOR_2P45, Brown-out Reset Voltage (VBOR) set to 2.45V
  5172                           ;	ZCD Disable bit
  5173                           ;	ZCD = OFF, ZCD disabled. ZCD can be enabled by setting the ZCDSEN bit of ZCDCON
  5174                           ;	PPSLOCK bit One-Way Set Enable bit
  5175                           ;	PPS1WAY = ON, PPSLOCK bit can be cleared and set only once; PPS registers remain locke
      +                          d after one clear/set cycle
  5176                           ;	Stack Full/Underflow Reset Enable bit
  5177                           ;	STVREN = ON, Stack full/underflow will cause Reset
  5178                           ;	Debugger Enable bit
  5179                           ;	DEBUG = OFF, Background debugger disabled
  5180                           ;	Extended Instruction Set Enable bit
  5181                           ;	XINST = OFF, Extended Instruction Set and Indexed Addressing Mode disabled
  5182  300003                     	org	3145731
  5183  300003  FF                 	db	255
  5184                           
  5185                           ;Config register CONFIG3L @ 0x300004
  5186                           ;	WDT Period selection bits
  5187                           ;	WDTCPS = WDTCPS_31, Divider ratio 1:65536; software control of WDTPS
  5188                           ;	WDT operating mode
  5189                           ;	WDTE = OFF, WDT Disabled; SWDTEN is ignored
  5190  300004                     	org	3145732
  5191  300004  9F                 	db	159
  5192                           
  5193                           ;Config register CONFIG3H @ 0x300005
  5194                           ;	WDT Window Select bits
  5195                           ;	WDTCWS = WDTCWS_7, window always open (100%); software control; keyed access not requi
      +                          red
  5196                           ;	WDT input clock selector
  5197                           ;	WDTCCS = SC, Software Control
  5198  300005                     	org	3145733
  5199  300005  FF                 	db	255
  5200                           
  5201                           ;Config register CONFIG4L @ 0x300006
  5202                           ;	Boot Block Size selection bits
  5203                           ;	BBSIZE = BBSIZE_512, Boot Block size is 512 words
  5204                           ;	Boot Block enable bit
  5205                           ;	BBEN = OFF, Boot block disabled
  5206                           ;	Storage Area Flash enable bit
  5207                           ;	SAFEN = OFF, SAF disabled
  5208                           ;	Application Block write protection bit
  5209                           ;	WRTAPP = OFF, Application Block not write protected
  5210  300006                     	org	3145734
  5211  300006  FF                 	db	255
  5212                           
  5213                           ;Config register CONFIG4H @ 0x300007
  5214                           ;	Configuration Register Write Protection bit
  5215                           ;	WRTB = OFF, Configuration registers (300000-30000Bh) not write-protected
  5216                           ;	Boot Block Write Protection bit
  5217                           ;	WRTC = OFF, Boot Block (000000-0007FFh) not write-protected
  5218                           ;	Data EEPROM Write Protection bit
  5219                           ;	WRTD = OFF, Data EEPROM not write-protected
  5220                           ;	SAF Write protection bit
  5221                           ;	WRTSAF = OFF, SAF not Write Protected
  5222                           ;	Low Voltage Programming Enable bit
  5223                           ;	LVP = OFF, HV on MCLR/VPP must be used for programming
  5224  300007                     	org	3145735
  5225  300007  DF                 	db	223
  5226                           
  5227                           ;Config register CONFIG5L @ 0x300008
  5228                           ;	PFM and Data EEPROM Code Protection bit
  5229                           ;	CP = OFF, PFM and Data EEPROM code protection disabled
  5230  300008                     	org	3145736
  5231  300008  FF                 	db	255
  5232                           
  5233                           ;Config register CONFIG5H @ 0x300009
  5234                           ;	unspecified, using default values
  5235  300009                     	org	3145737
  5236  300009  FF                 	db	255
  5237                           tosu	equ	0x3FFF
  5238                           tosh	equ	0x3FFE
  5239                           tosl	equ	0x3FFD
  5240                           stkptr	equ	0x3FFC
  5241                           pclatu	equ	0x3FFB
  5242                           pclath	equ	0x3FFA
  5243                           pcl	equ	0x3FF9
  5244                           tblptru	equ	0x3FF8
  5245                           tblptrh	equ	0x3FF7
  5246                           tblptrl	equ	0x3FF6
  5247                           tablat	equ	0x3FF5
  5248                           prodh	equ	0x3FF4
  5249                           prodl	equ	0x3FF3
  5250                           indf0	equ	0x3FEF
  5251                           postinc0	equ	0x3FEE
  5252                           postdec0	equ	0x3FED
  5253                           preinc0	equ	0x3FEC
  5254                           plusw0	equ	0x3FEB
  5255                           fsr0h	equ	0x3FEA
  5256                           fsr0l	equ	0x3FE9
  5257                           wreg	equ	0x3FE8
  5258                           indf1	equ	0x3FE7
  5259                           postinc1	equ	0x3FE6
  5260                           postdec1	equ	0x3FE5
  5261                           preinc1	equ	0x3FE4
  5262                           plusw1	equ	0x3FE3
  5263                           fsr1h	equ	0x3FE2
  5264                           fsr1l	equ	0x3FE1
  5265                           bsr	equ	0x3FE0
  5266                           indf2	equ	0x3FDF
  5267                           postinc2	equ	0x3FDE
  5268                           postdec2	equ	0x3FDD
  5269                           preinc2	equ	0x3FDC
  5270                           plusw2	equ	0x3FDB
  5271                           fsr2h	equ	0x3FDA
  5272                           fsr2l	equ	0x3FD9
  5273                           status	equ	0x3FD8

Data Sizes:
    Strings     20
    Constant    0
    Data        0
    BSS         5
    Persistent  0
    Stack       0

Auto Spaces:
    Space          Size  Autos    Used
    COMRAM           95     88      89
    BANK0           160      7      11
    BANK1           256      0       0
    BANK2           256      0       0
    BANK3           256      0       0
    BANK4           256      0       0
    BANK5           256      0       0
    BANK6           256      0       0
    BANK7           256      0       0
    BANK8           256      0       0
    BANK9           256      0       0
    BANK10          256      0       0
    BANK11          256      0       0
    BANK12          256      0       0
    BANK13          256      0       0
    BANK14          256      0       0
    BANK15          256      0       0
    BANK16          256      0       0
    BANK17          256      0       0
    BANK18          256      0       0
    BANK19          256      0       0
    BANK20          256      0       0
    BANK21          256      0       0
    BANK22          256      0       0
    BANK23          256      0       0
    BANK24          256      0       0
    BANK25          256      0       0
    BANK26          256      0       0
    BANK27          256      0       0
    BANK28          256      0       0
    BANK29          256      0       0
    BANK30          256      0       0
    BANK31          256      0       0

Pointer List with Targets:

    cw_message@message	PTR unsigned char  size(2) Largest target is 10
		 -> STR_4(CODE[6]), STR_3(CODE[4]), STR_2(CODE[6]), STR_1(CODE[10]), 


Critical Paths under _main in COMRAM

    _main->_initialize_tone_generator
    _initialize_tone_generator->___fltol
    ___fltol->___fladd
    ___flmul->___fldiv
    ___fladd->___flmul
    _end_foxhunt->_cw_message
    _cycle_transmitter->_cw_message
    _initialize_cw->_tone_enable
    _deinitialize_cw->_tone_enable
    _cw_message->_cw
    _cw->_dahspace
    _dah->_dahspace

Critical Paths under _DEFAULT_ISR in COMRAM

    None.

Critical Paths under _TMR1_ISR in COMRAM

    None.

Critical Paths under _main in BANK0

    _main->_initialize_tone_generator

Critical Paths under _DEFAULT_ISR in BANK0

    None.

Critical Paths under _TMR1_ISR in BANK0

    None.

Critical Paths under _main in BANK1

    None.

Critical Paths under _DEFAULT_ISR in BANK1

    None.

Critical Paths under _TMR1_ISR in BANK1

    None.

Critical Paths under _main in BANK2

    None.

Critical Paths under _DEFAULT_ISR in BANK2

    None.

Critical Paths under _TMR1_ISR in BANK2

    None.

Critical Paths under _main in BANK3

    None.

Critical Paths under _DEFAULT_ISR in BANK3

    None.

Critical Paths under _TMR1_ISR in BANK3

    None.

Critical Paths under _main in BANK4

    None.

Critical Paths under _DEFAULT_ISR in BANK4

    None.

Critical Paths under _TMR1_ISR in BANK4

    None.

Critical Paths under _main in BANK5

    None.

Critical Paths under _DEFAULT_ISR in BANK5

    None.

Critical Paths under _TMR1_ISR in BANK5

    None.

Critical Paths under _main in BANK6

    None.

Critical Paths under _DEFAULT_ISR in BANK6

    None.

Critical Paths under _TMR1_ISR in BANK6

    None.

Critical Paths under _main in BANK7

    None.

Critical Paths under _DEFAULT_ISR in BANK7

    None.

Critical Paths under _TMR1_ISR in BANK7

    None.

Critical Paths under _main in BANK8

    None.

Critical Paths under _DEFAULT_ISR in BANK8

    None.

Critical Paths under _TMR1_ISR in BANK8

    None.

Critical Paths under _main in BANK9

    None.

Critical Paths under _DEFAULT_ISR in BANK9

    None.

Critical Paths under _TMR1_ISR in BANK9

    None.

Critical Paths under _main in BANK10

    None.

Critical Paths under _DEFAULT_ISR in BANK10

    None.

Critical Paths under _TMR1_ISR in BANK10

    None.

Critical Paths under _main in BANK11

    None.

Critical Paths under _DEFAULT_ISR in BANK11

    None.

Critical Paths under _TMR1_ISR in BANK11

    None.

Critical Paths under _main in BANK12

    None.

Critical Paths under _DEFAULT_ISR in BANK12

    None.

Critical Paths under _TMR1_ISR in BANK12

    None.

Critical Paths under _main in BANK13

    None.

Critical Paths under _DEFAULT_ISR in BANK13

    None.

Critical Paths under _TMR1_ISR in BANK13

    None.

Critical Paths under _main in BANK14

    None.

Critical Paths under _DEFAULT_ISR in BANK14

    None.

Critical Paths under _TMR1_ISR in BANK14

    None.

Critical Paths under _main in BANK15

    None.

Critical Paths under _DEFAULT_ISR in BANK15

    None.

Critical Paths under _TMR1_ISR in BANK15

    None.

Critical Paths under _main in BANK16

    None.

Critical Paths under _DEFAULT_ISR in BANK16

    None.

Critical Paths under _TMR1_ISR in BANK16

    None.

Critical Paths under _main in BANK17

    None.

Critical Paths under _DEFAULT_ISR in BANK17

    None.

Critical Paths under _TMR1_ISR in BANK17

    None.

Critical Paths under _main in BANK18

    None.

Critical Paths under _DEFAULT_ISR in BANK18

    None.

Critical Paths under _TMR1_ISR in BANK18

    None.

Critical Paths under _main in BANK19

    None.

Critical Paths under _DEFAULT_ISR in BANK19

    None.

Critical Paths under _TMR1_ISR in BANK19

    None.

Critical Paths under _main in BANK20

    None.

Critical Paths under _DEFAULT_ISR in BANK20

    None.

Critical Paths under _TMR1_ISR in BANK20

    None.

Critical Paths under _main in BANK21

    None.

Critical Paths under _DEFAULT_ISR in BANK21

    None.

Critical Paths under _TMR1_ISR in BANK21

    None.

Critical Paths under _main in BANK22

    None.

Critical Paths under _DEFAULT_ISR in BANK22

    None.

Critical Paths under _TMR1_ISR in BANK22

    None.

Critical Paths under _main in BANK23

    None.

Critical Paths under _DEFAULT_ISR in BANK23

    None.

Critical Paths under _TMR1_ISR in BANK23

    None.

Critical Paths under _main in BANK24

    None.

Critical Paths under _DEFAULT_ISR in BANK24

    None.

Critical Paths under _TMR1_ISR in BANK24

    None.

Critical Paths under _main in BANK25

    None.

Critical Paths under _DEFAULT_ISR in BANK25

    None.

Critical Paths under _TMR1_ISR in BANK25

    None.

Critical Paths under _main in BANK26

    None.

Critical Paths under _DEFAULT_ISR in BANK26

    None.

Critical Paths under _TMR1_ISR in BANK26

    None.

Critical Paths under _main in BANK27

    None.

Critical Paths under _DEFAULT_ISR in BANK27

    None.

Critical Paths under _TMR1_ISR in BANK27

    None.

Critical Paths under _main in BANK28

    None.

Critical Paths under _DEFAULT_ISR in BANK28

    None.

Critical Paths under _TMR1_ISR in BANK28

    None.

Critical Paths under _main in BANK29

    None.

Critical Paths under _DEFAULT_ISR in BANK29

    None.

Critical Paths under _TMR1_ISR in BANK29

    None.

Critical Paths under _main in BANK30

    None.

Critical Paths under _DEFAULT_ISR in BANK30

    None.

Critical Paths under _TMR1_ISR in BANK30

    None.

Critical Paths under _main in BANK31

    None.

Critical Paths under _DEFAULT_ISR in BANK31

    None.

Critical Paths under _TMR1_ISR in BANK31

    None.

Call Graph Tables:

 ---------------------------------------------------------------------------------
 (Depth) Function   	        Calls       Base Space   Used Autos Params    Refs
 ---------------------------------------------------------------------------------
 (0) _main                                                 1     1      0   13291
                                             87 COMRAM     1     1      0
                    _configure_timer
                         _cw_message
                  _cycle_transmitter
                    _deinitialize_cw
                        _end_foxhunt
                      _initialize_cw
              _initialize_interrupts
                    _initialize_pins
          _initialize_tone_generator
 ---------------------------------------------------------------------------------
 (1) _initialize_tone_generator                           19    11      8    9835
                                             77 COMRAM    10     2      8
                                              0 BANK0      7     7      0
                            ___fladd
                            ___fldiv
                            ___flmul
                            ___fltol
                           ___xxtofl
 ---------------------------------------------------------------------------------
 (2) ___xxtofl                                            14    10      4     566
                                              1 COMRAM    14    10      4
 ---------------------------------------------------------------------------------
 (2) ___fltol                                             10     6      4     517
                                             67 COMRAM    10     6      4
                            ___fladd (ARG)
                            ___fldiv (ARG)
                            ___flmul (ARG)
                           ___xxtofl (ARG)
 ---------------------------------------------------------------------------------
 (2) ___flmul                                             25    17      8    2513
                                             26 COMRAM    25    17      8
                            ___fldiv (ARG)
 ---------------------------------------------------------------------------------
 (2) ___fldiv                                             25    17      8    2183
                                              1 COMRAM    25    17      8
 ---------------------------------------------------------------------------------
 (2) ___fladd                                             16     8      8    3582
                                             51 COMRAM    16     8      8
                            ___fldiv (ARG)
                            ___flmul (ARG)
                           ___xxtofl (ARG)
 ---------------------------------------------------------------------------------
 (1) _initialize_pins                                      0     0      0       0
 ---------------------------------------------------------------------------------
 (1) _initialize_interrupts                                0     0      0       0
 ---------------------------------------------------------------------------------
 (1) _end_foxhunt                                          1     1      0    1152
                                             14 COMRAM     1     1      0
                         _cw_message
                    _deinitialize_cw
        _deinitialize_tone_generator
                      _initialize_cw
 ---------------------------------------------------------------------------------
 (2) _deinitialize_tone_generator                          0     0      0       0
 ---------------------------------------------------------------------------------
 (1) _cycle_transmitter                                    1     1      0    1152
                                             14 COMRAM     1     1      0
                         _cw_message
                    _deinitialize_cw
                      _initialize_cw
 ---------------------------------------------------------------------------------
 (1) _initialize_cw                                        2     0      2     272
                                              2 COMRAM     2     0      2
                        _tone_enable
 ---------------------------------------------------------------------------------
 (2) _deinitialize_cw                                      0     0      0      22
                        _tone_enable
 ---------------------------------------------------------------------------------
 (2) _tone_enable                                          1     1      0      22
                                              1 COMRAM     1     1      0
 ---------------------------------------------------------------------------------
 (2) _cw_message                                           8     4      4     858
                                              6 COMRAM     8     4      4
                                 _cw
                           _dahspace
 ---------------------------------------------------------------------------------
 (3) _cw                                                   3     3      0     114
                                              3 COMRAM     3     3      0
                                _dah
                           _dahspace
                                _dit
                           _ditspace
 ---------------------------------------------------------------------------------
 (4) _dit                                                  0     0      0       0
                           _ditspace
 ---------------------------------------------------------------------------------
 (4) _dah                                                  0     0      0      46
                           _dahspace
 ---------------------------------------------------------------------------------
 (3) _dahspace                                             2     2      0      46
                                              1 COMRAM     2     2      0
                           _ditspace
 ---------------------------------------------------------------------------------
 (4) _ditspace                                             0     0      0       0
 ---------------------------------------------------------------------------------
 (1) _configure_timer                                      0     0      0       0
 ---------------------------------------------------------------------------------
 Estimated maximum stack depth 4
 ---------------------------------------------------------------------------------
 (Depth) Function   	        Calls       Base Space   Used Autos Params    Refs
 ---------------------------------------------------------------------------------
 (7) _DEFAULT_ISR                                          1     1      0       0
                                              0 COMRAM     1     1      0
 ---------------------------------------------------------------------------------
 Estimated maximum stack depth 7
 ---------------------------------------------------------------------------------
 (Depth) Function   	        Calls       Base Space   Used Autos Params    Refs
 ---------------------------------------------------------------------------------
 (8) _TMR1_ISR                                             0     0      0       0
 ---------------------------------------------------------------------------------
 Estimated maximum stack depth 8
 ---------------------------------------------------------------------------------

 Call Graph Graphs:

 _main (ROOT)
   _configure_timer
   _cw_message
     _cw
       _dah
         _dahspace
           _ditspace
       _dahspace
       _dit
         _ditspace
       _ditspace
     _dahspace
   _cycle_transmitter
     _cw_message
     _deinitialize_cw
       _tone_enable
     _initialize_cw
       _tone_enable
   _deinitialize_cw
   _end_foxhunt
     _cw_message
     _deinitialize_cw
     _deinitialize_tone_generator
     _initialize_cw
   _initialize_cw
   _initialize_interrupts
   _initialize_pins
   _initialize_tone_generator
     ___fladd
       ___fldiv (ARG)
       ___flmul (ARG)
         ___fldiv (ARG)
       ___xxtofl (ARG)
     ___fldiv
     ___flmul
     ___fltol
       ___fladd (ARG)
       ___fldiv (ARG)
       ___flmul (ARG)
       ___xxtofl (ARG)
     ___xxtofl

 _DEFAULT_ISR (ROOT)

 _TMR1_ISR (ROOT)

 Address spaces:
Name               Size   Autos  Total    Cost      Usage
BIGRAM            1FFF      0       0      69        0.0%
EEDATA             400      0       0       0        0.0%
BITBANK31          100      0       0      67        0.0%
BANK31             100      0       0      68        0.0%
BITBANK30          100      0       0      65        0.0%
BANK30             100      0       0      66        0.0%
BITBANK29          100      0       0      63        0.0%
BANK29             100      0       0      64        0.0%
BITBANK28          100      0       0      61        0.0%
BANK28             100      0       0      62        0.0%
BITBANK27          100      0       0      59        0.0%
BANK27             100      0       0      60        0.0%
BITBANK26          100      0       0      56        0.0%
BANK26             100      0       0      57        0.0%
BITBANK25          100      0       0      54        0.0%
BANK25             100      0       0      55        0.0%
BITBANK24          100      0       0      52        0.0%
BANK24             100      0       0      53        0.0%
BITBANK23          100      0       0      50        0.0%
BANK23             100      0       0      51        0.0%
BITBANK22          100      0       0      48        0.0%
BANK22             100      0       0      49        0.0%
BITBANK21          100      0       0      46        0.0%
BANK21             100      0       0      47        0.0%
BITBANK20          100      0       0      44        0.0%
BANK20             100      0       0      45        0.0%
BITBANK19          100      0       0      42        0.0%
BANK19             100      0       0      43        0.0%
BITBANK18          100      0       0      40        0.0%
BANK18             100      0       0      41        0.0%
BITBANK17          100      0       0      38        0.0%
BANK17             100      0       0      39        0.0%
BITBANK16          100      0       0      36        0.0%
BANK16             100      0       0      37        0.0%
BITBANK15          100      0       0      34        0.0%
BANK15             100      0       0      35        0.0%
BITBANK14          100      0       0      32        0.0%
BANK14             100      0       0      33        0.0%
BITBANK13          100      0       0      30        0.0%
BANK13             100      0       0      31        0.0%
BITBANK12          100      0       0      28        0.0%
BANK12             100      0       0      29        0.0%
BITBANK11          100      0       0      26        0.0%
BANK11             100      0       0      27        0.0%
BITBANK10          100      0       0      24        0.0%
BANK10             100      0       0      25        0.0%
BITBANK9           100      0       0      22        0.0%
BANK9              100      0       0      23        0.0%
BITBANK8           100      0       0      20        0.0%
BANK8              100      0       0      21        0.0%
BITBANK7           100      0       0      18        0.0%
BANK7              100      0       0      19        0.0%
BITBANK6           100      0       0      16        0.0%
BANK6              100      0       0      17        0.0%
BITBANK5           100      0       0      14        0.0%
BANK5              100      0       0      15        0.0%
BITBANK4           100      0       0      12        0.0%
BANK4              100      0       0      13        0.0%
BITBANK3           100      0       0      10        0.0%
BANK3              100      0       0      11        0.0%
BITBANK2           100      0       0       8        0.0%
BANK2              100      0       0       9        0.0%
BITBANK1           100      0       0       6        0.0%
BANK1              100      0       0       7        0.0%
BITBANK0            A0      0       0       4        0.0%
BANK0               A0      7       B       5        6.9%
BITCOMRAM           5F      0       0       0        0.0%
COMRAM              5F     58      59       1       93.7%
BITSFR_8             0      0       0     200        0.0%
SFR_8                0      0       0     200        0.0%
BITSFR_7             0      0       0     200        0.0%
SFR_7                0      0       0     200        0.0%
BITSFR_6             0      0       0     200        0.0%
SFR_6                0      0       0     200        0.0%
BITSFR_5             0      0       0     200        0.0%
SFR_5                0      0       0     200        0.0%
BITSFR_4             0      0       0     200        0.0%
SFR_4                0      0       0     200        0.0%
BITSFR_3             0      0       0     200        0.0%
SFR_3                0      0       0     200        0.0%
BITSFR_2             0      0       0     200        0.0%
SFR_2                0      0       0     200        0.0%
BITSFR_1             0      0       0     200        0.0%
SFR_1                0      0       0     200        0.0%
BITSFR               0      0       0     200        0.0%
SFR                  0      0       0     200        0.0%
STACK                0      0       0       2        0.0%
NULL                 0      0       0       0        0.0%
ABS                  0      0      64      58        0.0%
DATA                 0      0      64       3        0.0%
CODE                 0      0       0       0        0.0%


Microchip Technology PIC18 Macro Assembler V2.32 build 20210201212658 
Symbol Table                                                                                   Tue Apr 06 20:40:44 2021

                         ___fldiv@aexp 001A                           ___fldiv@bexp 0019  
                          _tone_enable 3B38                           ___fldiv@sign 0012  
                                   l82 3858                                     l85 3866  
                                   l87 3874                                     l96 3B74  
                                   l99 3B9C                                     _cw 2016  
                                  ?_cw 0001                                    l102 3BB4  
                                  l112 3912                                    l114 3920  
                                  l115 3982                                    l108 39F2  
                                  l301 3B50                                    l303 3B52  
                                  l160 3A8C                                    l163 3BA8  
                                  l260 3B82                                    l254 276E  
                                  l263 3B56                                    l271 3AF4  
                                  l257 3B90                                    l169 3A46  
                                  l266 3B64                                    l603 383E  
                                  l292 372A                                    l295 3738  
                                  l298 3BBC                                    l901 3334  
                                  l902 3322                                    l920 2CF4  
                                  l834 295E                                    l930 2F74  
                                  l851 2A78                                    l843 2C2E  
                                  l835 294C                                    l860 2B48  
                                  l836 2912                                    l924 307C  
                                  l861 2B36                                    l927 2F0E  
                                  l937 303E                                    l929 2F86  
                                  l961 346E                                    l890 3276  
                                  l964 35CA                                    l893 323A  
                                  l975 3562                                    l888 3416  
                                  l968 3506                                    l899 32BC  
                                  _dah 3B84                                    _dit 3B76  
                                  wreg 003FE8                           ___flmul@aexp 0028  
                         ___flmul@bexp 002D                           ___flmul@sign 0027  
                         ___flmul@temp 0032                           ___flmul@prod 002E  
                 __size_of_DEFAULT_ISR 0038                                   ??_cw 0004  
                         ___fltol@exp1 004D                                   ?_dah 0001  
                                 l3001 24C4                                   l3011 24D0  
                                 l3003 24C8                                   l3021 3A48  
                                 l3015 24DC                                   l3031 3A84  
                                 l3023 3A4E                                   l2401 3B8C  
                                 l3041 3A3E                                   l3033 39F4  
                                 l3025 3A64                                   l4001 3160  
                                 l2411 2024                                   l3035 3A00  
                                 l2403 3B3A                                   l3043 3B9E  
                                 l3027 3A68                                   l4003 3170  
                                 l4011 3190                                   l2421 203C  
                                 l2413 2028                                   l3037 3A24  
                                 l2405 3B4A                                   l3045 3BA2  
                                 l3029 3A7E                                   l4021 31CE  
                                 l4013 31A0                                   l4005 3178  
                                 l4101 2C3C                                   l2511 2114  
                                 l2431 2058                                   l2423 2040  
                                 l2415 2030                                   l2407 2018  
                                 l3039 3A28                                   l3047 3BB6  
                                 l4031 3216                                   l4023 31DE  
                                 l4015 31A0                                   l4007 317C  
                                 l4111 2C7C                                   l4103 2C4A  
                                 l2601 21DC                                   l2505 2104  
                                 l2441 2074                                   l2433 205C  
                                 l2425 2044                                   l2417 2034  
                                 l2409 201C                                   l3049 3BBA  
                                 l4041 3264                                   l4033 322A  
                                 l4025 31EE                                   l4201 2FA2  
                                 l4121 2CAC                                   l4113 2C82  
                                 l4105 2C4C                                   l2507 210C  
                                 l2451 207C                                   l2435 2060  
                                 l2427 2048                                   l2419 2038  
                                 l4051 32AC                                   l4043 3274  
                                 l4035 3238                                   l4027 31FE  
                                 l4019 31B4                                   l4211 300C  
                                 l4203 2FB0                                   l4131 2CE4  
                                 l4123 2CAE                                   l4115 2C92  
                                 l4107 2C5C                                   l2613 21E4  
                                 l2533 212C                                   l2509 2110  
                                 l2437 2064                                   l2429 2054  
                                 l4061 32EC                                   l4053 32BA  
                                 l4045 3286                                   l4037 3244  
                                 l4029 3206                                   l4221 3062  
                                 l4213 3026                                   l4205 2FDA  
                                 l4141 2D38                                   l4133 2D04  
                                 l4125 2CBE                                   l4117 2C98  
                                 l4109 2C6C                                   l4301 3552  
                                 ?_dit 0001                                   l2391 3B76  
                                 l2703 22E0                                   l2631 21FC  
                                 l2615 21E8                                   l2543 2140  
                                 l2535 2130                                   l2527 2124  
                                 l2519 211C                                   l2455 2084  
                                 l4071 335E                                   l4063 331A  
                                 l4047 329C                                   l4055 32CC  
                                 l4039 3262                                   l4215 3042  
                                 l4223 3068                                   l4207 2FDE  
                                 l4151 2D90                                   l4143 2D42  
                                 l4135 2D14                                   l4127 2CCE  
                                 l4119 2C9E                                   l4231 3750  
                                 l4311 35AA                                   l4303 3570  
                                 l2377 3B54                                   l2385 3AD0  
                                 l2393 3B7A                                   l2801 2390  
                                 l2721 22F4                                   l2705 22E4  
                                 l2617 21EC                                   l2545 2148  
                                 l2537 2134                                   l2481 20D8  
                                 l2473 20A8                                   l2465 20A0  
                                 l2457 2094                                   l4081 33D6  
                                 l4073 3388                                   l4057 32DA  
                                 l4049 32A2                                   l4225 306C  
                                 l4217 3052                                   l4209 2FF8  
                                 l4161 2DDA                                   l4153 2D9C  
                                 l4145 2D5C                                   l4129 2CDE  
                                 l4241 37A0                                   l4313 35B8  
                                 l4305 3572                                   l4321 3624  
                                 l2387 3AD4                                   l2379 3AC8  
                                 l2395 3B7E                                   l2803 2394  
                                 l2723 22F8                                   l2707 22E8  
                                 l2635 2214                                   l2627 21F4  
                                 l2563 2158                                   l2547 214C  
                                 l2483 20E0                                   l2459 2098  
                                 l3611 3B66                                   l4091 340C  
                                 l4083 33F2                                   l4067 3344  
                                 l4075 338C                                   l4059 32DE  
                                 l4219 3060                                   l4171 2E48  
                                 l4163 2DEA                                   l4155 2DAA  
                                 l4147 2D68                                   l4139 2D28  
                                 l4251 37CA                                   l4243 37A4  
                                 l4235 3764                                   l4315 35BA  
                                 l4307 3576                                   l4331 36F8  
                                 l4323 3686                                   l2389 3AD8  
                                 l2397 3B84                                   l2901 2400  
                                 l2821 23A8                                   l2805 2398  
                                 l2725 22FC                                   l2661 2240  
                                 l2637 221C                                   l2629 21F8  
                                 l2573 2164                                   l2493 20F4  
                                 l2485 20E4                                   l2477 20C8  
                                 l3701 397C                                   l3621 3B92  
                                 l3613 3B6C                                   l4085 33F6  
                                 l4077 33A6                                   l4069 3350  
                                 l4181 2EF4                                   l4173 2E68  
                                 l4165 2E08                                   l4157 2DBA  
                                 l4149 2D84                                   l4261 37F2  
                                 l4253 37D4                                   l4245 37B2  
                                 l4237 378E                                   l4229 373A  
                                 l4309 359A                                   l4341 3722  
                                 l4333 36FC                                   l4325 36F0  
                                 l3623 3BAA                                   l2399 3B88  
                                 l2903 2404                                   l2751 231C  
                                 l2735 2308                                   l2639 2220  
                                 l2591 21B8                                   l2495 20F8  
                                 l2487 20EC                                   l3615 3B6E  
                                 l4087 3404                                   l4079 33BC  
                                 l4191 2F30                                   l4183 2EFE  
                                 l4175 2E92                                   l4167 2E18  
                                 l4159 2DCA                                   l4263 37FE  
                                 l4255 37DE                                   l4239 3790  
                                 l4343 3724                                   l4335 3702  
                                 l4327 36F0                                   l4319 35CC  
                                 l4351 3848                                   l3625 3BB2  
                                 l2913 241C                                   l2905 240C  
                                 l2841 23C0                                   l2833 23B0  
                                 l2817 23A0                                   l2753 2324  
                                 l2737 230C                                   l2681 22B0  
                                 l2673 2280                                   l2649 222C  
                                 l2593 21C0                                   l2585 219C  
                                 l2577 217C                                   l2497 20FC  
                                 l3617 3B70                                   l3801 2850  
                                 l4089 340A                                   l4193 2F3E  
                                 l4185 2F0C                                   l4177 2EC8  
                                 l4169 2E38                                   l4265 380E  
                                 l4281 3494                                   l4273 341A  
                                 l4345 3728                                   l4337 3716  
                                 l4329 36F6                                   l4361 38A8  
                                 l4353 384C                                   l2931 2438  
                                 l2915 242C                                   l2907 2410  
                                 l2835 23B4                                   l2819 23A4  
                                 l2771 233C                                   l2755 2328  
                                 l2739 2310                                   l2667 225C  
                                 l2595 21C4                                   l2579 2188  
                                 l3619 3B72                                   l3811 287C  
                                 l3803 2862                                   l4195 2F6C  
                                 l4187 2F1E                                   l4179 2ED6  
                                 l4099 2C30                                   l4267 381E  
                                 l4291 34EE                                   l4275 342A  
                                 l4339 371E                                   l4371 38C6  
                                 l4363 38AE                                   l4355 3856  
                                 l4347 3840                                   l2933 243C  
                                 l2909 2414                                   l2837 23B8  
                                 l2781 2360                                   l2773 2340  
                                 l2757 232C                                   l2677 22A8  
                                 l2597 21D4                                   l3661 39A8  
                                 l3901 2AB2                                   l3821 2890  
                                 l3813 2880                                   l3805 2870  
                                 l4189 2F2C                                   l4269 382E  
                                 l4293 34F0                                   l4285 34A8  
                                 l4277 3438                                   l4373 38DA  
                                 l4365 38B2                                   l4357 3878  
                                 l4349 3844                                   l2943 2458  
                                 l2935 2440                                   l2839 23BC  
                                 l2783 2370                                   l2775 2344  
                                 l2759 2330                                   l2695 22B8  
                                 l2679 22AC                                   l2599 21D8  
                                 l3671 39DE                                   l3663 39AE  
                                 l3655 3984                                   l3911 2AE2  
                                 l3903 2ABC                                   l3831 28A4  
                                 l3823 2894                                   l3815 2884  
                                 l3807 2874                                   l4199 2F96  
                                 l4295 34FC                                   l4287 34B0  
                                 l4279 347E                                   l4375 38E2  
                                 l4367 38B6                                   l4359 389C  
                                 l2961 2464                                   l2937 2444  
                                 l2929 2434                                   l2881 23DC  
                                 l2857 23C8                                   l2785 2374  
                                 l2697 22BC                                   l3665 39BA  
                                 l3673 39E2                                   l3657 3996  
                                 l3681 3904                                   l3921 2B0A  
                                 l3913 2AE6                                   l3905 2ACA  
                                 l3841 28DE                                   l3833 28A8  
                                 l3825 2898                                   l3817 2888  
                                 l3809 2878                                   l3761 277C  
                                 l4297 3538                                   l4289 34BC  
                                 l4377 38EA                                   l4369 38B8  
                                 l2971 247C                                   l2963 246C  
                                 l2883 23E4                                   l2795 2380  
                                 l2699 22C0                                   l3675 39E8  
                                 l3667 39CE                                   l3659 3998  
                                 l3691 3950                                   l3931 2B64  
                                 l3923 2B18                                   l3915 2AF6  
                                 l3907 2ACC                                   l3851 2930  
                                 l3843 28FA                                   l3835 28AC  
                                 l3827 289C                                   l3819 288C  
                                 l3771 27BC                                   l3763 278A  
                                 l4299 3544                                   l2981 2488  
                                 l2965 2470                                   l2885 23E8  
                                 l2877 23D0                                   l2797 2384  
                                 l3677 39EC                                   l3669 39DC  
                                 l3693 3964                                   l3685 3922  
                                 l3941 2BCE                                   l3933 2B72  
                                 l3925 2B2E                                   l3909 2ADA  
                                 l3917 2AF8                                   l3861 297C  
                                 l3853 293E                                   l3845 290A  
                                 l3829 28A0                                   l3837 28B0  
                                 l3781 27EE                                   l3773 27BE  
                                 l3765 278C                                   l4399 24F0  
                                 l2983 248C                                   l2967 2474  
                                 l2895 23F4                                   l2879 23D8  
                                 l2799 2388                                   l3679 39F0  
                                 l3695 3968                                   l3687 3930  
                                 l3951 2C08                                   l3943 2BEE  
                                 l3935 2BAC                                   l3871 29BC  
                                 l3919 2B06                                   l3855 2940  
                                 l3847 2920                                   l3839 28B4  
                                 l3791 2816                                   l3783 27F0  
                                 l3767 279C                                   l3775 27C6  
                                 l3759 2770                                   l2985 2490  
                                 l2969 2478                                   l2897 23F8  
                                 l3697 396C                                   l3689 393C  
                                 l3953 2C0E                                   l3945 2BF2  
                                 l3929 2B58                                   l3937 2BAE  
                                 l3881 29E6                                   l3873 29C8  
                                 l3865 2990                                   l3857 294A  
                                 l3849 292C                                   l3793 2826  
                                 l3785 27F6                                   l3777 27D6  
                                 l3769 27AC                                   l3961 307E  
                                 l2987 2494                                   l2979 2484  
                                 l2899 23FC                                   l3699 397A  
                                 l3955 2C1C                                   l3947 2C00  
                                 l3939 2BBE                                   l3891 2A58  
                                 l3875 29CC                                   l3867 29A0  
                                 l3859 296C                                   l3883 29EC  
                                 l3795 2836                                   l3787 2804  
                                 l3779 27DC                                   l3971 30BA  
                                 l3963 308A                                   l2997 24A8  
                                 l3957 2C1E                                   l3949 2C06  
                                 l3885 2A12                                   l3893 2A68  
                                 l3877 29DA                                   l3869 29AE  
                                 l3797 2838                                   l3789 2806  
                                 l3981 30EA                                   l3973 30CA  
                                 l3965 3098                                   l2999 24C0  
                                 l3895 2A8E                                   l3887 2A46  
                                 l3879 29DC                                   l3799 2840  
                                 l3991 3120                                   l3983 30F0  
                                 l3975 30CC                                   l3967 309A  
                                 l3897 2A9E                                   l3889 2A48  
                                 l3993 3130                                   l3985 30FE  
                                 l3969 30AA                                   l3977 30D4  
                                 l3995 3132                                   l3987 3100  
                                 l3979 30E4                                   l3989 3110  
                                 l3997 313A                                   l3999 314A  
                                 STR_1 2001                                   STR_2 200B  
                                 STR_3 2011                                   STR_4 200B  
                                 u1130 3B64                                   u1131 3B60  
                                 u1140 3AF4                                   u1141 3AF0  
                                 u1150 3B4A                                   u1151 3B46  
                                 u1160 3A3E                                   u3000 2F82  
                                 u1161 3A3A                                   u3001 2F7E  
                                 u3010 2F96                                   u3011 2F92  
                                 u2300 2816                                   u3020 2FB0  
                                 u3100 37EE                                   u2301 2812  
                                 u3021 2FAC                                   u3101 37EA  
                                 u2310 2826                                   u3030 2FF8  
                                 u3110 380E                                   u2311 2822  
                                 u3031 2FF4                                   u3111 380A  
                                 u2160 3996                                   u2400 296C  
                                 u2320 2862                                   u3040 3026  
                                 u3120 381E                                   u3200 3570  
                                 u2161 3992                                   u2401 2968  
                                 u2321 285E                                   u3041 3022  
                                 u3121 381A                                   u3201 356C  
                                 u2170 39A8                                   u2410 297C  
                                 u2330 2870                                   u2250 278A  
                                 u3050 3060                                   u3210 35AA  
                                 u3130 342A                                   u2171 39A4  
                                 u2411 2978                                   u2331 286C  
                                 u2251 2786                                   u3051 305C  
                                 u3211 35A6                                   u3131 3426  
                                 u2180 3912                                   u2500 2ADA  
                                 u2420 29AE                                   u2340 28DE  
                                 u2260 279C                                   u3060 3750  
                                 u3220 35B8                                   u3140 3438  
                                 u2181 390E                                   u2501 2AD6  
                                 u2421 29AA                                   u2341 28DA  
                                 u2261 2798                                   u3061 374C  
                                 u3221 35B4                                   u3141 3434  
                                 u2190 3920                                   u2510 2AF6  
                                 u2430 29BC                                   u2350 28F6  
                                 u2270 27AC                                   u3070 3784  
                                 u3150 3494                                   u3230 3738  
                                 u2191 391C                                   u2511 2AF2  
                                 u2431 29B8                                   u2351 28F0  
                                 u2271 27A8                                   u3151 3490  
                                 u3231 3734                                   u2600 2BCE  
                                 u2520 2B06                                   u2440 29DA  
                                 u2360 28F8                                   u2280 27EE  
                                 u3080 37B2                                   u3160 34EA  
                                 u3240 3866                                   u2601 2BCA  
                                 u2521 2B02                                   u2441 29D6  
                                 u2281 27EA                                   u3081 37AE  
                                 u3161 34E6                                   u3241 3862  
                                 u2610 2BEE                                   u2530 2B18  
                                 u2450 2A12                                   u2370 2920  
                                 u2290 2804                                   u3090 37C6  
                                 u3170 3534                                   u3250 3874  
                                 _T2PR 003FAB                                   u3307 39D4  
                                 u2611 2BEA                                   u2531 2B14  
                                 u2451 2A0E                                   u2371 291C  
                                 u2291 2800                                   u3091 37C2  
                                 u3075 377A                                   u3171 3530  
                                 u3251 3870                                   u2620 2C00  
                                 u2540 2B2E                                   u2460 2A58  
                                 u2380 293E                                   u2700 3160  
                                 u3180 3552                                   u3260 38FC  
                                 u2621 2BFC                                   u2541 2B2A  
                                 u2461 2A54                                   u2381 293A  
                                 u2701 315C                                   u3181 354E  
                                 u3261 38F8                                   u2630 2C1C  
                                 u2550 2B44                                   u2470 2A8E  
                                 u2390 295E                                   u2710 31A0  
                                 u3190 3562                                   u2631 2C18  
                                 u2551 2B40                                   u2471 2A8A  
                                 u2391 295A                                   u2711 319C  
                                 u3191 355E                                   u2560 2B58  
                                 u2480 2A9E                                   u2800 331A  
                                 u2720 3216                                   u2640 3098  
                                 u2561 2B54                                   u2481 2A9A  
                                 u2801 3316                                   u2721 3212  
                                 u2641 3094                                   u2570 2B72  
                                 u2490 2ACA                                   u2810 3330  
                                 u2730 3238                                   u2650 30AA  
                                 u2571 2B6E                                   u2491 2AC6  
                                 u2811 332C                                   u2731 3234  
                                 u2651 30A6                                   u2580 2BAC  
                                 u2820 3344                                   u2740 3262  
                                 u2660 30BA                                   u2900 2CAC  
                                 u2581 2BA8                                   u2821 3340  
                                 u2741 325E                                   u2661 30B6  
                                 u2901 2CA8                                   u3277 38BE  
                                 u2590 2BBE                                   u2830 335E  
                                 u2750 3286                                   u2670 30FE  
                                 u2910 2CBE                                   u3287 3928  
                                 u2591 2BBA                                   u2831 335A  
                                 u2751 3282                                   u2671 30FA  
                                 u2911 2CBA                                   u2840 33A6  
                                 u2760 329C                                   u2680 3110  
                                 u2920 2CCE                                   u3297 3972  
                                 u2841 33A2                                   u2761 3298  
                                 u2681 310C                                   u2921 2CCA  
                                 u2850 33D6                                   u2770 32BA  
                                 u2690 3120                                   u2930 2D04  
                                 u2851 33D2                                   u2771 32B6  
                                 u2691 311C                                   u2931 2D00  
                                 u2860 3404                                   u2780 32DA  
                                 u2940 2D14                                   u2861 3400  
                                 u2781 32D6                                   u2941 2D10  
                                 u2790 32EC                                   u2950 2EB2  
                                 u2870 2C4A                                   u2791 32E8  
                                 u2871 2C46                                   u2960 2F0C  
                                 u2880 2C5C                                   u2961 2F08  
                                 u2881 2C58                                   u2970 2F2C  
                                 u2890 2C6C                                   u2971 2F28  
                                 u2955 2EA8                                   u2891 2C68  
                                 u2980 2F3E                                   u2981 2F3A  
                                 u2990 2F6C                                   u2991 2F68  
                                 _PIR1 0039A1                                   _PIR2 0039A2  
                                 _PIR3 0039A3                                   _PIR4 0039A4  
                                 _PIR5 0039A5                                   _PIR6 0039A6  
                                 _PIR7 0039A7                                   _PIR8 0039A8  
                                 _PIR9 0039A9                                   _main 3840  
                                 prodh 003FF4                                   prodl 003FF3  
                     ?_configure_timer 0001                                   start 00AE  
                      ___fldiv@new_exp 0013                           ___param_bank 000000  
                    cw_message@message 0007                                  ??_dah 0004  
                                ??_dit 0002                            cw_message@i 000D  
                _initialize_interrupts 3B92                          ___fltol@sign1 004C  
                      __end_of___fladd 2C30                                  ?_main 0001  
                      __end_of___fldiv 3418                        __end_of___flmul 307E  
                      __end_of___fltol 3840                                  i1l125 3AC0  
                                i2l120 3B18                                  _PIR10 0039AA  
                                _TMR1H 003FB1                                  _TMR1L 003FB0  
  __end_of_deinitialize_tone_generator 3BBE            _deinitialize_tone_generator 3BB6  
                     __end_of_TMR1_ISR 3B1A                      ??_initialize_pins 0002  
                                tablat 003FF5          ??_deinitialize_tone_generator 0002  
                                status 003FD8             __size_of_cycle_transmitter 0070  
                   initialize_cw@speed 0003                        __initialization 3B1A  
                         __end_of_main 3904                                 ??_main 0058  
                        __activetblptr 000003                                 _ANSELA 003A40  
                               _RC4PPS 003A14                                 i1l2341 3A96  
                               i1l2351 3AB4                                 i1l2343 3AA4  
                               i1l2353 3AB8                                 i1l2345 3AA8  
                               i1l2355 3ABC                                 i1l2347 3AAC  
                               i1l2349 3AB0                                 i2l3735 3AF8  
                               i2l3737 3AFC                   __size_of_end_foxhunt 0080  
                               _TMR1IF 01CD20                       __end_of___xxtofl 35CC  
                     __end_of_dahspace 3AF6     __size_of_initialize_tone_generator 016E  
                     __end_of_ditspace 3B66                              ??___fladd 003C  
                            ??___fldiv 000A                              ??___flmul 0023  
                            ??___fltol 0048                 ?_initialize_interrupts 0001  
                               isa$std 000001                           __mediumconst 0000  
                               tblptrh 003FF7                                 tblptrl 003FF6  
                               tblptru 003FF8                 cw_message@message_size 0009  
               __size_of_initialize_cw 0046                           ___xxtofl@arg 000C  
                         ___xxtofl@exp 000B                           ___xxtofl@val 0002  
                           __accesstop 0060                __end_of__initialization 3B32  
                        ___rparam_used 000001                             ___fltol@f1 0044  
                       __pcstackCOMRAM 0001      __end_of_initialize_tone_generator 373A  
                         ?_tone_enable 0001                              ?_TMR1_ISR 0001  
                       ivt0x8_undefint 00AC                             __end_of_cw 2770  
               tone_enable@tone_active 0002               __size_of_deinitialize_cw 000C  
                           __pbssBANK0 0067                                IVTBASEH 003FD6  
                              IVTBASEL 003FD5                                IVTBASEU 003FD7  
                        _initialize_cw 3A48                             ??_TMR1_ISR 0001  
                      _initialize_pins 3B66                             _dit_length 0067  
                        ??_DEFAULT_ISR 0001                              ?___xxtofl 0002  
                            ?_dahspace 0001                                _PWM5CON 003F6E  
                      _transmit_change 0069                              ?_ditspace 0001  
                           _cw_message 39F4                                __Hparam 0000  
                              __Lparam 0000                         ?_initialize_cw 0003  
                              ___fladd 2770                                ___fldiv 307E  
                              ___flmul 2C30                                ___fltol 373A  
                         __psmallconst 2000               __size_of_configure_timer 000C  
                              __pcinit 3B1A                                __ramtop 2000  
                              __ptext0 3840                                __ptext1 35CC  
                              __ptext2 3418                                __ptext3 373A  
                              __ptext4 2C30                                __ptext5 307E  
                              __ptext6 2770                                __ptext7 3B66  
                              __ptext8 3B92                                __ptext9 3904  
                            _T1CLKbits 003FB5                              _T2CLKbits 003FAE  
                            _T1CONbits 003FB2                              _T2CONbits 003FAC  
                         __size_of_dah 000E                           __size_of_dit 000E  
                            _T4CLKbits 003FA2                             ??___xxtofl 0006  
                           ??_dahspace 0002                              _T4CONbits 003FA0  
                            _T4HLTbits 003FA1                    __end_of_DEFAULT_ISR 3AC8  
                 end_of_initialization 3B32                             ??_ditspace 0002  
                    ??_deinitialize_cw 0003    initialize_tone_generator@duty_cycle 0066  
              __end_of_initialize_pins 3B76                ??_initialize_interrupts 0002  
                 __size_of_tone_enable 001C                              _PORTAbits 003FCA  
                          ___fladd@grs 0043                          ___xxtofl@sign 000A  
                            _TRISAbits 003FC2                              _TRISCbits 003FC4  
                          ___fldiv@grs 0015                            ___fldiv@rem 000E  
                        ??_end_foxhunt 000F                            ?_cw_message 0007  
                          ___flmul@grs 0029                        ??_initialize_cw 0005  
                    __size_of_TMR1_ISR 0022                            _DEFAULT_ISR 3A90  
                  start_initialization 3B1A                      ??_configure_timer 0002  
                          __end_of_dah 3B92                            __end_of_dit 3B84  
                           ivt0x8_base 0008                    __end_of_end_foxhunt 3984  
                     ?_initialize_pins 0001                            _MD1CARHbits 003CFE  
           ?_initialize_tone_generator 004E                            _MD1CON0bits 003CFA  
                          _MD1CON1bits 003CFB                    __size_of_cw_message 0054  
initialize_tone_generator@duty_cycle_l 0064                              ___fladd@a 0038  
                            ___fladd@b 0034                              ___fldiv@a 0006  
                            ___fldiv@b 0002                              ___flmul@a 001F  
                            ___flmul@b 001B                            __pbssCOMRAM 0059  
                        __pcstackBANK0 0060           ?_deinitialize_tone_generator 0001  
                    __size_of___xxtofl 01B4                      __size_of_dahspace 002E  
                    __size_of_ditspace 0012                               ?___fladd 0034  
                             ?___fldiv 0002                               ?___flmul 001B  
                             ?___fltol 0044                            __smallconst 2000  
                      _deinitialize_cw 3B9E  initialize_tone_generator@period_value 0065  
                          _CPUDOZEbits 0039D8                            _end_foxhunt 3904  
                            dahspace@i 0002                            __size_of_cw 075A  
                             _T4PRbits 003F9F                               _PIE4bits 003994  
                             i2u223_40 3B14                               i2u223_41 3B0E  
                             i2u224_40 3B16                               _PIR4bits 0039A4  
       __size_of_initialize_interrupts 000C          __end_of_initialize_interrupts 3B9E  
                             _TMR1_ISR 3AF8                            cw@character 0006  
                          _INTCON0bits 003FD2                           ??_cw_message 000B  
       _initialize_tone_generator$1701 0060                               __Hrparam 0000  
                             __Lrparam 0000   __size_of_deinitialize_tone_generator 0008  
                        ??_tone_enable 0002                        _configure_timer 3BAA  
              __end_of_deinitialize_cw 3BAA                       __size_of___fladd 04C0  
                     __size_of___fldiv 039A                       __size_of___flmul 044E  
                     __size_of___fltol 0106                     __end_of_cw_message 3A48  
                         ?_DEFAULT_ISR 0001                             _MD1SRCbits 003CFC  
                             ___xxtofl 3418                               _dahspace 3AC8  
                             __pivt0x8 0008                               __ptext10 3BB6  
                             __ptext11 3984                               __ptext20 3B54  
                             __ptext12 3A48                               __ptext21 3BAA  
                             __ptext13 3B9E                             _T1GCONbits 003FB3  
                             __ptext22 3A90                               __ptext14 3B38  
                             __ptext23 3AF8                               __ptext15 39F4  
                             __ptext16 2016                               __ptext17 3B76  
                             __ptext18 3B84                               __ptext19 3AC8  
                             _ditspace 3B54                               _fox_hunt 006A  
                        __size_of_main 00C4                  __end_of_initialize_cw 3A8E  
                             isa$xinst 000000            ??_initialize_tone_generator 0056  
                             _transmit 0059                    __end_of_tone_enable 3B54  
                          _PWM5DCHbits 003F6D                            _PWM5DCLbits 003F6C  
                          _PWM5CONbits 003F6E                               intlevel1 0000  
                             intlevel2 0000                __end_of_configure_timer 3BB6  
                    _cycle_transmitter 3984                       ?_deinitialize_cw 0001  
                   ?_cycle_transmitter 0001               __size_of_initialize_pins 0010  
                  ??_cycle_transmitter 000F                           ?_end_foxhunt 0001  
                        ___fladd@signs 0040              _initialize_tone_generator 35CC  
    initialize_tone_generator@osc_freq 004E                           ___fladd@aexp 0041  
                         ___fladd@bexp 0042      initialize_tone_generator@pwm_freq 0052  
            __end_of_cycle_transmitter 39F4  
