

Microchip MPLAB XC8 Assembler V2.32 build 20210201212658 
                                                                                               Sat Apr 03 21:30:02 2021

Microchip MPLAB XC8 C Compiler v2.32 (Free license) build 20210201212658 Og1 
     1                           	processor	18F27K42
     2                           	fnconf	rparam,??,?,0
     3                           	pagewidth 120
     4                           	opt	flic
     5                           	psect	smallconst,global,reloc=2,class=SMALLCONST,delta=1,noexec
     6                           	psect	cinit,global,reloc=2,class=CODE,delta=1
     7                           	psect	bssCOMRAM,global,class=COMRAM,space=1,delta=1,lowdata,noexec
     8                           	psect	cstackBANK0,global,class=BANK0,space=1,delta=1,lowdata,noexec
     9                           	psect	cstackCOMRAM,global,class=COMRAM,space=1,delta=1,lowdata,noexec
    10                           	psect	text0,global,reloc=2,class=CODE,delta=1
    11                           	psect	text1,global,reloc=2,class=CODE,delta=1
    12                           	psect	text2,global,reloc=2,class=CODE,delta=1,group=1
    13                           	psect	text3,global,reloc=2,class=CODE,delta=1,group=1
    14                           	psect	text4,global,reloc=2,class=CODE,delta=1,group=1
    15                           	psect	text5,global,reloc=2,class=CODE,delta=1,group=1
    16                           	psect	text6,global,reloc=2,class=CODE,delta=1,group=1
    17                           	psect	text7,global,reloc=2,class=CODE,delta=1
    18                           	psect	text8,global,reloc=2,class=CODE,delta=1
    19                           	psect	text9,global,reloc=2,class=CODE,delta=1
    20                           	psect	text10,global,reloc=2,class=CODE,delta=1
    21                           	psect	text11,global,reloc=2,class=CODE,delta=1
    22                           	psect	text12,global,reloc=2,class=CODE,delta=1
    23                           	psect	text13,global,reloc=2,class=CODE,delta=1
    24                           	psect	text14,global,reloc=2,class=CODE,delta=1
    25                           	psect	text15,global,reloc=2,class=CODE,delta=1
    26                           	psect	text16,global,reloc=2,class=CODE,delta=1
    27                           	psect	intsave_regs,global,class=BIGRAM,space=1,delta=1,noexec
    28                           	psect	rparam,global,class=COMRAM,space=1,delta=1,noexec
    29                           	psect	idloc,global,abs,ovrld,class=IDLOC,space=5,delta=1,noexec
    30                           	psect	config,global,abs,ovrld,class=CONFIG,space=4,delta=1,noexec
    31  0000                     
    32                           ; Version 2.20
    33                           ; Generated 05/05/2020 GMT
    34                           ; 
    35                           ; Copyright © 2020, Microchip Technology Inc. and its subsidiaries ("Microchip")
    36                           ; All rights reserved.
    37                           ; 
    38                           ; This software is developed by Microchip Technology Inc. and its subsidiaries ("Microch
      +                          ip").
    39                           ; 
    40                           ; Redistribution and use in source and binary forms, with or without modification, are
    41                           ; permitted provided that the following conditions are met:
    42                           ; 
    43                           ;     1. Redistributions of source code must retain the above copyright notice, this lis
      +                          t of
    44                           ;        conditions and the following disclaimer.
    45                           ; 
    46                           ;     2. Redistributions in binary form must reproduce the above copyright notice, this 
      +                          list
    47                           ;        of conditions and the following disclaimer in the documentation and/or other
    48                           ;        materials provided with the distribution.
    49                           ; 
    50                           ;     3. Microchip's name may not be used to endorse or promote products derived from th
      +                          is
    51                           ;        software without specific prior written permission.
    52                           ; 
    53                           ; THIS SOFTWARE IS PROVIDED BY MICROCHIP "AS IS" AND ANY EXPRESS OR IMPLIED WARRANTIES,
    54                           ; INCLUDING, BUT NOT LIMITED TO, THE IMPLIED WARRANTIES OF MERCHANTABILITY AND FITNESS F
      +                          OR
    55                           ; PURPOSE ARE DISCLAIMED.  IN NO EVENT SHALL MICROCHIP BE LIABLE FOR ANY DIRECT, INDIREC
      +                          T,
    56                           ; INCIDENTAL, SPECIAL, EXEMPLARY, OR CONSEQUENTIAL DAMAGES (INCLUDING BUT NOT LIMITED TO
    57                           ; PROCUREMENT OF SUBSTITUTE GOODS OR SERVICES; LOSS OF USE, DATA OR PROFITS; OR BUSINESS
    58                           ; INTERRUPTION) HOWSOEVER CAUSED AND ON ANY THEORY OF LIABILITY, WHETHER IN CONTRACT, ST
      +                          RICT
    59                           ; LIABILITY, OR TORT (INCLUDING NEGLIGENCE OR OTHERWISE) ARISING IN ANY WAY OUT OF THE U
      +                          SE OF
    60                           ; THIS SOFTWARE, EVEN IF ADVISED OF THE POSSIBILITY OF SUCH DAMAGE.
    61                           ; 
    62                           ; 
    63                           ; Code-generator required, PIC18F27K42 Definitions
    64                           ; 
    65                           ; SFR Addresses
    66  0000                     _PIR4bits	set	14756
    67  0000                     _CPUDOZEbits	set	14808
    68  0000                     _RC4PPS	set	14868
    69  0000                     _ANSELA	set	14912
    70  0000                     _MD1CON0bits	set	15610
    71  0000                     _MD1SRCbits	set	15612
    72  0000                     _MD1CARHbits	set	15614
    73  0000                     _MD1CON1bits	set	15611
    74  0000                     _PWM5CONbits	set	16238
    75  0000                     _T2CONbits	set	16300
    76  0000                     _T2CLKbits	set	16302
    77  0000                     _PWM5DCHbits	set	16237
    78  0000                     _PWM5DCLbits	set	16236
    79  0000                     _T2PR	set	16299
    80  0000                     _PWM5CON	set	16238
    81  0000                     _T4HLTbits	set	16289
    82  0000                     _T4PRbits	set	16287
    83  0000                     _T4CONbits	set	16288
    84  0000                     _T4CLKbits	set	16290
    85  0000                     _PORTAbits	set	16330
    86  0000                     _TRISCbits	set	16324
    87  0000                     _TRISAbits	set	16322
    88                           
    89                           	psect	smallconst
    90  002000                     __psmallconst:
    91                           	callstack 0
    92  002000  00                 	db	0
    93  002001                     STR_2:
    94  002001  4E                 	db	78	;'N'
    95  002002  30                 	db	48	;'0'
    96  002003  4D                 	db	77	;'M'
    97  002004  43                 	db	67	;'C'
    98  002005  57                 	db	87	;'W'
    99  002006  00                 	db	0
   100  002007                     STR_1:
   101  002007  62                 	db	98	;'b'
   102  002008  65                 	db	101	;'e'
   103  002009  61                 	db	97	;'a'
   104  00200A  6E                 	db	110	;'n'
   105  00200B  73                 	db	115	;'s'
   106  00200C  00                 	db	0
   107  00200D  4F                 	db	79	;'O'
   108  00200E  4B                 	db	75	;'K'
   109  00200F  00                 	db	0
   110  002010  00                 	db	0	; dummy byte at the end
   111  0000                     
   112                           ; #config settings
   113                           
   114                           	psect	cinit
   115  0039FE                     __pcinit:
   116                           	callstack 0
   117  0039FE                     start_initialization:
   118                           	callstack 0
   119  0039FE                     __initialization:
   120                           	callstack 0
   121                           
   122                           ; Clear objects allocated to COMRAM (2 bytes)
   123  0039FE  6A58               	clrf	(__pbssCOMRAM+1)& (0+255),c
   124  003A00  6A57               	clrf	__pbssCOMRAM& (0+255),c
   125  003A02                     end_of_initialization:
   126                           	callstack 0
   127  003A02                     __end_of__initialization:
   128                           	callstack 0
   129  003A02  0100               	movlb	0
   130  003A04  EF28  F01C         	goto	_main	;jump to C main() function
   131                           
   132                           	psect	bssCOMRAM
   133  000057                     __pbssCOMRAM:
   134                           	callstack 0
   135  000057                     _dit_length:
   136                           	callstack 0
   137  000057                     	ds	2
   138                           
   139                           	psect	cstackBANK0
   140  000060                     __pcstackBANK0:
   141                           	callstack 0
   142  000060                     _initialize_tone_generator$1444:
   143                           	callstack 0
   144                           
   145                           ; 4 bytes @ 0x0
   146  000060                     	ds	4
   147  000064                     initialize_tone_generator@duty_cycle_l:
   148                           	callstack 0
   149                           
   150                           ; 2 bytes @ 0x4
   151  000064                     	ds	2
   152  000066                     initialize_tone_generator@period_value:
   153                           	callstack 0
   154                           
   155                           ; 2 bytes @ 0x6
   156  000066                     	ds	2
   157  000068                     initialize_tone_generator@duty_cycle:
   158                           	callstack 0
   159                           
   160                           ; 2 bytes @ 0x8
   161  000068                     	ds	2
   162                           
   163                           	psect	cstackCOMRAM
   164  000001                     __pcstackCOMRAM:
   165                           	callstack 0
   166  000001                     ?___fldiv:
   167                           	callstack 0
   168  000001                     ?___xxtofl:
   169                           	callstack 0
   170  000001                     tone_enable@tone_active:
   171                           	callstack 0
   172  000001                     dahspace@i:
   173                           	callstack 0
   174  000001                     ___fldiv@b:
   175                           	callstack 0
   176  000001                     ___xxtofl@val:
   177                           	callstack 0
   178                           
   179                           ; 4 bytes @ 0x0
   180  000001                     	ds	1
   181  000002                     initialize_cw@speed:
   182                           	callstack 0
   183                           
   184                           ; 2 bytes @ 0x1
   185  000002                     	ds	1
   186  000003                     ??_cw:
   187  000003                     
   188                           ; 1 bytes @ 0x2
   189  000003                     	ds	1
   190  000004                     
   191                           ; 1 bytes @ 0x3
   192  000004                     	ds	1
   193  000005                     ??___xxtofl:
   194  000005                     cw@character:
   195                           	callstack 0
   196  000005                     ___fldiv@a:
   197                           	callstack 0
   198                           
   199                           ; 4 bytes @ 0x4
   200  000005                     	ds	1
   201  000006                     cw_message@message:
   202                           	callstack 0
   203                           
   204                           ; 2 bytes @ 0x5
   205  000006                     	ds	2
   206  000008                     cw_message@message_size:
   207                           	callstack 0
   208                           
   209                           ; 2 bytes @ 0x7
   210  000008                     	ds	1
   211  000009                     ??___fldiv:
   212  000009                     ___xxtofl@sign:
   213                           	callstack 0
   214                           
   215                           ; 1 bytes @ 0x8
   216  000009                     	ds	1
   217  00000A                     ??_cw_message:
   218  00000A                     ___xxtofl@exp:
   219                           	callstack 0
   220                           
   221                           ; 1 bytes @ 0x9
   222  00000A                     	ds	1
   223  00000B                     ___xxtofl@arg:
   224                           	callstack 0
   225                           
   226                           ; 4 bytes @ 0xA
   227  00000B                     	ds	1
   228  00000C                     cw_message@i:
   229                           	callstack 0
   230                           
   231                           ; 2 bytes @ 0xB
   232  00000C                     	ds	1
   233  00000D                     ___fldiv@rem:
   234                           	callstack 0
   235                           
   236                           ; 4 bytes @ 0xC
   237  00000D                     	ds	4
   238  000011                     ___fldiv@sign:
   239                           	callstack 0
   240                           
   241                           ; 1 bytes @ 0x10
   242  000011                     	ds	1
   243  000012                     ___fldiv@new_exp:
   244                           	callstack 0
   245                           
   246                           ; 2 bytes @ 0x11
   247  000012                     	ds	2
   248  000014                     ___fldiv@grs:
   249                           	callstack 0
   250                           
   251                           ; 4 bytes @ 0x13
   252  000014                     	ds	4
   253  000018                     ___fldiv@bexp:
   254                           	callstack 0
   255                           
   256                           ; 1 bytes @ 0x17
   257  000018                     	ds	1
   258  000019                     ___fldiv@aexp:
   259                           	callstack 0
   260                           
   261                           ; 1 bytes @ 0x18
   262  000019                     	ds	1
   263  00001A                     ?___flmul:
   264                           	callstack 0
   265  00001A                     ___flmul@b:
   266                           	callstack 0
   267                           
   268                           ; 4 bytes @ 0x19
   269  00001A                     	ds	4
   270  00001E                     ___flmul@a:
   271                           	callstack 0
   272                           
   273                           ; 4 bytes @ 0x1D
   274  00001E                     	ds	4
   275  000022                     ??___flmul:
   276                           
   277                           ; 1 bytes @ 0x21
   278  000022                     	ds	4
   279  000026                     ___flmul@sign:
   280                           	callstack 0
   281                           
   282                           ; 1 bytes @ 0x25
   283  000026                     	ds	1
   284  000027                     ___flmul@grs:
   285                           	callstack 0
   286                           
   287                           ; 4 bytes @ 0x26
   288  000027                     	ds	4
   289  00002B                     ___flmul@aexp:
   290                           	callstack 0
   291                           
   292                           ; 1 bytes @ 0x2A
   293  00002B                     	ds	1
   294  00002C                     ___flmul@bexp:
   295                           	callstack 0
   296                           
   297                           ; 1 bytes @ 0x2B
   298  00002C                     	ds	1
   299  00002D                     ___flmul@prod:
   300                           	callstack 0
   301                           
   302                           ; 4 bytes @ 0x2C
   303  00002D                     	ds	4
   304  000031                     ___flmul@temp:
   305                           	callstack 0
   306                           
   307                           ; 2 bytes @ 0x30
   308  000031                     	ds	2
   309  000033                     ?___fladd:
   310                           	callstack 0
   311  000033                     ___fladd@b:
   312                           	callstack 0
   313                           
   314                           ; 4 bytes @ 0x32
   315  000033                     	ds	4
   316  000037                     ___fladd@a:
   317                           	callstack 0
   318                           
   319                           ; 4 bytes @ 0x36
   320  000037                     	ds	4
   321  00003B                     ??___fladd:
   322                           
   323                           ; 1 bytes @ 0x3A
   324  00003B                     	ds	4
   325  00003F                     ___fladd@signs:
   326                           	callstack 0
   327                           
   328                           ; 1 bytes @ 0x3E
   329  00003F                     	ds	1
   330  000040                     ___fladd@aexp:
   331                           	callstack 0
   332                           
   333                           ; 1 bytes @ 0x3F
   334  000040                     	ds	1
   335  000041                     ___fladd@bexp:
   336                           	callstack 0
   337                           
   338                           ; 1 bytes @ 0x40
   339  000041                     	ds	1
   340  000042                     ___fladd@grs:
   341                           	callstack 0
   342                           
   343                           ; 1 bytes @ 0x41
   344  000042                     	ds	1
   345  000043                     ?___fltol:
   346                           	callstack 0
   347  000043                     ___fltol@f1:
   348                           	callstack 0
   349                           
   350                           ; 4 bytes @ 0x42
   351  000043                     	ds	4
   352  000047                     ??___fltol:
   353                           
   354                           ; 1 bytes @ 0x46
   355  000047                     	ds	4
   356  00004B                     ___fltol@sign1:
   357                           	callstack 0
   358                           
   359                           ; 1 bytes @ 0x4A
   360  00004B                     	ds	1
   361  00004C                     ___fltol@exp1:
   362                           	callstack 0
   363                           
   364                           ; 1 bytes @ 0x4B
   365  00004C                     	ds	1
   366  00004D                     initialize_tone_generator@osc_freq:
   367                           	callstack 0
   368                           
   369                           ; 4 bytes @ 0x4C
   370  00004D                     	ds	4
   371  000051                     initialize_tone_generator@pwm_freq:
   372                           	callstack 0
   373                           
   374                           ; 4 bytes @ 0x50
   375  000051                     	ds	4
   376  000055                     ??_initialize_tone_generator:
   377                           
   378                           ; 1 bytes @ 0x54
   379  000055                     	ds	2
   380  000057                     
   381                           ; 1 bytes @ 0x56
   382 ;;
   383 ;;Main: autosize = 0, tempsize = 0, incstack = 0, save=0
   384 ;;
   385 ;; *************** function _main *****************
   386 ;; Defined at:
   387 ;;		line 23 in file "main.c"
   388 ;; Parameters:    Size  Location     Type
   389 ;;		None
   390 ;; Auto vars:     Size  Location     Type
   391 ;;  transmit        1    0        _Bool 
   392 ;;  transmit_cha    1    0        _Bool 
   393 ;;  fox_hunt        1    0        _Bool 
   394 ;; Return value:  Size  Location     Type
   395 ;;                  1    wreg      void 
   396 ;; Registers used:
   397 ;;		wreg, status,2, status,0, tblptrl, tblptrh, tblptru, prodl, prodh, cstack
   398 ;; Tracked objects:
   399 ;;		On entry : 0/0
   400 ;;		On exit  : 0/0
   401 ;;		Unchanged: 0/0
   402 ;; Data sizes:     COMRAM   BANK0   BANK1   BANK2   BANK3   BANK4   BANK5   BANK6   BANK7   BANK8   BANK9  BANK10  BANK1
      +1  BANK12  BANK13  BANK14  BANK15  BANK16  BANK17  BANK18  BANK19  BANK20  BANK21  BANK22  BANK23  BANK24  BANK25  BANK2
      +6  BANK27  BANK28  BANK29  BANK30  BANK31
   403 ;;      Params:         0       0       0       0       0       0       0       0       0       0       0       0       
      +0       0       0       0       0       0       0       0       0       0       0       0       0       0       0       
      +0       0       0       0       0       0
   404 ;;      Locals:         0       0       0       0       0       0       0       0       0       0       0       0       
      +0       0       0       0       0       0       0       0       0       0       0       0       0       0       0       
      +0       0       0       0       0       0
   405 ;;      Temps:          0       0       0       0       0       0       0       0       0       0       0       0       
      +0       0       0       0       0       0       0       0       0       0       0       0       0       0       0       
      +0       0       0       0       0       0
   406 ;;      Totals:         0       0       0       0       0       0       0       0       0       0       0       0       
      +0       0       0       0       0       0       0       0       0       0       0       0       0       0       0       
      +0       0       0       0       0       0
   407 ;;Total ram usage:        0 bytes
   408 ;; Hardware stack levels required when called: 5
   409 ;; This function calls:
   410 ;;		_cw_message
   411 ;;		_deinitialize_cw
   412 ;;		_deinitialize_tone_generator
   413 ;;		_initialize_cw
   414 ;;		_initialize_tone_generator
   415 ;; This function is called by:
   416 ;;		Startup code after reset
   417 ;; This function uses a non-reentrant model
   418 ;;
   419                           
   420                           	psect	text0
   421  003850                     __ptext0:
   422                           	callstack 0
   423  003850                     _main:
   424                           	callstack 26
   425  003850                     
   426                           ;main.c: 24:     ANSELA = 0x00;
   427  003850  0E00               	movlw	0
   428  003852  013A               	movlb	58	; () banked
   429  003854  6F40               	movwf	64,b	;volatile
   430  003856                     
   431                           ; BSR set to: 58
   432                           ;main.c: 25:     TRISAbits.TRISA0 = 1;
   433  003856  80C2               	bsf	194,0,c	;volatile
   434  003858                     
   435                           ; BSR set to: 58
   436                           ;main.c: 26:     TRISAbits.TRISA1 = 0;
   437  003858  92C2               	bcf	194,1,c	;volatile
   438  00385A                     
   439                           ; BSR set to: 58
   440                           ;main.c: 27:     TRISCbits.TRISC4 = 0;
   441  00385A  98C4               	bcf	196,4,c	;volatile
   442  00385C                     
   443                           ; BSR set to: 58
   444                           ;main.c: 32:         CPUDOZEbits.DOZE = 0b011;
   445  00385C  0139               	movlb	57	; () banked
   446  00385E  51D8               	movf	216,w,b	;volatile
   447  003860  0BF8               	andlw	-8
   448  003862  0903               	iorlw	3
   449  003864  6FD8               	movwf	216,b	;volatile
   450  003866                     
   451                           ; BSR set to: 57
   452                           ;main.c: 33:         CPUDOZEbits.DOZEN = 1;
   453  003866  8DD8               	bsf	216,6,b	;volatile
   454  003868                     l32:
   455  003868  A0CA               	btfss	202,0,c	;volatile
   456  00386A  EF39  F01C         	goto	u2061
   457  00386E  EF3B  F01C         	goto	u2060
   458  003872                     u2061:
   459  003872  EF34  F01C         	goto	l32
   460  003876                     u2060:
   461  003876                     
   462                           ;main.c: 35:         _delay((unsigned long)((1)*(31000UL/4000.0)));
   463  003876  D000               	nop2		;2 cycle nop
   464  003878  D000               	nop2		;2 cycle nop
   465  00387A  D000               	nop2		;2 cycle nop
   466  00387C  F000               	nop	
   467  00387E                     l35:
   468  00387E  B0CA               	btfsc	202,0,c	;volatile
   469  003880  EF44  F01C         	goto	u2071
   470  003884  EF46  F01C         	goto	u2070
   471  003888                     u2071:
   472  003888  EF3F  F01C         	goto	l35
   473  00388C                     u2070:
   474  00388C                     
   475                           ;main.c: 38:         CPUDOZEbits.DOZEN = 0;
   476  00388C  0139               	movlb	57	; () banked
   477  00388E  9DD8               	bcf	216,6,b	;volatile
   478  003890                     
   479                           ; BSR set to: 57
   480                           ;main.c: 40:         initialize_tone_generator(31000UL, 550);
   481  003890  0E00               	movlw	0
   482  003892  6E4D               	movwf	initialize_tone_generator@osc_freq^0,c
   483  003894  0E30               	movlw	48
   484  003896  6E4E               	movwf	(initialize_tone_generator@osc_freq+1)^0,c
   485  003898  0EF2               	movlw	242
   486  00389A  6E4F               	movwf	(initialize_tone_generator@osc_freq+2)^0,c
   487  00389C  0E46               	movlw	70
   488  00389E  6E50               	movwf	(initialize_tone_generator@osc_freq+3)^0,c
   489  0038A0  0E00               	movlw	0
   490  0038A2  6E51               	movwf	initialize_tone_generator@pwm_freq^0,c
   491  0038A4  0E80               	movlw	128
   492  0038A6  6E52               	movwf	(initialize_tone_generator@pwm_freq+1)^0,c
   493  0038A8  0E09               	movlw	9
   494  0038AA  6E53               	movwf	(initialize_tone_generator@pwm_freq+2)^0,c
   495  0038AC  0E44               	movlw	68
   496  0038AE  6E54               	movwf	(initialize_tone_generator@pwm_freq+3)^0,c
   497  0038B0  ECE4  F01A         	call	_initialize_tone_generator	;wreg free
   498  0038B4                     
   499                           ;main.c: 41:         initialize_cw(60);
   500  0038B4  0E00               	movlw	0
   501  0038B6  6E03               	movwf	(initialize_cw@speed+1)^0,c
   502  0038B8  0E3C               	movlw	60
   503  0038BA  6E02               	movwf	initialize_cw@speed^0,c
   504  0038BC  EC9A  F01C         	call	_initialize_cw	;wreg free
   505  0038C0                     
   506                           ;main.c: 44:         cw_message("beans", 5);
   507  0038C0  0E07               	movlw	low STR_1
   508  0038C2  6E06               	movwf	cw_message@message^0,c
   509  0038C4  0E20               	movlw	high STR_1
   510  0038C6  6E07               	movwf	(cw_message@message+1)^0,c
   511  0038C8  0E00               	movlw	0
   512  0038CA  6E09               	movwf	(cw_message@message_size+1)^0,c
   513  0038CC  0E05               	movlw	5
   514  0038CE  6E08               	movwf	cw_message@message_size^0,c
   515  0038D0  EC70  F01C         	call	_cw_message	;wreg free
   516  0038D4                     
   517                           ;main.c: 45:         deinitialize_cw();
   518  0038D4  ECF9  F01C         	call	_deinitialize_cw	;wreg free
   519  0038D8                     l38:
   520  0038D8  EF6C  F01C         	goto	l38
   521  0038DC  EFFE  F0FF         	goto	start
   522  0038E0                     __end_of_main:
   523                           	callstack 0
   524                           
   525 ;; *************** function _initialize_tone_generator *****************
   526 ;; Defined at:
   527 ;;		line 11 in file "tone_generator.c"
   528 ;; Parameters:    Size  Location     Type
   529 ;;  osc_freq        4   76[COMRAM] float 
   530 ;;  pwm_freq        4   80[COMRAM] float 
   531 ;; Auto vars:     Size  Location     Type
   532 ;;  duty_cycle      2    8[BANK0 ] unsigned int 
   533 ;;  period_value    2    6[BANK0 ] unsigned int 
   534 ;;  mask            2    0        unsigned int 
   535 ;;  duty_cycle_l    2    4[BANK0 ] unsigned int 
   536 ;; Return value:  Size  Location     Type
   537 ;;                  1    wreg      void 
   538 ;; Registers used:
   539 ;;		wreg, status,2, status,0, prodl, prodh, cstack
   540 ;; Tracked objects:
   541 ;;		On entry : 0/0
   542 ;;		On exit  : 0/0
   543 ;;		Unchanged: 0/0
   544 ;; Data sizes:     COMRAM   BANK0   BANK1   BANK2   BANK3   BANK4   BANK5   BANK6   BANK7   BANK8   BANK9  BANK10  BANK1
      +1  BANK12  BANK13  BANK14  BANK15  BANK16  BANK17  BANK18  BANK19  BANK20  BANK21  BANK22  BANK23  BANK24  BANK25  BANK2
      +6  BANK27  BANK28  BANK29  BANK30  BANK31
   545 ;;      Params:         8       0       0       0       0       0       0       0       0       0       0       0       
      +0       0       0       0       0       0       0       0       0       0       0       0       0       0       0       
      +0       0       0       0       0       0
   546 ;;      Locals:         0      10       0       0       0       0       0       0       0       0       0       0       
      +0       0       0       0       0       0       0       0       0       0       0       0       0       0       0       
      +0       0       0       0       0       0
   547 ;;      Temps:          2       0       0       0       0       0       0       0       0       0       0       0       
      +0       0       0       0       0       0       0       0       0       0       0       0       0       0       0       
      +0       0       0       0       0       0
   548 ;;      Totals:        10      10       0       0       0       0       0       0       0       0       0       0       
      +0       0       0       0       0       0       0       0       0       0       0       0       0       0       0       
      +0       0       0       0       0       0
   549 ;;Total ram usage:       20 bytes
   550 ;; Hardware stack levels used: 1
   551 ;; Hardware stack levels required when called: 1
   552 ;; This function calls:
   553 ;;		___fladd
   554 ;;		___fldiv
   555 ;;		___flmul
   556 ;;		___fltol
   557 ;;		___xxtofl
   558 ;; This function is called by:
   559 ;;		_main
   560 ;; This function uses a non-reentrant model
   561 ;;
   562                           
   563                           	psect	text1
   564  0035C8                     __ptext1:
   565                           	callstack 0
   566  0035C8                     _initialize_tone_generator:
   567                           	callstack 29
   568  0035C8                     
   569                           ;tone_generator.c: 12:     unsigned int period_value = (((1/pwm_freq) * osc_freq)/4) - 0
      +                          .5;
   570  0035C8  C04D  F01E         	movff	initialize_tone_generator@osc_freq,___flmul@a
   571  0035CC  C04E  F01F         	movff	initialize_tone_generator@osc_freq+1,___flmul@a+1
   572  0035D0  C04F  F020         	movff	initialize_tone_generator@osc_freq+2,___flmul@a+2
   573  0035D4  C050  F021         	movff	initialize_tone_generator@osc_freq+3,___flmul@a+3
   574  0035D8  C051  F005         	movff	initialize_tone_generator@pwm_freq,___fldiv@a
   575  0035DC  C052  F006         	movff	initialize_tone_generator@pwm_freq+1,___fldiv@a+1
   576  0035E0  C053  F007         	movff	initialize_tone_generator@pwm_freq+2,___fldiv@a+2
   577  0035E4  C054  F008         	movff	initialize_tone_generator@pwm_freq+3,___fldiv@a+3
   578  0035E8  0E00               	movlw	0
   579  0035EA  6E01               	movwf	___fldiv@b^0,c
   580  0035EC  0E00               	movlw	0
   581  0035EE  6E02               	movwf	(___fldiv@b+1)^0,c
   582  0035F0  0E80               	movlw	128
   583  0035F2  6E03               	movwf	(___fldiv@b+2)^0,c
   584  0035F4  0E3F               	movlw	63
   585  0035F6  6E04               	movwf	(___fldiv@b+3)^0,c
   586  0035F8  EC3D  F018         	call	___fldiv	;wreg free
   587  0035FC  C001  F01A         	movff	?___fldiv,___flmul@b
   588  003600  C002  F01B         	movff	?___fldiv+1,___flmul@b+1
   589  003604  C003  F01C         	movff	?___fldiv+2,___flmul@b+2
   590  003608  C004  F01D         	movff	?___fldiv+3,___flmul@b+3
   591  00360C  EC16  F016         	call	___flmul	;wreg free
   592  003610  C01A  F060         	movff	?___flmul,_initialize_tone_generator$1444
   593  003614  C01B  F061         	movff	?___flmul+1,_initialize_tone_generator$1444+1
   594  003618  C01C  F062         	movff	?___flmul+2,_initialize_tone_generator$1444+2
   595  00361C  C01D  F063         	movff	?___flmul+3,_initialize_tone_generator$1444+3
   596  003620                     
   597                           ;tone_generator.c: 12:     unsigned int period_value = (((1/pwm_freq) * osc_freq)/4) - 0
      +                          .5;
   598  003620  0E00               	movlw	0
   599  003622  6E37               	movwf	___fladd@a^0,c
   600  003624  0E00               	movlw	0
   601  003626  6E38               	movwf	(___fladd@a+1)^0,c
   602  003628  0E00               	movlw	0
   603  00362A  6E39               	movwf	(___fladd@a+2)^0,c
   604  00362C  0EBF               	movlw	191
   605  00362E  6E3A               	movwf	(___fladd@a+3)^0,c
   606  003630  0E00               	movlw	0
   607  003632  6E05               	movwf	___fldiv@a^0,c
   608  003634  0E00               	movlw	0
   609  003636  6E06               	movwf	(___fldiv@a+1)^0,c
   610  003638  0E80               	movlw	128
   611  00363A  6E07               	movwf	(___fldiv@a+2)^0,c
   612  00363C  0E40               	movlw	64
   613  00363E  6E08               	movwf	(___fldiv@a+3)^0,c
   614  003640  C060  F001         	movff	_initialize_tone_generator$1444,___fldiv@b
   615  003644  C061  F002         	movff	_initialize_tone_generator$1444+1,___fldiv@b+1
   616  003648  C062  F003         	movff	_initialize_tone_generator$1444+2,___fldiv@b+2
   617  00364C  C063  F004         	movff	_initialize_tone_generator$1444+3,___fldiv@b+3
   618  003650  EC3D  F018         	call	___fldiv	;wreg free
   619  003654  C001  F033         	movff	?___fldiv,___fladd@b
   620  003658  C002  F034         	movff	?___fldiv+1,___fladd@b+1
   621  00365C  C003  F035         	movff	?___fldiv+2,___fladd@b+2
   622  003660  C004  F036         	movff	?___fldiv+3,___fladd@b+3
   623  003664  ECB6  F013         	call	___fladd	;wreg free
   624  003668  C033  F043         	movff	?___fladd,___fltol@f1
   625  00366C  C034  F044         	movff	?___fladd+1,___fltol@f1+1
   626  003670  C035  F045         	movff	?___fladd+2,___fltol@f1+2
   627  003674  C036  F046         	movff	?___fladd+3,___fltol@f1+3
   628  003678  ECA5  F01B         	call	___fltol	;wreg free
   629  00367C  C043  F066         	movff	?___fltol,initialize_tone_generator@period_value
   630  003680  C044  F067         	movff	?___fltol+1,initialize_tone_generator@period_value+1
   631  003684                     
   632                           ;tone_generator.c: 13:     unsigned int duty_cycle = (2 * (period_value + 1)) + 0.5;
   633  003684  0E00               	movlw	0
   634  003686  6E37               	movwf	___fladd@a^0,c
   635  003688  0E00               	movlw	0
   636  00368A  6E38               	movwf	(___fladd@a+1)^0,c
   637  00368C  0E00               	movlw	0
   638  00368E  6E39               	movwf	(___fladd@a+2)^0,c
   639  003690  0E3F               	movlw	63
   640  003692  6E3A               	movwf	(___fladd@a+3)^0,c
   641  003694  C066  F055         	movff	initialize_tone_generator@period_value,??_initialize_tone_generator
   642  003698  C067  F056         	movff	initialize_tone_generator@period_value+1,??_initialize_tone_generator+1
   643  00369C  90D8               	bcf	status,0,c
   644  00369E  3655               	rlcf	??_initialize_tone_generator^0,f,c
   645  0036A0  3656               	rlcf	(??_initialize_tone_generator+1)^0,f,c
   646  0036A2  0E02               	movlw	2
   647  0036A4  2655               	addwf	??_initialize_tone_generator^0,f,c
   648  0036A6  0E00               	movlw	0
   649  0036A8  2256               	addwfc	(??_initialize_tone_generator+1)^0,f,c
   650  0036AA  C055  F001         	movff	??_initialize_tone_generator,___xxtofl@val
   651  0036AE  C056  F002         	movff	??_initialize_tone_generator+1,___xxtofl@val+1
   652  0036B2  6A03               	clrf	(___xxtofl@val+2)^0,c
   653  0036B4  6A04               	clrf	(___xxtofl@val+3)^0,c
   654  0036B6  0E00               	movlw	0
   655  0036B8  EC0A  F01A         	call	___xxtofl
   656  0036BC  C001  F033         	movff	?___xxtofl,___fladd@b
   657  0036C0  C002  F034         	movff	?___xxtofl+1,___fladd@b+1
   658  0036C4  C003  F035         	movff	?___xxtofl+2,___fladd@b+2
   659  0036C8  C004  F036         	movff	?___xxtofl+3,___fladd@b+3
   660  0036CC  ECB6  F013         	call	___fladd	;wreg free
   661  0036D0  C033  F043         	movff	?___fladd,___fltol@f1
   662  0036D4  C034  F044         	movff	?___fladd+1,___fltol@f1+1
   663  0036D8  C035  F045         	movff	?___fladd+2,___fltol@f1+2
   664  0036DC  C036  F046         	movff	?___fladd+3,___fltol@f1+3
   665  0036E0  ECA5  F01B         	call	___fltol	;wreg free
   666  0036E4  C043  F068         	movff	?___fltol,initialize_tone_generator@duty_cycle
   667  0036E8  C044  F069         	movff	?___fltol+1,initialize_tone_generator@duty_cycle+1
   668  0036EC                     
   669                           ;tone_generator.c: 18:     duty_cycle_l = duty_cycle & mask;
   670  0036EC  0E03               	movlw	3
   671  0036EE  0100               	movlb	0	; () banked
   672  0036F0  1568               	andwf	initialize_tone_generator@duty_cycle& (0+255),w,b
   673  0036F2  6F64               	movwf	initialize_tone_generator@duty_cycle_l& (0+255),b
   674  0036F4  6B65               	clrf	(initialize_tone_generator@duty_cycle_l+1)& (0+255),b
   675  0036F6                     
   676                           ; BSR set to: 0
   677                           ;tone_generator.c: 20:     TRISCbits.TRISC2 = 1;
   678  0036F6  84C4               	bsf	196,2,c	;volatile
   679  0036F8                     
   680                           ; BSR set to: 0
   681                           ;tone_generator.c: 21:     PWM5CON = 0x00;
   682  0036F8  0E00               	movlw	0
   683  0036FA  6E6E               	movwf	110,c	;volatile
   684  0036FC                     
   685                           ; BSR set to: 0
   686                           ;tone_generator.c: 22:     T2PR = period_value;
   687  0036FC  0060  F19B  FFAB   	movff	initialize_tone_generator@period_value,16299	;volatile
   688  003702                     
   689                           ; BSR set to: 0
   690                           ;tone_generator.c: 23:     PWM5DCLbits.DC = duty_cycle_l;
   691  003702  C064  F055         	movff	initialize_tone_generator@duty_cycle_l,??_initialize_tone_generator
   692  003706  3A55               	swapf	??_initialize_tone_generator^0,f,c
   693  003708  4655               	rlncf	??_initialize_tone_generator^0,f,c
   694  00370A  4655               	rlncf	??_initialize_tone_generator^0,f,c
   695  00370C  506C               	movf	108,w,c	;volatile
   696  00370E  1855               	xorwf	??_initialize_tone_generator^0,w,c
   697  003710  0B3F               	andlw	-193
   698  003712  1855               	xorwf	??_initialize_tone_generator^0,w,c
   699  003714  6E6C               	movwf	108,c	;volatile
   700  003716                     
   701                           ; BSR set to: 0
   702                           ;tone_generator.c: 24:     PWM5DCHbits.DC = duty_cycle >> 2;
   703  003716  C068  F055         	movff	initialize_tone_generator@duty_cycle,??_initialize_tone_generator
   704  00371A  C069  F056         	movff	initialize_tone_generator@duty_cycle+1,??_initialize_tone_generator+1
   705  00371E  90D8               	bcf	status,0,c
   706  003720  3256               	rrcf	(??_initialize_tone_generator+1)^0,f,c
   707  003722  3255               	rrcf	??_initialize_tone_generator^0,f,c
   708  003724  90D8               	bcf	status,0,c
   709  003726  3256               	rrcf	(??_initialize_tone_generator+1)^0,f,c
   710  003728  3255               	rrcf	??_initialize_tone_generator^0,f,c
   711  00372A  5055               	movf	??_initialize_tone_generator^0,w,c
   712  00372C  6E6D               	movwf	109,c	;volatile
   713  00372E                     
   714                           ; BSR set to: 0
   715                           ;tone_generator.c: 26:     PIR4bits.TMR2IF = 0;
   716  00372E  0139               	movlb	57	; () banked
   717  003730  95A4               	bcf	164,2,b	;volatile
   718  003732                     
   719                           ; BSR set to: 57
   720                           ;tone_generator.c: 27:     T2CLKbits.CS0 = 1;
   721  003732  80AE               	bsf	174,0,c	;volatile
   722  003734                     
   723                           ; BSR set to: 57
   724                           ;tone_generator.c: 28:     T2CONbits.CKPS = 0b000;
   725  003734  0E8F               	movlw	-113
   726  003736  16AC               	andwf	172,f,c	;volatile
   727  003738                     
   728                           ; BSR set to: 57
   729                           ;tone_generator.c: 29:     T2CONbits.ON = 1;
   730  003738  8EAC               	bsf	172,7,c	;volatile
   731  00373A                     l220:
   732                           
   733                           ; BSR set to: 57
   734  00373A  A5A4               	btfss	164,2,b	;volatile
   735  00373C  EFA2  F01B         	goto	u2041
   736  003740  EFA4  F01B         	goto	u2040
   737  003744                     u2041:
   738  003744  EF9D  F01B         	goto	l220
   739  003748                     u2040:
   740  003748                     
   741                           ; BSR set to: 57
   742  003748  0012               	return		;funcret
   743  00374A                     __end_of_initialize_tone_generator:
   744                           	callstack 0
   745                           
   746 ;; *************** function ___xxtofl *****************
   747 ;; Defined at:
   748 ;;		line 10 in file "C:\Program Files\Microchip\xc8\v2.32\pic\sources\c99\common\xxtofl.c"
   749 ;; Parameters:    Size  Location     Type
   750 ;;  sign            1    wreg     unsigned char 
   751 ;;  val             4    0[COMRAM] long 
   752 ;; Auto vars:     Size  Location     Type
   753 ;;  sign            1    8[COMRAM] unsigned char 
   754 ;;  arg             4   10[COMRAM] unsigned long 
   755 ;;  exp             1    9[COMRAM] unsigned char 
   756 ;; Return value:  Size  Location     Type
   757 ;;                  4    0[COMRAM] unsigned char 
   758 ;; Registers used:
   759 ;;		wreg, status,2, status,0
   760 ;; Tracked objects:
   761 ;;		On entry : 0/0
   762 ;;		On exit  : 0/0
   763 ;;		Unchanged: 0/0
   764 ;; Data sizes:     COMRAM   BANK0   BANK1   BANK2   BANK3   BANK4   BANK5   BANK6   BANK7   BANK8   BANK9  BANK10  BANK1
      +1  BANK12  BANK13  BANK14  BANK15  BANK16  BANK17  BANK18  BANK19  BANK20  BANK21  BANK22  BANK23  BANK24  BANK25  BANK2
      +6  BANK27  BANK28  BANK29  BANK30  BANK31
   765 ;;      Params:         4       0       0       0       0       0       0       0       0       0       0       0       
      +0       0       0       0       0       0       0       0       0       0       0       0       0       0       0       
      +0       0       0       0       0       0
   766 ;;      Locals:         6       0       0       0       0       0       0       0       0       0       0       0       
      +0       0       0       0       0       0       0       0       0       0       0       0       0       0       0       
      +0       0       0       0       0       0
   767 ;;      Temps:          4       0       0       0       0       0       0       0       0       0       0       0       
      +0       0       0       0       0       0       0       0       0       0       0       0       0       0       0       
      +0       0       0       0       0       0
   768 ;;      Totals:        14       0       0       0       0       0       0       0       0       0       0       0       
      +0       0       0       0       0       0       0       0       0       0       0       0       0       0       0       
      +0       0       0       0       0       0
   769 ;;Total ram usage:       14 bytes
   770 ;; Hardware stack levels used: 1
   771 ;; This function calls:
   772 ;;		Nothing
   773 ;; This function is called by:
   774 ;;		_initialize_tone_generator
   775 ;; This function uses a non-reentrant model
   776 ;;
   777                           
   778                           	psect	text2
   779  003414                     __ptext2:
   780                           	callstack 0
   781  003414                     ___xxtofl:
   782                           	callstack 29
   783                           
   784                           ; BSR set to: 57
   785                           ;incstack = 0
   786                           ;___xxtofl@sign stored from wreg
   787  003414  6E09               	movwf	___xxtofl@sign^0,c
   788  003416  5009               	movf	___xxtofl@sign^0,w,c
   789  003418  B4D8               	btfsc	status,2,c
   790  00341A  EF11  F01A         	goto	u1941
   791  00341E  EF13  F01A         	goto	u1940
   792  003422                     u1941:
   793  003422  EF35  F01A         	goto	l889
   794  003426                     u1940:
   795  003426  BE04               	btfsc	(___xxtofl@val+3)^0,7,c
   796  003428  EF1A  F01A         	goto	u1950
   797  00342C  EF18  F01A         	goto	u1951
   798  003430                     u1951:
   799  003430  EF35  F01A         	goto	l889
   800  003434                     u1950:
   801  003434  C001  F005         	movff	___xxtofl@val,??___xxtofl
   802  003438  C002  F006         	movff	___xxtofl@val+1,??___xxtofl+1
   803  00343C  C003  F007         	movff	___xxtofl@val+2,??___xxtofl+2
   804  003440  C004  F008         	movff	___xxtofl@val+3,??___xxtofl+3
   805  003444  1E05               	comf	??___xxtofl^0,f,c
   806  003446  1E06               	comf	(??___xxtofl+1)^0,f,c
   807  003448  1E07               	comf	(??___xxtofl+2)^0,f,c
   808  00344A  1E08               	comf	(??___xxtofl+3)^0,f,c
   809  00344C  2A05               	incf	??___xxtofl^0,f,c
   810  00344E  0E00               	movlw	0
   811  003450  2206               	addwfc	(??___xxtofl+1)^0,f,c
   812  003452  2207               	addwfc	(??___xxtofl+2)^0,f,c
   813  003454  2208               	addwfc	(??___xxtofl+3)^0,f,c
   814  003456  C005  F00B         	movff	??___xxtofl,___xxtofl@arg
   815  00345A  C006  F00C         	movff	??___xxtofl+1,___xxtofl@arg+1
   816  00345E  C007  F00D         	movff	??___xxtofl+2,___xxtofl@arg+2
   817  003462  C008  F00E         	movff	??___xxtofl+3,___xxtofl@arg+3
   818  003466  EF3D  F01A         	goto	l2763
   819  00346A                     l889:
   820  00346A  C001  F00B         	movff	___xxtofl@val,___xxtofl@arg
   821  00346E  C002  F00C         	movff	___xxtofl@val+1,___xxtofl@arg+1
   822  003472  C003  F00D         	movff	___xxtofl@val+2,___xxtofl@arg+2
   823  003476  C004  F00E         	movff	___xxtofl@val+3,___xxtofl@arg+3
   824  00347A                     l2763:
   825  00347A  5001               	movf	___xxtofl@val^0,w,c
   826  00347C  1002               	iorwf	(___xxtofl@val+1)^0,w,c
   827  00347E  1003               	iorwf	(___xxtofl@val+2)^0,w,c
   828  003480  1004               	iorwf	(___xxtofl@val+3)^0,w,c
   829  003482  A4D8               	btfss	status,2,c
   830  003484  EF46  F01A         	goto	u1961
   831  003488  EF48  F01A         	goto	u1960
   832  00348C                     u1961:
   833  00348C  EF52  F01A         	goto	l2769
   834  003490                     u1960:
   835  003490  0E00               	movlw	0
   836  003492  6E01               	movwf	?___xxtofl^0,c
   837  003494  0E00               	movlw	0
   838  003496  6E02               	movwf	(?___xxtofl+1)^0,c
   839  003498  0E00               	movlw	0
   840  00349A  6E03               	movwf	(?___xxtofl+2)^0,c
   841  00349C  0E00               	movlw	0
   842  00349E  6E04               	movwf	(?___xxtofl+3)^0,c
   843  0034A0  EFE3  F01A         	goto	l892
   844  0034A4                     l2769:
   845  0034A4  0E96               	movlw	150
   846  0034A6  6E0A               	movwf	___xxtofl@exp^0,c
   847  0034A8  EF5C  F01A         	goto	l2773
   848  0034AC                     l2771:
   849  0034AC  2A0A               	incf	___xxtofl@exp^0,f,c
   850  0034AE  90D8               	bcf	status,0,c
   851  0034B0  320E               	rrcf	(___xxtofl@arg+3)^0,f,c
   852  0034B2  320D               	rrcf	(___xxtofl@arg+2)^0,f,c
   853  0034B4  320C               	rrcf	(___xxtofl@arg+1)^0,f,c
   854  0034B6  320B               	rrcf	___xxtofl@arg^0,f,c
   855  0034B8                     l2773:
   856  0034B8  0E00               	movlw	0
   857  0034BA  140B               	andwf	___xxtofl@arg^0,w,c
   858  0034BC  6E05               	movwf	??___xxtofl^0,c
   859  0034BE  0E00               	movlw	0
   860  0034C0  140C               	andwf	(___xxtofl@arg+1)^0,w,c
   861  0034C2  6E06               	movwf	(??___xxtofl+1)^0,c
   862  0034C4  0E00               	movlw	0
   863  0034C6  140D               	andwf	(___xxtofl@arg+2)^0,w,c
   864  0034C8  6E07               	movwf	(??___xxtofl+2)^0,c
   865  0034CA  0EFE               	movlw	254
   866  0034CC  140E               	andwf	(___xxtofl@arg+3)^0,w,c
   867  0034CE  6E08               	movwf	(??___xxtofl+3)^0,c
   868  0034D0  5005               	movf	??___xxtofl^0,w,c
   869  0034D2  1006               	iorwf	(??___xxtofl+1)^0,w,c
   870  0034D4  1007               	iorwf	(??___xxtofl+2)^0,w,c
   871  0034D6  1008               	iorwf	(??___xxtofl+3)^0,w,c
   872  0034D8  A4D8               	btfss	status,2,c
   873  0034DA  EF71  F01A         	goto	u1971
   874  0034DE  EF73  F01A         	goto	u1970
   875  0034E2                     u1971:
   876  0034E2  EF56  F01A         	goto	l2771
   877  0034E6                     u1970:
   878  0034E6  EF81  F01A         	goto	l896
   879  0034EA                     l2775:
   880  0034EA  2A0A               	incf	___xxtofl@exp^0,f,c
   881  0034EC  0E01               	movlw	1
   882  0034EE  260B               	addwf	___xxtofl@arg^0,f,c
   883  0034F0  0E00               	movlw	0
   884  0034F2  220C               	addwfc	(___xxtofl@arg+1)^0,f,c
   885  0034F4  220D               	addwfc	(___xxtofl@arg+2)^0,f,c
   886  0034F6  220E               	addwfc	(___xxtofl@arg+3)^0,f,c
   887  0034F8  90D8               	bcf	status,0,c
   888  0034FA  320E               	rrcf	(___xxtofl@arg+3)^0,f,c
   889  0034FC  320D               	rrcf	(___xxtofl@arg+2)^0,f,c
   890  0034FE  320C               	rrcf	(___xxtofl@arg+1)^0,f,c
   891  003500  320B               	rrcf	___xxtofl@arg^0,f,c
   892  003502                     l896:
   893  003502  0E00               	movlw	0
   894  003504  140B               	andwf	___xxtofl@arg^0,w,c
   895  003506  6E05               	movwf	??___xxtofl^0,c
   896  003508  0E00               	movlw	0
   897  00350A  140C               	andwf	(___xxtofl@arg+1)^0,w,c
   898  00350C  6E06               	movwf	(??___xxtofl+1)^0,c
   899  00350E  0E00               	movlw	0
   900  003510  140D               	andwf	(___xxtofl@arg+2)^0,w,c
   901  003512  6E07               	movwf	(??___xxtofl+2)^0,c
   902  003514  0EFF               	movlw	255
   903  003516  140E               	andwf	(___xxtofl@arg+3)^0,w,c
   904  003518  6E08               	movwf	(??___xxtofl+3)^0,c
   905  00351A  5005               	movf	??___xxtofl^0,w,c
   906  00351C  1006               	iorwf	(??___xxtofl+1)^0,w,c
   907  00351E  1007               	iorwf	(??___xxtofl+2)^0,w,c
   908  003520  1008               	iorwf	(??___xxtofl+3)^0,w,c
   909  003522  A4D8               	btfss	status,2,c
   910  003524  EF96  F01A         	goto	u1981
   911  003528  EF98  F01A         	goto	u1980
   912  00352C                     u1981:
   913  00352C  EF75  F01A         	goto	l2775
   914  003530                     u1980:
   915  003530  EFA0  F01A         	goto	l2783
   916  003534                     l2781:
   917  003534  060A               	decf	___xxtofl@exp^0,f,c
   918  003536  90D8               	bcf	status,0,c
   919  003538  360B               	rlcf	___xxtofl@arg^0,f,c
   920  00353A  360C               	rlcf	(___xxtofl@arg+1)^0,f,c
   921  00353C  360D               	rlcf	(___xxtofl@arg+2)^0,f,c
   922  00353E  360E               	rlcf	(___xxtofl@arg+3)^0,f,c
   923  003540                     l2783:
   924  003540  BE0D               	btfsc	(___xxtofl@arg+2)^0,7,c
   925  003542  EFA5  F01A         	goto	u1991
   926  003546  EFA7  F01A         	goto	u1990
   927  00354A                     u1991:
   928  00354A  EFAF  F01A         	goto	l903
   929  00354E                     u1990:
   930  00354E  0E02               	movlw	2
   931  003550  600A               	cpfslt	___xxtofl@exp^0,c
   932  003552  EFAD  F01A         	goto	u2001
   933  003556  EFAF  F01A         	goto	u2000
   934  00355A                     u2001:
   935  00355A  EF9A  F01A         	goto	l2781
   936  00355E                     u2000:
   937  00355E                     l903:
   938  00355E  B00A               	btfsc	___xxtofl@exp^0,0,c
   939  003560  EFB4  F01A         	goto	u2011
   940  003564  EFB6  F01A         	goto	u2010
   941  003568                     u2011:
   942  003568  EFB7  F01A         	goto	l2789
   943  00356C                     u2010:
   944  00356C  9E0D               	bcf	(___xxtofl@arg+2)^0,7,c
   945  00356E                     l2789:
   946  00356E  90D8               	bcf	status,0,c
   947  003570  320A               	rrcf	___xxtofl@exp^0,f,c
   948  003572  C00A  F005         	movff	___xxtofl@exp,??___xxtofl
   949  003576  6A06               	clrf	(??___xxtofl+1)^0,c
   950  003578  6A07               	clrf	(??___xxtofl+2)^0,c
   951  00357A  6A08               	clrf	(??___xxtofl+3)^0,c
   952  00357C  C005  F008         	movff	??___xxtofl,??___xxtofl+3
   953  003580  6A07               	clrf	(??___xxtofl+2)^0,c
   954  003582  6A06               	clrf	(??___xxtofl+1)^0,c
   955  003584  6A05               	clrf	??___xxtofl^0,c
   956  003586  5005               	movf	??___xxtofl^0,w,c
   957  003588  120B               	iorwf	___xxtofl@arg^0,f,c
   958  00358A  5006               	movf	(??___xxtofl+1)^0,w,c
   959  00358C  120C               	iorwf	(___xxtofl@arg+1)^0,f,c
   960  00358E  5007               	movf	(??___xxtofl+2)^0,w,c
   961  003590  120D               	iorwf	(___xxtofl@arg+2)^0,f,c
   962  003592  5008               	movf	(??___xxtofl+3)^0,w,c
   963  003594  120E               	iorwf	(___xxtofl@arg+3)^0,f,c
   964  003596  5009               	movf	___xxtofl@sign^0,w,c
   965  003598  B4D8               	btfsc	status,2,c
   966  00359A  EFD1  F01A         	goto	u2021
   967  00359E  EFD3  F01A         	goto	u2020
   968  0035A2                     u2021:
   969  0035A2  EFDB  F01A         	goto	l2799
   970  0035A6                     u2020:
   971  0035A6  BE04               	btfsc	(___xxtofl@val+3)^0,7,c
   972  0035A8  EFDA  F01A         	goto	u2030
   973  0035AC  EFD8  F01A         	goto	u2031
   974  0035B0                     u2031:
   975  0035B0  EFDB  F01A         	goto	l2799
   976  0035B4                     u2030:
   977  0035B4  8E0E               	bsf	(___xxtofl@arg+3)^0,7,c
   978  0035B6                     l2799:
   979  0035B6  C00B  F001         	movff	___xxtofl@arg,?___xxtofl
   980  0035BA  C00C  F002         	movff	___xxtofl@arg+1,?___xxtofl+1
   981  0035BE  C00D  F003         	movff	___xxtofl@arg+2,?___xxtofl+2
   982  0035C2  C00E  F004         	movff	___xxtofl@arg+3,?___xxtofl+3
   983  0035C6                     l892:
   984  0035C6  0012               	return		;funcret
   985  0035C8                     __end_of___xxtofl:
   986                           	callstack 0
   987                           
   988 ;; *************** function ___fltol *****************
   989 ;; Defined at:
   990 ;;		line 43 in file "C:\Program Files\Microchip\xc8\v2.32\pic\sources\c99\common\fltol.c"
   991 ;; Parameters:    Size  Location     Type
   992 ;;  f1              4   66[COMRAM] unsigned char 
   993 ;; Auto vars:     Size  Location     Type
   994 ;;  exp1            1   75[COMRAM] unsigned char 
   995 ;;  sign1           1   74[COMRAM] unsigned char 
   996 ;; Return value:  Size  Location     Type
   997 ;;                  4   66[COMRAM] long 
   998 ;; Registers used:
   999 ;;		wreg, status,2, status,0
  1000 ;; Tracked objects:
  1001 ;;		On entry : 0/0
  1002 ;;		On exit  : 0/0
  1003 ;;		Unchanged: 0/0
  1004 ;; Data sizes:     COMRAM   BANK0   BANK1   BANK2   BANK3   BANK4   BANK5   BANK6   BANK7   BANK8   BANK9  BANK10  BANK1
      +1  BANK12  BANK13  BANK14  BANK15  BANK16  BANK17  BANK18  BANK19  BANK20  BANK21  BANK22  BANK23  BANK24  BANK25  BANK2
      +6  BANK27  BANK28  BANK29  BANK30  BANK31
  1005 ;;      Params:         4       0       0       0       0       0       0       0       0       0       0       0       
      +0       0       0       0       0       0       0       0       0       0       0       0       0       0       0       
      +0       0       0       0       0       0
  1006 ;;      Locals:         2       0       0       0       0       0       0       0       0       0       0       0       
      +0       0       0       0       0       0       0       0       0       0       0       0       0       0       0       
      +0       0       0       0       0       0
  1007 ;;      Temps:          4       0       0       0       0       0       0       0       0       0       0       0       
      +0       0       0       0       0       0       0       0       0       0       0       0       0       0       0       
      +0       0       0       0       0       0
  1008 ;;      Totals:        10       0       0       0       0       0       0       0       0       0       0       0       
      +0       0       0       0       0       0       0       0       0       0       0       0       0       0       0       
      +0       0       0       0       0       0
  1009 ;;Total ram usage:       10 bytes
  1010 ;; Hardware stack levels used: 1
  1011 ;; This function calls:
  1012 ;;		Nothing
  1013 ;; This function is called by:
  1014 ;;		_initialize_tone_generator
  1015 ;; This function uses a non-reentrant model
  1016 ;;
  1017                           
  1018                           	psect	text3
  1019  00374A                     __ptext3:
  1020                           	callstack 0
  1021  00374A                     ___fltol:
  1022                           	callstack 29
  1023  00374A  3445               	rlcf	(___fltol@f1+2)^0,w,c
  1024  00374C  3446               	rlcf	(___fltol@f1+3)^0,w,c
  1025  00374E  6E4C               	movwf	___fltol@exp1^0,c
  1026  003750  504C               	movf	___fltol@exp1^0,w,c
  1027  003752  A4D8               	btfss	status,2,c
  1028  003754  EFAE  F01B         	goto	u1871
  1029  003758  EFB0  F01B         	goto	u1870
  1030  00375C                     u1871:
  1031  00375C  EFBA  F01B         	goto	l2719
  1032  003760                     u1870:
  1033  003760                     l2715:
  1034  003760  0E00               	movlw	0
  1035  003762  6E43               	movwf	?___fltol^0,c
  1036  003764  0E00               	movlw	0
  1037  003766  6E44               	movwf	(?___fltol+1)^0,c
  1038  003768  0E00               	movlw	0
  1039  00376A  6E45               	movwf	(?___fltol+2)^0,c
  1040  00376C  0E00               	movlw	0
  1041  00376E  6E46               	movwf	(?___fltol+3)^0,c
  1042  003770  EF27  F01C         	goto	l531
  1043  003774                     l2719:
  1044  003774  C043  F047         	movff	___fltol@f1,??___fltol
  1045  003778  C044  F048         	movff	___fltol@f1+1,??___fltol+1
  1046  00377C  C045  F049         	movff	___fltol@f1+2,??___fltol+2
  1047  003780  C046  F04A         	movff	___fltol@f1+3,??___fltol+3
  1048  003784  0E20               	movlw	32
  1049  003786  EFCA  F01B         	goto	u1880
  1050  00378A                     u1885:
  1051  00378A  90D8               	bcf	status,0,c
  1052  00378C  324A               	rrcf	(??___fltol+3)^0,f,c
  1053  00378E  3249               	rrcf	(??___fltol+2)^0,f,c
  1054  003790  3248               	rrcf	(??___fltol+1)^0,f,c
  1055  003792  3247               	rrcf	??___fltol^0,f,c
  1056  003794                     u1880:
  1057  003794  2EE8               	decfsz	wreg,f,c
  1058  003796  EFC5  F01B         	goto	u1885
  1059  00379A  5047               	movf	??___fltol^0,w,c
  1060  00379C  6E4B               	movwf	___fltol@sign1^0,c
  1061  00379E  8E45               	bsf	(___fltol@f1+2)^0,7,c
  1062  0037A0  0EFF               	movlw	255
  1063  0037A2  1643               	andwf	___fltol@f1^0,f,c
  1064  0037A4  0EFF               	movlw	255
  1065  0037A6  1644               	andwf	(___fltol@f1+1)^0,f,c
  1066  0037A8  0EFF               	movlw	255
  1067  0037AA  1645               	andwf	(___fltol@f1+2)^0,f,c
  1068  0037AC  0E00               	movlw	0
  1069  0037AE  1646               	andwf	(___fltol@f1+3)^0,f,c
  1070  0037B0  0E96               	movlw	150
  1071  0037B2  5E4C               	subwf	___fltol@exp1^0,f,c
  1072  0037B4  BE4C               	btfsc	___fltol@exp1^0,7,c
  1073  0037B6  EFE1  F01B         	goto	u1890
  1074  0037BA  EFDF  F01B         	goto	u1891
  1075  0037BE                     u1891:
  1076  0037BE  EFF7  F01B         	goto	l2739
  1077  0037C2                     u1890:
  1078  0037C2  504C               	movf	___fltol@exp1^0,w,c
  1079  0037C4  0A80               	xorlw	128
  1080  0037C6  0F97               	addlw	151
  1081  0037C8  B0D8               	btfsc	status,0,c
  1082  0037CA  EFE9  F01B         	goto	u1901
  1083  0037CE  EFEB  F01B         	goto	u1900
  1084  0037D2                     u1901:
  1085  0037D2  EFED  F01B         	goto	l2735
  1086  0037D6                     u1900:
  1087  0037D6  EFB0  F01B         	goto	l2715
  1088  0037DA                     l2735:
  1089  0037DA  90D8               	bcf	status,0,c
  1090  0037DC  3246               	rrcf	(___fltol@f1+3)^0,f,c
  1091  0037DE  3245               	rrcf	(___fltol@f1+2)^0,f,c
  1092  0037E0  3244               	rrcf	(___fltol@f1+1)^0,f,c
  1093  0037E2  3243               	rrcf	___fltol@f1^0,f,c
  1094  0037E4  3E4C               	incfsz	___fltol@exp1^0,f,c
  1095  0037E6  EFED  F01B         	goto	l2735
  1096  0037EA  EF0F  F01C         	goto	l2749
  1097  0037EE                     l2739:
  1098  0037EE  0E1F               	movlw	31
  1099  0037F0  644C               	cpfsgt	___fltol@exp1^0,c
  1100  0037F2  EFFD  F01B         	goto	u1911
  1101  0037F6  EFFF  F01B         	goto	u1910
  1102  0037FA                     u1911:
  1103  0037FA  EF07  F01C         	goto	l2747
  1104  0037FE                     u1910:
  1105  0037FE  EFB0  F01B         	goto	l2715
  1106  003802                     l2745:
  1107  003802  90D8               	bcf	status,0,c
  1108  003804  3643               	rlcf	___fltol@f1^0,f,c
  1109  003806  3644               	rlcf	(___fltol@f1+1)^0,f,c
  1110  003808  3645               	rlcf	(___fltol@f1+2)^0,f,c
  1111  00380A  3646               	rlcf	(___fltol@f1+3)^0,f,c
  1112  00380C  064C               	decf	___fltol@exp1^0,f,c
  1113  00380E                     l2747:
  1114  00380E  504C               	movf	___fltol@exp1^0,w,c
  1115  003810  A4D8               	btfss	status,2,c
  1116  003812  EF0D  F01C         	goto	u1921
  1117  003816  EF0F  F01C         	goto	u1920
  1118  00381A                     u1921:
  1119  00381A  EF01  F01C         	goto	l2745
  1120  00381E                     u1920:
  1121  00381E                     l2749:
  1122  00381E  504B               	movf	___fltol@sign1^0,w,c
  1123  003820  B4D8               	btfsc	status,2,c
  1124  003822  EF15  F01C         	goto	u1931
  1125  003826  EF17  F01C         	goto	u1930
  1126  00382A                     u1931:
  1127  00382A  EF1F  F01C         	goto	l2753
  1128  00382E                     u1930:
  1129  00382E  1E46               	comf	(___fltol@f1+3)^0,f,c
  1130  003830  1E45               	comf	(___fltol@f1+2)^0,f,c
  1131  003832  1E44               	comf	(___fltol@f1+1)^0,f,c
  1132  003834  6C43               	negf	___fltol@f1^0,c
  1133  003836  0E00               	movlw	0
  1134  003838  2244               	addwfc	(___fltol@f1+1)^0,f,c
  1135  00383A  2245               	addwfc	(___fltol@f1+2)^0,f,c
  1136  00383C  2246               	addwfc	(___fltol@f1+3)^0,f,c
  1137  00383E                     l2753:
  1138  00383E  C043  F043         	movff	___fltol@f1,?___fltol
  1139  003842  C044  F044         	movff	___fltol@f1+1,?___fltol+1
  1140  003846  C045  F045         	movff	___fltol@f1+2,?___fltol+2
  1141  00384A  C046  F046         	movff	___fltol@f1+3,?___fltol+3
  1142  00384E                     l531:
  1143  00384E  0012               	return		;funcret
  1144  003850                     __end_of___fltol:
  1145                           	callstack 0
  1146                           
  1147 ;; *************** function ___flmul *****************
  1148 ;; Defined at:
  1149 ;;		line 8 in file "C:\Program Files\Microchip\xc8\v2.32\pic\sources\c99\common\sprcmul.c"
  1150 ;; Parameters:    Size  Location     Type
  1151 ;;  b               4   25[COMRAM] long 
  1152 ;;  a               4   29[COMRAM] long 
  1153 ;; Auto vars:     Size  Location     Type
  1154 ;;  prod            4   44[COMRAM] struct .
  1155 ;;  grs             4   38[COMRAM] unsigned long 
  1156 ;;  temp            2   48[COMRAM] struct .
  1157 ;;  bexp            1   43[COMRAM] unsigned char 
  1158 ;;  aexp            1   42[COMRAM] unsigned char 
  1159 ;;  sign            1   37[COMRAM] unsigned char 
  1160 ;; Return value:  Size  Location     Type
  1161 ;;                  4   25[COMRAM] unsigned char 
  1162 ;; Registers used:
  1163 ;;		wreg, status,2, status,0, prodl, prodh
  1164 ;; Tracked objects:
  1165 ;;		On entry : 0/0
  1166 ;;		On exit  : 0/0
  1167 ;;		Unchanged: 0/0
  1168 ;; Data sizes:     COMRAM   BANK0   BANK1   BANK2   BANK3   BANK4   BANK5   BANK6   BANK7   BANK8   BANK9  BANK10  BANK1
      +1  BANK12  BANK13  BANK14  BANK15  BANK16  BANK17  BANK18  BANK19  BANK20  BANK21  BANK22  BANK23  BANK24  BANK25  BANK2
      +6  BANK27  BANK28  BANK29  BANK30  BANK31
  1169 ;;      Params:         8       0       0       0       0       0       0       0       0       0       0       0       
      +0       0       0       0       0       0       0       0       0       0       0       0       0       0       0       
      +0       0       0       0       0       0
  1170 ;;      Locals:        13       0       0       0       0       0       0       0       0       0       0       0       
      +0       0       0       0       0       0       0       0       0       0       0       0       0       0       0       
      +0       0       0       0       0       0
  1171 ;;      Temps:          4       0       0       0       0       0       0       0       0       0       0       0       
      +0       0       0       0       0       0       0       0       0       0       0       0       0       0       0       
      +0       0       0       0       0       0
  1172 ;;      Totals:        25       0       0       0       0       0       0       0       0       0       0       0       
      +0       0       0       0       0       0       0       0       0       0       0       0       0       0       0       
      +0       0       0       0       0       0
  1173 ;;Total ram usage:       25 bytes
  1174 ;; Hardware stack levels used: 1
  1175 ;; This function calls:
  1176 ;;		Nothing
  1177 ;; This function is called by:
  1178 ;;		_initialize_tone_generator
  1179 ;; This function uses a non-reentrant model
  1180 ;;
  1181                           
  1182                           	psect	text4
  1183  002C2C                     __ptext4:
  1184                           	callstack 0
  1185  002C2C                     ___flmul:
  1186                           	callstack 29
  1187  002C2C  501D               	movf	(___flmul@b+3)^0,w,c
  1188  002C2E  0B80               	andlw	128
  1189  002C30  6E26               	movwf	___flmul@sign^0,c
  1190  002C32  501D               	movf	(___flmul@b+3)^0,w,c
  1191  002C34  241D               	addwf	(___flmul@b+3)^0,w,c
  1192  002C36  6E2C               	movwf	___flmul@bexp^0,c
  1193  002C38  AE1C               	btfss	(___flmul@b+2)^0,7,c
  1194  002C3A  EF21  F016         	goto	u1681
  1195  002C3E  EF23  F016         	goto	u1680
  1196  002C42                     u1681:
  1197  002C42  EF24  F016         	goto	l2589
  1198  002C46                     u1680:
  1199  002C46  802C               	bsf	___flmul@bexp^0,0,c
  1200  002C48                     l2589:
  1201  002C48  502C               	movf	___flmul@bexp^0,w,c
  1202  002C4A  B4D8               	btfsc	status,2,c
  1203  002C4C  EF2A  F016         	goto	u1691
  1204  002C50  EF2C  F016         	goto	u1690
  1205  002C54                     u1691:
  1206  002C54  EF3F  F016         	goto	l2597
  1207  002C58                     u1690:
  1208  002C58  282C               	incf	___flmul@bexp^0,w,c
  1209  002C5A  A4D8               	btfss	status,2,c
  1210  002C5C  EF32  F016         	goto	u1701
  1211  002C60  EF34  F016         	goto	u1700
  1212  002C64                     u1701:
  1213  002C64  EF3C  F016         	goto	l2595
  1214  002C68                     u1700:
  1215  002C68  0E00               	movlw	0
  1216  002C6A  6E1A               	movwf	___flmul@b^0,c
  1217  002C6C  0E00               	movlw	0
  1218  002C6E  6E1B               	movwf	(___flmul@b+1)^0,c
  1219  002C70  0E00               	movlw	0
  1220  002C72  6E1C               	movwf	(___flmul@b+2)^0,c
  1221  002C74  0E00               	movlw	0
  1222  002C76  6E1D               	movwf	(___flmul@b+3)^0,c
  1223  002C78                     l2595:
  1224  002C78  8E1C               	bsf	(___flmul@b+2)^0,7,c
  1225  002C7A  EF47  F016         	goto	l2599
  1226  002C7E                     l2597:
  1227  002C7E  0E00               	movlw	0
  1228  002C80  6E1A               	movwf	___flmul@b^0,c
  1229  002C82  0E00               	movlw	0
  1230  002C84  6E1B               	movwf	(___flmul@b+1)^0,c
  1231  002C86  0E00               	movlw	0
  1232  002C88  6E1C               	movwf	(___flmul@b+2)^0,c
  1233  002C8A  0E00               	movlw	0
  1234  002C8C  6E1D               	movwf	(___flmul@b+3)^0,c
  1235  002C8E                     l2599:
  1236  002C8E  5021               	movf	(___flmul@a+3)^0,w,c
  1237  002C90  0B80               	andlw	128
  1238  002C92  1A26               	xorwf	___flmul@sign^0,f,c
  1239  002C94  5021               	movf	(___flmul@a+3)^0,w,c
  1240  002C96  2421               	addwf	(___flmul@a+3)^0,w,c
  1241  002C98  6E2B               	movwf	___flmul@aexp^0,c
  1242  002C9A  AE20               	btfss	(___flmul@a+2)^0,7,c
  1243  002C9C  EF52  F016         	goto	u1711
  1244  002CA0  EF54  F016         	goto	u1710
  1245  002CA4                     u1711:
  1246  002CA4  EF55  F016         	goto	l2607
  1247  002CA8                     u1710:
  1248  002CA8  802B               	bsf	___flmul@aexp^0,0,c
  1249  002CAA                     l2607:
  1250  002CAA  502B               	movf	___flmul@aexp^0,w,c
  1251  002CAC  B4D8               	btfsc	status,2,c
  1252  002CAE  EF5B  F016         	goto	u1721
  1253  002CB2  EF5D  F016         	goto	u1720
  1254  002CB6                     u1721:
  1255  002CB6  EF70  F016         	goto	l2615
  1256  002CBA                     u1720:
  1257  002CBA  282B               	incf	___flmul@aexp^0,w,c
  1258  002CBC  A4D8               	btfss	status,2,c
  1259  002CBE  EF63  F016         	goto	u1731
  1260  002CC2  EF65  F016         	goto	u1730
  1261  002CC6                     u1731:
  1262  002CC6  EF6D  F016         	goto	l2613
  1263  002CCA                     u1730:
  1264  002CCA  0E00               	movlw	0
  1265  002CCC  6E1E               	movwf	___flmul@a^0,c
  1266  002CCE  0E00               	movlw	0
  1267  002CD0  6E1F               	movwf	(___flmul@a+1)^0,c
  1268  002CD2  0E00               	movlw	0
  1269  002CD4  6E20               	movwf	(___flmul@a+2)^0,c
  1270  002CD6  0E00               	movlw	0
  1271  002CD8  6E21               	movwf	(___flmul@a+3)^0,c
  1272  002CDA                     l2613:
  1273  002CDA  8E20               	bsf	(___flmul@a+2)^0,7,c
  1274  002CDC  EF78  F016         	goto	l848
  1275  002CE0                     l2615:
  1276  002CE0  0E00               	movlw	0
  1277  002CE2  6E1E               	movwf	___flmul@a^0,c
  1278  002CE4  0E00               	movlw	0
  1279  002CE6  6E1F               	movwf	(___flmul@a+1)^0,c
  1280  002CE8  0E00               	movlw	0
  1281  002CEA  6E20               	movwf	(___flmul@a+2)^0,c
  1282  002CEC  0E00               	movlw	0
  1283  002CEE  6E21               	movwf	(___flmul@a+3)^0,c
  1284  002CF0                     l848:
  1285  002CF0  502B               	movf	___flmul@aexp^0,w,c
  1286  002CF2  B4D8               	btfsc	status,2,c
  1287  002CF4  EF7E  F016         	goto	u1741
  1288  002CF8  EF80  F016         	goto	u1740
  1289  002CFC                     u1741:
  1290  002CFC  EF88  F016         	goto	l2619
  1291  002D00                     u1740:
  1292  002D00  502C               	movf	___flmul@bexp^0,w,c
  1293  002D02  A4D8               	btfss	status,2,c
  1294  002D04  EF86  F016         	goto	u1751
  1295  002D08  EF88  F016         	goto	u1750
  1296  002D0C                     u1751:
  1297  002D0C  EF92  F016         	goto	l2623
  1298  002D10                     u1750:
  1299  002D10                     l2619:
  1300  002D10  0E00               	movlw	0
  1301  002D12  6E1A               	movwf	?___flmul^0,c
  1302  002D14  0E00               	movlw	0
  1303  002D16  6E1B               	movwf	(?___flmul+1)^0,c
  1304  002D18  0E00               	movlw	0
  1305  002D1A  6E1C               	movwf	(?___flmul+2)^0,c
  1306  002D1C  0E00               	movlw	0
  1307  002D1E  6E1D               	movwf	(?___flmul+3)^0,c
  1308  002D20  EF3C  F018         	goto	l852
  1309  002D24                     l2623:
  1310  002D24  5020               	movf	(___flmul@a+2)^0,w,c
  1311  002D26  021A               	mulwf	___flmul@b^0,c
  1312  002D28  006F FFCC  F031    	movff	prodl,___flmul@temp
  1313  002D2E  006F FFD0  F032    	movff	prodh,___flmul@temp+1
  1314  002D34  5031               	movf	___flmul@temp^0,w,c
  1315  002D36  6E27               	movwf	___flmul@grs^0,c
  1316  002D38  6A28               	clrf	(___flmul@grs+1)^0,c
  1317  002D3A  6A29               	clrf	(___flmul@grs+2)^0,c
  1318  002D3C  6A2A               	clrf	(___flmul@grs+3)^0,c
  1319  002D3E  5032               	movf	(___flmul@temp+1)^0,w,c
  1320  002D40  6E2D               	movwf	___flmul@prod^0,c
  1321  002D42  6A2E               	clrf	(___flmul@prod+1)^0,c
  1322  002D44  6A2F               	clrf	(___flmul@prod+2)^0,c
  1323  002D46  6A30               	clrf	(___flmul@prod+3)^0,c
  1324  002D48  501F               	movf	(___flmul@a+1)^0,w,c
  1325  002D4A  021B               	mulwf	(___flmul@b+1)^0,c
  1326  002D4C  006F FFCC  F031    	movff	prodl,___flmul@temp
  1327  002D52  006F FFD0  F032    	movff	prodh,___flmul@temp+1
  1328  002D58  5031               	movf	___flmul@temp^0,w,c
  1329  002D5A  2627               	addwf	___flmul@grs^0,f,c
  1330  002D5C  0E00               	movlw	0
  1331  002D5E  2228               	addwfc	(___flmul@grs+1)^0,f,c
  1332  002D60  2229               	addwfc	(___flmul@grs+2)^0,f,c
  1333  002D62  222A               	addwfc	(___flmul@grs+3)^0,f,c
  1334  002D64  5032               	movf	(___flmul@temp+1)^0,w,c
  1335  002D66  262D               	addwf	___flmul@prod^0,f,c
  1336  002D68  0E00               	movlw	0
  1337  002D6A  222E               	addwfc	(___flmul@prod+1)^0,f,c
  1338  002D6C  222F               	addwfc	(___flmul@prod+2)^0,f,c
  1339  002D6E  2230               	addwfc	(___flmul@prod+3)^0,f,c
  1340  002D70  501E               	movf	___flmul@a^0,w,c
  1341  002D72  021C               	mulwf	(___flmul@b+2)^0,c
  1342  002D74  006F FFCC  F031    	movff	prodl,___flmul@temp
  1343  002D7A  006F FFD0  F032    	movff	prodh,___flmul@temp+1
  1344  002D80  5031               	movf	___flmul@temp^0,w,c
  1345  002D82  2627               	addwf	___flmul@grs^0,f,c
  1346  002D84  0E00               	movlw	0
  1347  002D86  2228               	addwfc	(___flmul@grs+1)^0,f,c
  1348  002D88  2229               	addwfc	(___flmul@grs+2)^0,f,c
  1349  002D8A  222A               	addwfc	(___flmul@grs+3)^0,f,c
  1350  002D8C  5032               	movf	(___flmul@temp+1)^0,w,c
  1351  002D8E  262D               	addwf	___flmul@prod^0,f,c
  1352  002D90  0E00               	movlw	0
  1353  002D92  222E               	addwfc	(___flmul@prod+1)^0,f,c
  1354  002D94  222F               	addwfc	(___flmul@prod+2)^0,f,c
  1355  002D96  2230               	addwfc	(___flmul@prod+3)^0,f,c
  1356  002D98  C029  F02A         	movff	___flmul@grs+2,___flmul@grs+3
  1357  002D9C  C028  F029         	movff	___flmul@grs+1,___flmul@grs+2
  1358  002DA0  C027  F028         	movff	___flmul@grs,___flmul@grs+1
  1359  002DA4  6A27               	clrf	___flmul@grs^0,c
  1360  002DA6  501E               	movf	___flmul@a^0,w,c
  1361  002DA8  021B               	mulwf	(___flmul@b+1)^0,c
  1362  002DAA  006F FFCC  F031    	movff	prodl,___flmul@temp
  1363  002DB0  006F FFD0  F032    	movff	prodh,___flmul@temp+1
  1364  002DB6  5031               	movf	___flmul@temp^0,w,c
  1365  002DB8  2627               	addwf	___flmul@grs^0,f,c
  1366  002DBA  5032               	movf	(___flmul@temp+1)^0,w,c
  1367  002DBC  2228               	addwfc	(___flmul@grs+1)^0,f,c
  1368  002DBE  0E00               	movlw	0
  1369  002DC0  2229               	addwfc	(___flmul@grs+2)^0,f,c
  1370  002DC2  0E00               	movlw	0
  1371  002DC4  222A               	addwfc	(___flmul@grs+3)^0,f,c
  1372  002DC6  501F               	movf	(___flmul@a+1)^0,w,c
  1373  002DC8  021A               	mulwf	___flmul@b^0,c
  1374  002DCA  006F FFCC  F031    	movff	prodl,___flmul@temp
  1375  002DD0  006F FFD0  F032    	movff	prodh,___flmul@temp+1
  1376  002DD6  5031               	movf	___flmul@temp^0,w,c
  1377  002DD8  2627               	addwf	___flmul@grs^0,f,c
  1378  002DDA  5032               	movf	(___flmul@temp+1)^0,w,c
  1379  002DDC  2228               	addwfc	(___flmul@grs+1)^0,f,c
  1380  002DDE  0E00               	movlw	0
  1381  002DE0  2229               	addwfc	(___flmul@grs+2)^0,f,c
  1382  002DE2  0E00               	movlw	0
  1383  002DE4  222A               	addwfc	(___flmul@grs+3)^0,f,c
  1384  002DE6  C029  F02A         	movff	___flmul@grs+2,___flmul@grs+3
  1385  002DEA  C028  F029         	movff	___flmul@grs+1,___flmul@grs+2
  1386  002DEE  C027  F028         	movff	___flmul@grs,___flmul@grs+1
  1387  002DF2  6A27               	clrf	___flmul@grs^0,c
  1388  002DF4  501E               	movf	___flmul@a^0,w,c
  1389  002DF6  021A               	mulwf	___flmul@b^0,c
  1390  002DF8  006F FFCC  F031    	movff	prodl,___flmul@temp
  1391  002DFE  006F FFD0  F032    	movff	prodh,___flmul@temp+1
  1392  002E04  5031               	movf	___flmul@temp^0,w,c
  1393  002E06  2627               	addwf	___flmul@grs^0,f,c
  1394  002E08  5032               	movf	(___flmul@temp+1)^0,w,c
  1395  002E0A  2228               	addwfc	(___flmul@grs+1)^0,f,c
  1396  002E0C  0E00               	movlw	0
  1397  002E0E  2229               	addwfc	(___flmul@grs+2)^0,f,c
  1398  002E10  0E00               	movlw	0
  1399  002E12  222A               	addwfc	(___flmul@grs+3)^0,f,c
  1400  002E14  5020               	movf	(___flmul@a+2)^0,w,c
  1401  002E16  021B               	mulwf	(___flmul@b+1)^0,c
  1402  002E18  006F FFCC  F031    	movff	prodl,___flmul@temp
  1403  002E1E  006F FFD0  F032    	movff	prodh,___flmul@temp+1
  1404  002E24  5031               	movf	___flmul@temp^0,w,c
  1405  002E26  262D               	addwf	___flmul@prod^0,f,c
  1406  002E28  5032               	movf	(___flmul@temp+1)^0,w,c
  1407  002E2A  222E               	addwfc	(___flmul@prod+1)^0,f,c
  1408  002E2C  0E00               	movlw	0
  1409  002E2E  222F               	addwfc	(___flmul@prod+2)^0,f,c
  1410  002E30  0E00               	movlw	0
  1411  002E32  2230               	addwfc	(___flmul@prod+3)^0,f,c
  1412  002E34  501F               	movf	(___flmul@a+1)^0,w,c
  1413  002E36  021C               	mulwf	(___flmul@b+2)^0,c
  1414  002E38  006F FFCC  F031    	movff	prodl,___flmul@temp
  1415  002E3E  006F FFD0  F032    	movff	prodh,___flmul@temp+1
  1416  002E44  5031               	movf	___flmul@temp^0,w,c
  1417  002E46  262D               	addwf	___flmul@prod^0,f,c
  1418  002E48  5032               	movf	(___flmul@temp+1)^0,w,c
  1419  002E4A  222E               	addwfc	(___flmul@prod+1)^0,f,c
  1420  002E4C  0E00               	movlw	0
  1421  002E4E  222F               	addwfc	(___flmul@prod+2)^0,f,c
  1422  002E50  0E00               	movlw	0
  1423  002E52  2230               	addwfc	(___flmul@prod+3)^0,f,c
  1424  002E54  5020               	movf	(___flmul@a+2)^0,w,c
  1425  002E56  021C               	mulwf	(___flmul@b+2)^0,c
  1426  002E58  006F FFCC  F031    	movff	prodl,___flmul@temp
  1427  002E5E  006F FFD0  F032    	movff	prodh,___flmul@temp+1
  1428  002E64  5031               	movf	___flmul@temp^0,w,c
  1429  002E66  6E22               	movwf	??___flmul^0,c
  1430  002E68  5032               	movf	(___flmul@temp+1)^0,w,c
  1431  002E6A  6E23               	movwf	(??___flmul+1)^0,c
  1432  002E6C  6A24               	clrf	(??___flmul+2)^0,c
  1433  002E6E  6A25               	clrf	(??___flmul+3)^0,c
  1434  002E70  C024  F025         	movff	??___flmul+2,??___flmul+3
  1435  002E74  C023  F024         	movff	??___flmul+1,??___flmul+2
  1436  002E78  C022  F023         	movff	??___flmul,??___flmul+1
  1437  002E7C  6A22               	clrf	??___flmul^0,c
  1438  002E7E  5022               	movf	??___flmul^0,w,c
  1439  002E80  262D               	addwf	___flmul@prod^0,f,c
  1440  002E82  5023               	movf	(??___flmul+1)^0,w,c
  1441  002E84  222E               	addwfc	(___flmul@prod+1)^0,f,c
  1442  002E86  5024               	movf	(??___flmul+2)^0,w,c
  1443  002E88  222F               	addwfc	(___flmul@prod+2)^0,f,c
  1444  002E8A  5025               	movf	(??___flmul+3)^0,w,c
  1445  002E8C  2230               	addwfc	(___flmul@prod+3)^0,f,c
  1446  002E8E  C027  F022         	movff	___flmul@grs,??___flmul
  1447  002E92  C028  F023         	movff	___flmul@grs+1,??___flmul+1
  1448  002E96  C029  F024         	movff	___flmul@grs+2,??___flmul+2
  1449  002E9A  C02A  F025         	movff	___flmul@grs+3,??___flmul+3
  1450  002E9E  0E19               	movlw	25
  1451  002EA0  EF57  F017         	goto	u1760
  1452  002EA4                     u1765:
  1453  002EA4  90D8               	bcf	status,0,c
  1454  002EA6  3225               	rrcf	(??___flmul+3)^0,f,c
  1455  002EA8  3224               	rrcf	(??___flmul+2)^0,f,c
  1456  002EAA  3223               	rrcf	(??___flmul+1)^0,f,c
  1457  002EAC  3222               	rrcf	??___flmul^0,f,c
  1458  002EAE                     u1760:
  1459  002EAE  2EE8               	decfsz	wreg,f,c
  1460  002EB0  EF52  F017         	goto	u1765
  1461  002EB4  5022               	movf	??___flmul^0,w,c
  1462  002EB6  262D               	addwf	___flmul@prod^0,f,c
  1463  002EB8  5023               	movf	(??___flmul+1)^0,w,c
  1464  002EBA  222E               	addwfc	(___flmul@prod+1)^0,f,c
  1465  002EBC  5024               	movf	(??___flmul+2)^0,w,c
  1466  002EBE  222F               	addwfc	(___flmul@prod+2)^0,f,c
  1467  002EC0  5025               	movf	(??___flmul+3)^0,w,c
  1468  002EC2  2230               	addwfc	(___flmul@prod+3)^0,f,c
  1469  002EC4  C029  F02A         	movff	___flmul@grs+2,___flmul@grs+3
  1470  002EC8  C028  F029         	movff	___flmul@grs+1,___flmul@grs+2
  1471  002ECC  C027  F028         	movff	___flmul@grs,___flmul@grs+1
  1472  002ED0  6A27               	clrf	___flmul@grs^0,c
  1473  002ED2  502B               	movf	___flmul@aexp^0,w,c
  1474  002ED4  C02C  F022         	movff	___flmul@bexp,??___flmul
  1475  002ED8  6A23               	clrf	(??___flmul+1)^0,c
  1476  002EDA  2622               	addwf	??___flmul^0,f,c
  1477  002EDC  0E00               	movlw	0
  1478  002EDE  2223               	addwfc	(??___flmul+1)^0,f,c
  1479  002EE0  0E82               	movlw	130
  1480  002EE2  2422               	addwf	??___flmul^0,w,c
  1481  002EE4  6E31               	movwf	___flmul@temp^0,c
  1482  002EE6  0EFF               	movlw	255
  1483  002EE8  2023               	addwfc	(??___flmul+1)^0,w,c
  1484  002EEA  6E32               	movwf	(___flmul@temp+1)^0,c
  1485  002EEC  EF8D  F017         	goto	l2671
  1486  002EF0                     l2665:
  1487  002EF0  90D8               	bcf	status,0,c
  1488  002EF2  362D               	rlcf	___flmul@prod^0,f,c
  1489  002EF4  362E               	rlcf	(___flmul@prod+1)^0,f,c
  1490  002EF6  362F               	rlcf	(___flmul@prod+2)^0,f,c
  1491  002EF8  3630               	rlcf	(___flmul@prod+3)^0,f,c
  1492  002EFA  AE2A               	btfss	(___flmul@grs+3)^0,7,c
  1493  002EFC  EF82  F017         	goto	u1771
  1494  002F00  EF84  F017         	goto	u1770
  1495  002F04                     u1771:
  1496  002F04  EF85  F017         	goto	l855
  1497  002F08                     u1770:
  1498  002F08  802D               	bsf	___flmul@prod^0,0,c
  1499  002F0A                     l855:
  1500  002F0A  90D8               	bcf	status,0,c
  1501  002F0C  3627               	rlcf	___flmul@grs^0,f,c
  1502  002F0E  3628               	rlcf	(___flmul@grs+1)^0,f,c
  1503  002F10  3629               	rlcf	(___flmul@grs+2)^0,f,c
  1504  002F12  362A               	rlcf	(___flmul@grs+3)^0,f,c
  1505  002F14  0631               	decf	___flmul@temp^0,f,c
  1506  002F16  A0D8               	btfss	status,0,c
  1507  002F18  0632               	decf	(___flmul@temp+1)^0,f,c
  1508  002F1A                     l2671:
  1509  002F1A  AE2F               	btfss	(___flmul@prod+2)^0,7,c
  1510  002F1C  EF92  F017         	goto	u1781
  1511  002F20  EF94  F017         	goto	u1780
  1512  002F24                     u1781:
  1513  002F24  EF78  F017         	goto	l2665
  1514  002F28                     u1780:
  1515  002F28  0E00               	movlw	0
  1516  002F2A  6E2B               	movwf	___flmul@aexp^0,c
  1517  002F2C  AE2A               	btfss	(___flmul@grs+3)^0,7,c
  1518  002F2E  EF9B  F017         	goto	u1791
  1519  002F32  EF9D  F017         	goto	u1790
  1520  002F36                     u1791:
  1521  002F36  EFC1  F017         	goto	l857
  1522  002F3A                     u1790:
  1523  002F3A  0EFF               	movlw	255
  1524  002F3C  1427               	andwf	___flmul@grs^0,w,c
  1525  002F3E  6E22               	movwf	??___flmul^0,c
  1526  002F40  0EFF               	movlw	255
  1527  002F42  1428               	andwf	(___flmul@grs+1)^0,w,c
  1528  002F44  6E23               	movwf	(??___flmul+1)^0,c
  1529  002F46  0EFF               	movlw	255
  1530  002F48  1429               	andwf	(___flmul@grs+2)^0,w,c
  1531  002F4A  6E24               	movwf	(??___flmul+2)^0,c
  1532  002F4C  0E7F               	movlw	127
  1533  002F4E  142A               	andwf	(___flmul@grs+3)^0,w,c
  1534  002F50  6E25               	movwf	(??___flmul+3)^0,c
  1535  002F52  5022               	movf	??___flmul^0,w,c
  1536  002F54  1023               	iorwf	(??___flmul+1)^0,w,c
  1537  002F56  1024               	iorwf	(??___flmul+2)^0,w,c
  1538  002F58  1025               	iorwf	(??___flmul+3)^0,w,c
  1539  002F5A  B4D8               	btfsc	status,2,c
  1540  002F5C  EFB2  F017         	goto	u1801
  1541  002F60  EFB4  F017         	goto	u1800
  1542  002F64                     u1801:
  1543  002F64  EFB8  F017         	goto	l858
  1544  002F68                     u1800:
  1545  002F68                     l2679:
  1546  002F68  0E01               	movlw	1
  1547  002F6A  6E2B               	movwf	___flmul@aexp^0,c
  1548  002F6C  EFC1  F017         	goto	l857
  1549  002F70                     l858:
  1550  002F70  A02D               	btfss	___flmul@prod^0,0,c
  1551  002F72  EFBD  F017         	goto	u1811
  1552  002F76  EFBF  F017         	goto	u1810
  1553  002F7A                     u1811:
  1554  002F7A  EFC1  F017         	goto	l857
  1555  002F7E                     u1810:
  1556  002F7E  EFB4  F017         	goto	l2679
  1557  002F82                     l857:
  1558  002F82  502B               	movf	___flmul@aexp^0,w,c
  1559  002F84  B4D8               	btfsc	status,2,c
  1560  002F86  EFC7  F017         	goto	u1821
  1561  002F8A  EFC9  F017         	goto	u1820
  1562  002F8E                     u1821:
  1563  002F8E  EFED  F017         	goto	l2691
  1564  002F92                     u1820:
  1565  002F92  0E01               	movlw	1
  1566  002F94  262D               	addwf	___flmul@prod^0,f,c
  1567  002F96  0E00               	movlw	0
  1568  002F98  222E               	addwfc	(___flmul@prod+1)^0,f,c
  1569  002F9A  222F               	addwfc	(___flmul@prod+2)^0,f,c
  1570  002F9C  2230               	addwfc	(___flmul@prod+3)^0,f,c
  1571  002F9E  A030               	btfss	(___flmul@prod+3)^0,0,c
  1572  002FA0  EFD4  F017         	goto	u1831
  1573  002FA4  EFD6  F017         	goto	u1830
  1574  002FA8                     u1831:
  1575  002FA8  EFED  F017         	goto	l2691
  1576  002FAC                     u1830:
  1577  002FAC  C02D  F022         	movff	___flmul@prod,??___flmul
  1578  002FB0  C02E  F023         	movff	___flmul@prod+1,??___flmul+1
  1579  002FB4  C02F  F024         	movff	___flmul@prod+2,??___flmul+2
  1580  002FB8  C030  F025         	movff	___flmul@prod+3,??___flmul+3
  1581  002FBC  3425               	rlcf	(??___flmul+3)^0,w,c
  1582  002FBE  3225               	rrcf	(??___flmul+3)^0,f,c
  1583  002FC0  3224               	rrcf	(??___flmul+2)^0,f,c
  1584  002FC2  3223               	rrcf	(??___flmul+1)^0,f,c
  1585  002FC4  3222               	rrcf	??___flmul^0,f,c
  1586  002FC6  C022  F02D         	movff	??___flmul,___flmul@prod
  1587  002FCA  C023  F02E         	movff	??___flmul+1,___flmul@prod+1
  1588  002FCE  C024  F02F         	movff	??___flmul+2,___flmul@prod+2
  1589  002FD2  C025  F030         	movff	??___flmul+3,___flmul@prod+3
  1590  002FD6  4A31               	infsnz	___flmul@temp^0,f,c
  1591  002FD8  2A32               	incf	(___flmul@temp+1)^0,f,c
  1592  002FDA                     l2691:
  1593  002FDA  BE32               	btfsc	(___flmul@temp+1)^0,7,c
  1594  002FDC  EFF8  F017         	goto	u1841
  1595  002FE0  5032               	movf	(___flmul@temp+1)^0,w,c
  1596  002FE2  E108               	bnz	u1840
  1597  002FE4  2831               	incf	___flmul@temp^0,w,c
  1598  002FE6  A0D8               	btfss	status,0,c
  1599  002FE8  EFF8  F017         	goto	u1841
  1600  002FEC  EFFA  F017         	goto	u1840
  1601  002FF0                     u1841:
  1602  002FF0  EF04  F018         	goto	l2695
  1603  002FF4                     u1840:
  1604  002FF4  0E00               	movlw	0
  1605  002FF6  6E2D               	movwf	___flmul@prod^0,c
  1606  002FF8  0E00               	movlw	0
  1607  002FFA  6E2E               	movwf	(___flmul@prod+1)^0,c
  1608  002FFC  0E80               	movlw	128
  1609  002FFE  6E2F               	movwf	(___flmul@prod+2)^0,c
  1610  003000  0E7F               	movlw	127
  1611  003002  6E30               	movwf	(___flmul@prod+3)^0,c
  1612  003004  EF32  F018         	goto	l2707
  1613  003008                     l2695:
  1614  003008  BE32               	btfsc	(___flmul@temp+1)^0,7,c
  1615  00300A  EF11  F018         	goto	u1850
  1616  00300E  5032               	movf	(___flmul@temp+1)^0,w,c
  1617  003010  E106               	bnz	u1851
  1618  003012  0431               	decf	___flmul@temp^0,w,c
  1619  003014  B0D8               	btfsc	status,0,c
  1620  003016  EF0F  F018         	goto	u1851
  1621  00301A  EF11  F018         	goto	u1850
  1622  00301E                     u1851:
  1623  00301E  EF1D  F018         	goto	l865
  1624  003022                     u1850:
  1625  003022  0E00               	movlw	0
  1626  003024  6E2D               	movwf	___flmul@prod^0,c
  1627  003026  0E00               	movlw	0
  1628  003028  6E2E               	movwf	(___flmul@prod+1)^0,c
  1629  00302A  0E00               	movlw	0
  1630  00302C  6E2F               	movwf	(___flmul@prod+2)^0,c
  1631  00302E  0E00               	movlw	0
  1632  003030  6E30               	movwf	(___flmul@prod+3)^0,c
  1633  003032  0E00               	movlw	0
  1634  003034  6E26               	movwf	___flmul@sign^0,c
  1635  003036  EF32  F018         	goto	l2707
  1636  00303A                     l865:
  1637  00303A  C031  F02C         	movff	___flmul@temp,___flmul@bexp
  1638  00303E  0EFF               	movlw	255
  1639  003040  162D               	andwf	___flmul@prod^0,f,c
  1640  003042  0EFF               	movlw	255
  1641  003044  162E               	andwf	(___flmul@prod+1)^0,f,c
  1642  003046  0E7F               	movlw	127
  1643  003048  162F               	andwf	(___flmul@prod+2)^0,f,c
  1644  00304A  0E00               	movlw	0
  1645  00304C  1630               	andwf	(___flmul@prod+3)^0,f,c
  1646  00304E  A02C               	btfss	___flmul@bexp^0,0,c
  1647  003050  EF2C  F018         	goto	u1861
  1648  003054  EF2E  F018         	goto	u1860
  1649  003058                     u1861:
  1650  003058  EF2F  F018         	goto	l2705
  1651  00305C                     u1860:
  1652  00305C  8E2F               	bsf	(___flmul@prod+2)^0,7,c
  1653  00305E                     l2705:
  1654  00305E  90D8               	bcf	status,0,c
  1655  003060  302C               	rrcf	___flmul@bexp^0,w,c
  1656  003062  6E30               	movwf	(___flmul@prod+3)^0,c
  1657  003064                     l2707:
  1658  003064  5026               	movf	___flmul@sign^0,w,c
  1659  003066  1230               	iorwf	(___flmul@prod+3)^0,f,c
  1660  003068  C02D  F01A         	movff	___flmul@prod,?___flmul
  1661  00306C  C02E  F01B         	movff	___flmul@prod+1,?___flmul+1
  1662  003070  C02F  F01C         	movff	___flmul@prod+2,?___flmul+2
  1663  003074  C030  F01D         	movff	___flmul@prod+3,?___flmul+3
  1664  003078                     l852:
  1665  003078  0012               	return		;funcret
  1666  00307A                     __end_of___flmul:
  1667                           	callstack 0
  1668                           
  1669 ;; *************** function ___fldiv *****************
  1670 ;; Defined at:
  1671 ;;		line 11 in file "C:\Program Files\Microchip\xc8\v2.32\pic\sources\c99\common\sprcdiv.c"
  1672 ;; Parameters:    Size  Location     Type
  1673 ;;  b               4    0[COMRAM] unsigned char 
  1674 ;;  a               4    4[COMRAM] unsigned char 
  1675 ;; Auto vars:     Size  Location     Type
  1676 ;;  grs             4   19[COMRAM] unsigned long 
  1677 ;;  rem             4   12[COMRAM] unsigned long 
  1678 ;;  new_exp         2   17[COMRAM] short 
  1679 ;;  aexp            1   24[COMRAM] unsigned char 
  1680 ;;  bexp            1   23[COMRAM] unsigned char 
  1681 ;;  sign            1   16[COMRAM] unsigned char 
  1682 ;; Return value:  Size  Location     Type
  1683 ;;                  4    0[COMRAM] unsigned char 
  1684 ;; Registers used:
  1685 ;;		wreg, status,2, status,0
  1686 ;; Tracked objects:
  1687 ;;		On entry : 0/0
  1688 ;;		On exit  : 0/0
  1689 ;;		Unchanged: 0/0
  1690 ;; Data sizes:     COMRAM   BANK0   BANK1   BANK2   BANK3   BANK4   BANK5   BANK6   BANK7   BANK8   BANK9  BANK10  BANK1
      +1  BANK12  BANK13  BANK14  BANK15  BANK16  BANK17  BANK18  BANK19  BANK20  BANK21  BANK22  BANK23  BANK24  BANK25  BANK2
      +6  BANK27  BANK28  BANK29  BANK30  BANK31
  1691 ;;      Params:         8       0       0       0       0       0       0       0       0       0       0       0       
      +0       0       0       0       0       0       0       0       0       0       0       0       0       0       0       
      +0       0       0       0       0       0
  1692 ;;      Locals:        13       0       0       0       0       0       0       0       0       0       0       0       
      +0       0       0       0       0       0       0       0       0       0       0       0       0       0       0       
      +0       0       0       0       0       0
  1693 ;;      Temps:          4       0       0       0       0       0       0       0       0       0       0       0       
      +0       0       0       0       0       0       0       0       0       0       0       0       0       0       0       
      +0       0       0       0       0       0
  1694 ;;      Totals:        25       0       0       0       0       0       0       0       0       0       0       0       
      +0       0       0       0       0       0       0       0       0       0       0       0       0       0       0       
      +0       0       0       0       0       0
  1695 ;;Total ram usage:       25 bytes
  1696 ;; Hardware stack levels used: 1
  1697 ;; This function calls:
  1698 ;;		Nothing
  1699 ;; This function is called by:
  1700 ;;		_initialize_tone_generator
  1701 ;; This function uses a non-reentrant model
  1702 ;;
  1703                           
  1704                           	psect	text5
  1705  00307A                     __ptext5:
  1706                           	callstack 0
  1707  00307A                     ___fldiv:
  1708                           	callstack 29
  1709  00307A  5004               	movf	(___fldiv@b+3)^0,w,c
  1710  00307C  0B80               	andlw	128
  1711  00307E  6E11               	movwf	___fldiv@sign^0,c
  1712  003080  5004               	movf	(___fldiv@b+3)^0,w,c
  1713  003082  2404               	addwf	(___fldiv@b+3)^0,w,c
  1714  003084  6E18               	movwf	___fldiv@bexp^0,c
  1715  003086  AE03               	btfss	(___fldiv@b+2)^0,7,c
  1716  003088  EF48  F018         	goto	u1451
  1717  00308C  EF4A  F018         	goto	u1450
  1718  003090                     u1451:
  1719  003090  EF4B  F018         	goto	l2451
  1720  003094                     u1450:
  1721  003094  8018               	bsf	___fldiv@bexp^0,0,c
  1722  003096                     l2451:
  1723  003096  5018               	movf	___fldiv@bexp^0,w,c
  1724  003098  B4D8               	btfsc	status,2,c
  1725  00309A  EF51  F018         	goto	u1461
  1726  00309E  EF53  F018         	goto	u1460
  1727  0030A2                     u1461:
  1728  0030A2  EF68  F018         	goto	l2461
  1729  0030A6                     u1460:
  1730  0030A6  2818               	incf	___fldiv@bexp^0,w,c
  1731  0030A8  A4D8               	btfss	status,2,c
  1732  0030AA  EF59  F018         	goto	u1471
  1733  0030AE  EF5B  F018         	goto	u1470
  1734  0030B2                     u1471:
  1735  0030B2  EF63  F018         	goto	l2457
  1736  0030B6                     u1470:
  1737  0030B6  0E00               	movlw	0
  1738  0030B8  6E01               	movwf	___fldiv@b^0,c
  1739  0030BA  0E00               	movlw	0
  1740  0030BC  6E02               	movwf	(___fldiv@b+1)^0,c
  1741  0030BE  0E00               	movlw	0
  1742  0030C0  6E03               	movwf	(___fldiv@b+2)^0,c
  1743  0030C2  0E00               	movlw	0
  1744  0030C4  6E04               	movwf	(___fldiv@b+3)^0,c
  1745  0030C6                     l2457:
  1746  0030C6  8E03               	bsf	(___fldiv@b+2)^0,7,c
  1747  0030C8  0E00               	movlw	0
  1748  0030CA  6E04               	movwf	(___fldiv@b+3)^0,c
  1749  0030CC  EF70  F018         	goto	l2463
  1750  0030D0                     l2461:
  1751  0030D0  0E00               	movlw	0
  1752  0030D2  6E01               	movwf	___fldiv@b^0,c
  1753  0030D4  0E00               	movlw	0
  1754  0030D6  6E02               	movwf	(___fldiv@b+1)^0,c
  1755  0030D8  0E00               	movlw	0
  1756  0030DA  6E03               	movwf	(___fldiv@b+2)^0,c
  1757  0030DC  0E00               	movlw	0
  1758  0030DE  6E04               	movwf	(___fldiv@b+3)^0,c
  1759  0030E0                     l2463:
  1760  0030E0  5008               	movf	(___fldiv@a+3)^0,w,c
  1761  0030E2  0B80               	andlw	128
  1762  0030E4  1A11               	xorwf	___fldiv@sign^0,f,c
  1763  0030E6  5008               	movf	(___fldiv@a+3)^0,w,c
  1764  0030E8  2408               	addwf	(___fldiv@a+3)^0,w,c
  1765  0030EA  6E19               	movwf	___fldiv@aexp^0,c
  1766  0030EC  AE07               	btfss	(___fldiv@a+2)^0,7,c
  1767  0030EE  EF7B  F018         	goto	u1481
  1768  0030F2  EF7D  F018         	goto	u1480
  1769  0030F6                     u1481:
  1770  0030F6  EF7E  F018         	goto	l2471
  1771  0030FA                     u1480:
  1772  0030FA  8019               	bsf	___fldiv@aexp^0,0,c
  1773  0030FC                     l2471:
  1774  0030FC  5019               	movf	___fldiv@aexp^0,w,c
  1775  0030FE  B4D8               	btfsc	status,2,c
  1776  003100  EF84  F018         	goto	u1491
  1777  003104  EF86  F018         	goto	u1490
  1778  003108                     u1491:
  1779  003108  EF9B  F018         	goto	l2481
  1780  00310C                     u1490:
  1781  00310C  2819               	incf	___fldiv@aexp^0,w,c
  1782  00310E  A4D8               	btfss	status,2,c
  1783  003110  EF8C  F018         	goto	u1501
  1784  003114  EF8E  F018         	goto	u1500
  1785  003118                     u1501:
  1786  003118  EF96  F018         	goto	l2477
  1787  00311C                     u1500:
  1788  00311C  0E00               	movlw	0
  1789  00311E  6E05               	movwf	___fldiv@a^0,c
  1790  003120  0E00               	movlw	0
  1791  003122  6E06               	movwf	(___fldiv@a+1)^0,c
  1792  003124  0E00               	movlw	0
  1793  003126  6E07               	movwf	(___fldiv@a+2)^0,c
  1794  003128  0E00               	movlw	0
  1795  00312A  6E08               	movwf	(___fldiv@a+3)^0,c
  1796  00312C                     l2477:
  1797  00312C  8E07               	bsf	(___fldiv@a+2)^0,7,c
  1798  00312E  0E00               	movlw	0
  1799  003130  6E08               	movwf	(___fldiv@a+3)^0,c
  1800  003132  EFA3  F018         	goto	l2483
  1801  003136                     l2481:
  1802  003136  0E00               	movlw	0
  1803  003138  6E05               	movwf	___fldiv@a^0,c
  1804  00313A  0E00               	movlw	0
  1805  00313C  6E06               	movwf	(___fldiv@a+1)^0,c
  1806  00313E  0E00               	movlw	0
  1807  003140  6E07               	movwf	(___fldiv@a+2)^0,c
  1808  003142  0E00               	movlw	0
  1809  003144  6E08               	movwf	(___fldiv@a+3)^0,c
  1810  003146                     l2483:
  1811  003146  5005               	movf	___fldiv@a^0,w,c
  1812  003148  1006               	iorwf	(___fldiv@a+1)^0,w,c
  1813  00314A  1007               	iorwf	(___fldiv@a+2)^0,w,c
  1814  00314C  1008               	iorwf	(___fldiv@a+3)^0,w,c
  1815  00314E  A4D8               	btfss	status,2,c
  1816  003150  EFAC  F018         	goto	u1511
  1817  003154  EFAE  F018         	goto	u1510
  1818  003158                     u1511:
  1819  003158  EFC6  F018         	goto	l2495
  1820  00315C                     u1510:
  1821  00315C  0E00               	movlw	0
  1822  00315E  6E01               	movwf	___fldiv@b^0,c
  1823  003160  0E00               	movlw	0
  1824  003162  6E02               	movwf	(___fldiv@b+1)^0,c
  1825  003164  0E00               	movlw	0
  1826  003166  6E03               	movwf	(___fldiv@b+2)^0,c
  1827  003168  0E00               	movlw	0
  1828  00316A  6E04               	movwf	(___fldiv@b+3)^0,c
  1829  00316C  0E80               	movlw	128
  1830  00316E  1203               	iorwf	(___fldiv@b+2)^0,f,c
  1831  003170  0E7F               	movlw	127
  1832  003172  1204               	iorwf	(___fldiv@b+3)^0,f,c
  1833  003174                     l2489:
  1834  003174  5011               	movf	___fldiv@sign^0,w,c
  1835  003176  1204               	iorwf	(___fldiv@b+3)^0,f,c
  1836  003178  C001  F001         	movff	___fldiv@b,?___fldiv
  1837  00317C  C002  F002         	movff	___fldiv@b+1,?___fldiv+1
  1838  003180  C003  F003         	movff	___fldiv@b+2,?___fldiv+2
  1839  003184  C004  F004         	movff	___fldiv@b+3,?___fldiv+3
  1840  003188  EF09  F01A         	goto	l816
  1841  00318C                     l2495:
  1842  00318C  5018               	movf	___fldiv@bexp^0,w,c
  1843  00318E  A4D8               	btfss	status,2,c
  1844  003190  EFCC  F018         	goto	u1521
  1845  003194  EFCE  F018         	goto	u1520
  1846  003198                     u1521:
  1847  003198  EFD8  F018         	goto	l2503
  1848  00319C                     u1520:
  1849  00319C  0E00               	movlw	0
  1850  00319E  6E01               	movwf	?___fldiv^0,c
  1851  0031A0  0E00               	movlw	0
  1852  0031A2  6E02               	movwf	(?___fldiv+1)^0,c
  1853  0031A4  0E00               	movlw	0
  1854  0031A6  6E03               	movwf	(?___fldiv+2)^0,c
  1855  0031A8  0E00               	movlw	0
  1856  0031AA  6E04               	movwf	(?___fldiv+3)^0,c
  1857  0031AC  EF09  F01A         	goto	l816
  1858  0031B0                     l2503:
  1859  0031B0  5019               	movf	___fldiv@aexp^0,w,c
  1860  0031B2  C018  F009         	movff	___fldiv@bexp,??___fldiv
  1861  0031B6  6A0A               	clrf	(??___fldiv+1)^0,c
  1862  0031B8  5E09               	subwf	??___fldiv^0,f,c
  1863  0031BA  0E00               	movlw	0
  1864  0031BC  5A0A               	subwfb	(??___fldiv+1)^0,f,c
  1865  0031BE  0E7F               	movlw	127
  1866  0031C0  2409               	addwf	??___fldiv^0,w,c
  1867  0031C2  6E12               	movwf	___fldiv@new_exp^0,c
  1868  0031C4  0E00               	movlw	0
  1869  0031C6  200A               	addwfc	(??___fldiv+1)^0,w,c
  1870  0031C8  6E13               	movwf	(___fldiv@new_exp+1)^0,c
  1871  0031CA  C001  F00D         	movff	___fldiv@b,___fldiv@rem
  1872  0031CE  C002  F00E         	movff	___fldiv@b+1,___fldiv@rem+1
  1873  0031D2  C003  F00F         	movff	___fldiv@b+2,___fldiv@rem+2
  1874  0031D6  C004  F010         	movff	___fldiv@b+3,___fldiv@rem+3
  1875  0031DA  0E00               	movlw	0
  1876  0031DC  6E01               	movwf	___fldiv@b^0,c
  1877  0031DE  0E00               	movlw	0
  1878  0031E0  6E02               	movwf	(___fldiv@b+1)^0,c
  1879  0031E2  0E00               	movlw	0
  1880  0031E4  6E03               	movwf	(___fldiv@b+2)^0,c
  1881  0031E6  0E00               	movlw	0
  1882  0031E8  6E04               	movwf	(___fldiv@b+3)^0,c
  1883  0031EA  0E00               	movlw	0
  1884  0031EC  6E14               	movwf	___fldiv@grs^0,c
  1885  0031EE  0E00               	movlw	0
  1886  0031F0  6E15               	movwf	(___fldiv@grs+1)^0,c
  1887  0031F2  0E00               	movlw	0
  1888  0031F4  6E16               	movwf	(___fldiv@grs+2)^0,c
  1889  0031F6  0E00               	movlw	0
  1890  0031F8  6E17               	movwf	(___fldiv@grs+3)^0,c
  1891  0031FA  0E00               	movlw	0
  1892  0031FC  6E19               	movwf	___fldiv@aexp^0,c
  1893  0031FE  EF39  F019         	goto	l818
  1894  003202                     l2513:
  1895  003202  5019               	movf	___fldiv@aexp^0,w,c
  1896  003204  B4D8               	btfsc	status,2,c
  1897  003206  EF07  F019         	goto	u1531
  1898  00320A  EF09  F019         	goto	u1530
  1899  00320E                     u1531:
  1900  00320E  EF20  F019         	goto	l2521
  1901  003212                     u1530:
  1902  003212  90D8               	bcf	status,0,c
  1903  003214  360D               	rlcf	___fldiv@rem^0,f,c
  1904  003216  360E               	rlcf	(___fldiv@rem+1)^0,f,c
  1905  003218  360F               	rlcf	(___fldiv@rem+2)^0,f,c
  1906  00321A  3610               	rlcf	(___fldiv@rem+3)^0,f,c
  1907  00321C  90D8               	bcf	status,0,c
  1908  00321E  3601               	rlcf	___fldiv@b^0,f,c
  1909  003220  3602               	rlcf	(___fldiv@b+1)^0,f,c
  1910  003222  3603               	rlcf	(___fldiv@b+2)^0,f,c
  1911  003224  3604               	rlcf	(___fldiv@b+3)^0,f,c
  1912  003226  AE17               	btfss	(___fldiv@grs+3)^0,7,c
  1913  003228  EF18  F019         	goto	u1541
  1914  00322C  EF1A  F019         	goto	u1540
  1915  003230                     u1541:
  1916  003230  EF1B  F019         	goto	l821
  1917  003234                     u1540:
  1918  003234  8001               	bsf	___fldiv@b^0,0,c
  1919  003236                     l821:
  1920  003236  90D8               	bcf	status,0,c
  1921  003238  3614               	rlcf	___fldiv@grs^0,f,c
  1922  00323A  3615               	rlcf	(___fldiv@grs+1)^0,f,c
  1923  00323C  3616               	rlcf	(___fldiv@grs+2)^0,f,c
  1924  00323E  3617               	rlcf	(___fldiv@grs+3)^0,f,c
  1925  003240                     l2521:
  1926  003240  5005               	movf	___fldiv@a^0,w,c
  1927  003242  5C0D               	subwf	___fldiv@rem^0,w,c
  1928  003244  5006               	movf	(___fldiv@a+1)^0,w,c
  1929  003246  580E               	subwfb	(___fldiv@rem+1)^0,w,c
  1930  003248  5007               	movf	(___fldiv@a+2)^0,w,c
  1931  00324A  580F               	subwfb	(___fldiv@rem+2)^0,w,c
  1932  00324C  5008               	movf	(___fldiv@a+3)^0,w,c
  1933  00324E  5810               	subwfb	(___fldiv@rem+3)^0,w,c
  1934  003250  A0D8               	btfss	status,0,c
  1935  003252  EF2D  F019         	goto	u1551
  1936  003256  EF2F  F019         	goto	u1550
  1937  00325A                     u1551:
  1938  00325A  EF38  F019         	goto	l2527
  1939  00325E                     u1550:
  1940  00325E  8C17               	bsf	(___fldiv@grs+3)^0,6,c
  1941  003260  5005               	movf	___fldiv@a^0,w,c
  1942  003262  5E0D               	subwf	___fldiv@rem^0,f,c
  1943  003264  5006               	movf	(___fldiv@a+1)^0,w,c
  1944  003266  5A0E               	subwfb	(___fldiv@rem+1)^0,f,c
  1945  003268  5007               	movf	(___fldiv@a+2)^0,w,c
  1946  00326A  5A0F               	subwfb	(___fldiv@rem+2)^0,f,c
  1947  00326C  5008               	movf	(___fldiv@a+3)^0,w,c
  1948  00326E  5A10               	subwfb	(___fldiv@rem+3)^0,f,c
  1949  003270                     l2527:
  1950  003270  2A19               	incf	___fldiv@aexp^0,f,c
  1951  003272                     l818:
  1952  003272  0E19               	movlw	25
  1953  003274  6419               	cpfsgt	___fldiv@aexp^0,c
  1954  003276  EF3F  F019         	goto	u1561
  1955  00327A  EF41  F019         	goto	u1560
  1956  00327E                     u1561:
  1957  00327E  EF01  F019         	goto	l2513
  1958  003282                     u1560:
  1959  003282  500D               	movf	___fldiv@rem^0,w,c
  1960  003284  100E               	iorwf	(___fldiv@rem+1)^0,w,c
  1961  003286  100F               	iorwf	(___fldiv@rem+2)^0,w,c
  1962  003288  1010               	iorwf	(___fldiv@rem+3)^0,w,c
  1963  00328A  B4D8               	btfsc	status,2,c
  1964  00328C  EF4A  F019         	goto	u1571
  1965  003290  EF4C  F019         	goto	u1570
  1966  003294                     u1571:
  1967  003294  EF64  F019         	goto	l2539
  1968  003298                     u1570:
  1969  003298  8014               	bsf	___fldiv@grs^0,0,c
  1970  00329A  EF64  F019         	goto	l2539
  1971  00329E                     l2533:
  1972  00329E  90D8               	bcf	status,0,c
  1973  0032A0  3601               	rlcf	___fldiv@b^0,f,c
  1974  0032A2  3602               	rlcf	(___fldiv@b+1)^0,f,c
  1975  0032A4  3603               	rlcf	(___fldiv@b+2)^0,f,c
  1976  0032A6  3604               	rlcf	(___fldiv@b+3)^0,f,c
  1977  0032A8  AE17               	btfss	(___fldiv@grs+3)^0,7,c
  1978  0032AA  EF59  F019         	goto	u1581
  1979  0032AE  EF5B  F019         	goto	u1580
  1980  0032B2                     u1581:
  1981  0032B2  EF5C  F019         	goto	l827
  1982  0032B6                     u1580:
  1983  0032B6  8001               	bsf	___fldiv@b^0,0,c
  1984  0032B8                     l827:
  1985  0032B8  90D8               	bcf	status,0,c
  1986  0032BA  3614               	rlcf	___fldiv@grs^0,f,c
  1987  0032BC  3615               	rlcf	(___fldiv@grs+1)^0,f,c
  1988  0032BE  3616               	rlcf	(___fldiv@grs+2)^0,f,c
  1989  0032C0  3617               	rlcf	(___fldiv@grs+3)^0,f,c
  1990  0032C2  0612               	decf	___fldiv@new_exp^0,f,c
  1991  0032C4  A0D8               	btfss	status,0,c
  1992  0032C6  0613               	decf	(___fldiv@new_exp+1)^0,f,c
  1993  0032C8                     l2539:
  1994  0032C8  AE03               	btfss	(___fldiv@b+2)^0,7,c
  1995  0032CA  EF69  F019         	goto	u1591
  1996  0032CE  EF6B  F019         	goto	u1590
  1997  0032D2                     u1591:
  1998  0032D2  EF4F  F019         	goto	l2533
  1999  0032D6                     u1590:
  2000  0032D6  0E00               	movlw	0
  2001  0032D8  6E19               	movwf	___fldiv@aexp^0,c
  2002  0032DA  AE17               	btfss	(___fldiv@grs+3)^0,7,c
  2003  0032DC  EF72  F019         	goto	u1601
  2004  0032E0  EF74  F019         	goto	u1600
  2005  0032E4                     u1601:
  2006  0032E4  EF98  F019         	goto	l829
  2007  0032E8                     u1600:
  2008  0032E8  0EFF               	movlw	255
  2009  0032EA  1414               	andwf	___fldiv@grs^0,w,c
  2010  0032EC  6E09               	movwf	??___fldiv^0,c
  2011  0032EE  0EFF               	movlw	255
  2012  0032F0  1415               	andwf	(___fldiv@grs+1)^0,w,c
  2013  0032F2  6E0A               	movwf	(??___fldiv+1)^0,c
  2014  0032F4  0EFF               	movlw	255
  2015  0032F6  1416               	andwf	(___fldiv@grs+2)^0,w,c
  2016  0032F8  6E0B               	movwf	(??___fldiv+2)^0,c
  2017  0032FA  0E7F               	movlw	127
  2018  0032FC  1417               	andwf	(___fldiv@grs+3)^0,w,c
  2019  0032FE  6E0C               	movwf	(??___fldiv+3)^0,c
  2020  003300  5009               	movf	??___fldiv^0,w,c
  2021  003302  100A               	iorwf	(??___fldiv+1)^0,w,c
  2022  003304  100B               	iorwf	(??___fldiv+2)^0,w,c
  2023  003306  100C               	iorwf	(??___fldiv+3)^0,w,c
  2024  003308  B4D8               	btfsc	status,2,c
  2025  00330A  EF89  F019         	goto	u1611
  2026  00330E  EF8B  F019         	goto	u1610
  2027  003312                     u1611:
  2028  003312  EF8F  F019         	goto	l830
  2029  003316                     u1610:
  2030  003316                     l2547:
  2031  003316  0E01               	movlw	1
  2032  003318  6E19               	movwf	___fldiv@aexp^0,c
  2033  00331A  EF98  F019         	goto	l829
  2034  00331E                     l830:
  2035  00331E  A001               	btfss	___fldiv@b^0,0,c
  2036  003320  EF94  F019         	goto	u1621
  2037  003324  EF96  F019         	goto	u1620
  2038  003328                     u1621:
  2039  003328  EF98  F019         	goto	l829
  2040  00332C                     u1620:
  2041  00332C  EF8B  F019         	goto	l2547
  2042  003330                     l829:
  2043  003330  5019               	movf	___fldiv@aexp^0,w,c
  2044  003332  B4D8               	btfsc	status,2,c
  2045  003334  EF9E  F019         	goto	u1631
  2046  003338  EFA0  F019         	goto	u1630
  2047  00333C                     u1631:
  2048  00333C  EFC4  F019         	goto	l2559
  2049  003340                     u1630:
  2050  003340  0E01               	movlw	1
  2051  003342  2601               	addwf	___fldiv@b^0,f,c
  2052  003344  0E00               	movlw	0
  2053  003346  2202               	addwfc	(___fldiv@b+1)^0,f,c
  2054  003348  2203               	addwfc	(___fldiv@b+2)^0,f,c
  2055  00334A  2204               	addwfc	(___fldiv@b+3)^0,f,c
  2056  00334C  A004               	btfss	(___fldiv@b+3)^0,0,c
  2057  00334E  EFAB  F019         	goto	u1641
  2058  003352  EFAD  F019         	goto	u1640
  2059  003356                     u1641:
  2060  003356  EFC4  F019         	goto	l2559
  2061  00335A                     u1640:
  2062  00335A  C001  F009         	movff	___fldiv@b,??___fldiv
  2063  00335E  C002  F00A         	movff	___fldiv@b+1,??___fldiv+1
  2064  003362  C003  F00B         	movff	___fldiv@b+2,??___fldiv+2
  2065  003366  C004  F00C         	movff	___fldiv@b+3,??___fldiv+3
  2066  00336A  340C               	rlcf	(??___fldiv+3)^0,w,c
  2067  00336C  320C               	rrcf	(??___fldiv+3)^0,f,c
  2068  00336E  320B               	rrcf	(??___fldiv+2)^0,f,c
  2069  003370  320A               	rrcf	(??___fldiv+1)^0,f,c
  2070  003372  3209               	rrcf	??___fldiv^0,f,c
  2071  003374  C009  F001         	movff	??___fldiv,___fldiv@b
  2072  003378  C00A  F002         	movff	??___fldiv+1,___fldiv@b+1
  2073  00337C  C00B  F003         	movff	??___fldiv+2,___fldiv@b+2
  2074  003380  C00C  F004         	movff	??___fldiv+3,___fldiv@b+3
  2075  003384  4A12               	infsnz	___fldiv@new_exp^0,f,c
  2076  003386  2A13               	incf	(___fldiv@new_exp+1)^0,f,c
  2077  003388                     l2559:
  2078  003388  BE13               	btfsc	(___fldiv@new_exp+1)^0,7,c
  2079  00338A  EFCF  F019         	goto	u1651
  2080  00338E  5013               	movf	(___fldiv@new_exp+1)^0,w,c
  2081  003390  E108               	bnz	u1650
  2082  003392  2812               	incf	___fldiv@new_exp^0,w,c
  2083  003394  A0D8               	btfss	status,0,c
  2084  003396  EFCF  F019         	goto	u1651
  2085  00339A  EFD1  F019         	goto	u1650
  2086  00339E                     u1651:
  2087  00339E  EFDC  F019         	goto	l2563
  2088  0033A2                     u1650:
  2089  0033A2  0E00               	movlw	0
  2090  0033A4  6E13               	movwf	(___fldiv@new_exp+1)^0,c
  2091  0033A6  6812               	setf	___fldiv@new_exp^0,c
  2092  0033A8  0E00               	movlw	0
  2093  0033AA  6E01               	movwf	___fldiv@b^0,c
  2094  0033AC  0E00               	movlw	0
  2095  0033AE  6E02               	movwf	(___fldiv@b+1)^0,c
  2096  0033B0  0E00               	movlw	0
  2097  0033B2  6E03               	movwf	(___fldiv@b+2)^0,c
  2098  0033B4  0E00               	movlw	0
  2099  0033B6  6E04               	movwf	(___fldiv@b+3)^0,c
  2100  0033B8                     l2563:
  2101  0033B8  BE13               	btfsc	(___fldiv@new_exp+1)^0,7,c
  2102  0033BA  EFE9  F019         	goto	u1660
  2103  0033BE  5013               	movf	(___fldiv@new_exp+1)^0,w,c
  2104  0033C0  E106               	bnz	u1661
  2105  0033C2  0412               	decf	___fldiv@new_exp^0,w,c
  2106  0033C4  B0D8               	btfsc	status,0,c
  2107  0033C6  EFE7  F019         	goto	u1661
  2108  0033CA  EFE9  F019         	goto	u1660
  2109  0033CE                     u1661:
  2110  0033CE  EFF7  F019         	goto	l2567
  2111  0033D2                     u1660:
  2112  0033D2  0E00               	movlw	0
  2113  0033D4  6E13               	movwf	(___fldiv@new_exp+1)^0,c
  2114  0033D6  0E00               	movlw	0
  2115  0033D8  6E12               	movwf	___fldiv@new_exp^0,c
  2116  0033DA  0E00               	movlw	0
  2117  0033DC  6E01               	movwf	___fldiv@b^0,c
  2118  0033DE  0E00               	movlw	0
  2119  0033E0  6E02               	movwf	(___fldiv@b+1)^0,c
  2120  0033E2  0E00               	movlw	0
  2121  0033E4  6E03               	movwf	(___fldiv@b+2)^0,c
  2122  0033E6  0E00               	movlw	0
  2123  0033E8  6E04               	movwf	(___fldiv@b+3)^0,c
  2124  0033EA  0E00               	movlw	0
  2125  0033EC  6E11               	movwf	___fldiv@sign^0,c
  2126  0033EE                     l2567:
  2127  0033EE  C012  F018         	movff	___fldiv@new_exp,___fldiv@bexp
  2128  0033F2  A018               	btfss	___fldiv@bexp^0,0,c
  2129  0033F4  EFFE  F019         	goto	u1671
  2130  0033F8  EF00  F01A         	goto	u1670
  2131  0033FC                     u1671:
  2132  0033FC  EF03  F01A         	goto	l2573
  2133  003400                     u1670:
  2134  003400  8E03               	bsf	(___fldiv@b+2)^0,7,c
  2135  003402  EF04  F01A         	goto	l2575
  2136  003406                     l2573:
  2137  003406  9E03               	bcf	(___fldiv@b+2)^0,7,c
  2138  003408                     l2575:
  2139  003408  90D8               	bcf	status,0,c
  2140  00340A  3018               	rrcf	___fldiv@bexp^0,w,c
  2141  00340C  6E04               	movwf	(___fldiv@b+3)^0,c
  2142  00340E  EFBA  F018         	goto	l2489
  2143  003412                     l816:
  2144  003412  0012               	return		;funcret
  2145  003414                     __end_of___fldiv:
  2146                           	callstack 0
  2147                           
  2148 ;; *************** function ___fladd *****************
  2149 ;; Defined at:
  2150 ;;		line 10 in file "C:\Program Files\Microchip\xc8\v2.32\pic\sources\c99\common\sprcadd.c"
  2151 ;; Parameters:    Size  Location     Type
  2152 ;;  b               4   50[COMRAM] unsigned char 
  2153 ;;  a               4   54[COMRAM] unsigned char 
  2154 ;; Auto vars:     Size  Location     Type
  2155 ;;  grs             1   65[COMRAM] unsigned char 
  2156 ;;  bexp            1   64[COMRAM] unsigned char 
  2157 ;;  aexp            1   63[COMRAM] unsigned char 
  2158 ;;  signs           1   62[COMRAM] unsigned char 
  2159 ;; Return value:  Size  Location     Type
  2160 ;;                  4   50[COMRAM] unsigned char 
  2161 ;; Registers used:
  2162 ;;		wreg, status,2, status,0
  2163 ;; Tracked objects:
  2164 ;;		On entry : 0/0
  2165 ;;		On exit  : 0/0
  2166 ;;		Unchanged: 0/0
  2167 ;; Data sizes:     COMRAM   BANK0   BANK1   BANK2   BANK3   BANK4   BANK5   BANK6   BANK7   BANK8   BANK9  BANK10  BANK1
      +1  BANK12  BANK13  BANK14  BANK15  BANK16  BANK17  BANK18  BANK19  BANK20  BANK21  BANK22  BANK23  BANK24  BANK25  BANK2
      +6  BANK27  BANK28  BANK29  BANK30  BANK31
  2168 ;;      Params:         8       0       0       0       0       0       0       0       0       0       0       0       
      +0       0       0       0       0       0       0       0       0       0       0       0       0       0       0       
      +0       0       0       0       0       0
  2169 ;;      Locals:         4       0       0       0       0       0       0       0       0       0       0       0       
      +0       0       0       0       0       0       0       0       0       0       0       0       0       0       0       
      +0       0       0       0       0       0
  2170 ;;      Temps:          4       0       0       0       0       0       0       0       0       0       0       0       
      +0       0       0       0       0       0       0       0       0       0       0       0       0       0       0       
      +0       0       0       0       0       0
  2171 ;;      Totals:        16       0       0       0       0       0       0       0       0       0       0       0       
      +0       0       0       0       0       0       0       0       0       0       0       0       0       0       0       
      +0       0       0       0       0       0
  2172 ;;Total ram usage:       16 bytes
  2173 ;; Hardware stack levels used: 1
  2174 ;; This function calls:
  2175 ;;		Nothing
  2176 ;; This function is called by:
  2177 ;;		_initialize_tone_generator
  2178 ;; This function uses a non-reentrant model
  2179 ;;
  2180                           
  2181                           	psect	text6
  2182  00276C                     __ptext6:
  2183                           	callstack 0
  2184  00276C                     ___fladd:
  2185                           	callstack 29
  2186  00276C  5036               	movf	(___fladd@b+3)^0,w,c
  2187  00276E  0B80               	andlw	128
  2188  002770  6E3F               	movwf	___fladd@signs^0,c
  2189  002772  5036               	movf	(___fladd@b+3)^0,w,c
  2190  002774  2436               	addwf	(___fladd@b+3)^0,w,c
  2191  002776  6E41               	movwf	___fladd@bexp^0,c
  2192  002778  AE35               	btfss	(___fladd@b+2)^0,7,c
  2193  00277A  EFC1  F013         	goto	u1061
  2194  00277E  EFC3  F013         	goto	u1060
  2195  002782                     u1061:
  2196  002782  EFC4  F013         	goto	l2249
  2197  002786                     u1060:
  2198  002786  8041               	bsf	___fladd@bexp^0,0,c
  2199  002788                     l2249:
  2200  002788  5041               	movf	___fladd@bexp^0,w,c
  2201  00278A  B4D8               	btfsc	status,2,c
  2202  00278C  EFCA  F013         	goto	u1071
  2203  002790  EFCC  F013         	goto	u1070
  2204  002794                     u1071:
  2205  002794  EFE1  F013         	goto	l2259
  2206  002798                     u1070:
  2207  002798  2841               	incf	___fladd@bexp^0,w,c
  2208  00279A  A4D8               	btfss	status,2,c
  2209  00279C  EFD2  F013         	goto	u1081
  2210  0027A0  EFD4  F013         	goto	u1080
  2211  0027A4                     u1081:
  2212  0027A4  EFDC  F013         	goto	l2255
  2213  0027A8                     u1080:
  2214  0027A8  0E00               	movlw	0
  2215  0027AA  6E33               	movwf	___fladd@b^0,c
  2216  0027AC  0E00               	movlw	0
  2217  0027AE  6E34               	movwf	(___fladd@b+1)^0,c
  2218  0027B0  0E00               	movlw	0
  2219  0027B2  6E35               	movwf	(___fladd@b+2)^0,c
  2220  0027B4  0E00               	movlw	0
  2221  0027B6  6E36               	movwf	(___fladd@b+3)^0,c
  2222  0027B8                     l2255:
  2223  0027B8  8E35               	bsf	(___fladd@b+2)^0,7,c
  2224  0027BA  0E00               	movlw	0
  2225  0027BC  6E36               	movwf	(___fladd@b+3)^0,c
  2226  0027BE  EFE9  F013         	goto	l2261
  2227  0027C2                     l2259:
  2228  0027C2  0E00               	movlw	0
  2229  0027C4  6E33               	movwf	___fladd@b^0,c
  2230  0027C6  0E00               	movlw	0
  2231  0027C8  6E34               	movwf	(___fladd@b+1)^0,c
  2232  0027CA  0E00               	movlw	0
  2233  0027CC  6E35               	movwf	(___fladd@b+2)^0,c
  2234  0027CE  0E00               	movlw	0
  2235  0027D0  6E36               	movwf	(___fladd@b+3)^0,c
  2236  0027D2                     l2261:
  2237  0027D2  503A               	movf	(___fladd@a+3)^0,w,c
  2238  0027D4  0B80               	andlw	128
  2239  0027D6  6E40               	movwf	___fladd@aexp^0,c
  2240  0027D8  503F               	movf	___fladd@signs^0,w,c
  2241  0027DA  1840               	xorwf	___fladd@aexp^0,w,c
  2242  0027DC  B4D8               	btfsc	status,2,c
  2243  0027DE  EFF3  F013         	goto	u1091
  2244  0027E2  EFF5  F013         	goto	u1090
  2245  0027E6                     u1091:
  2246  0027E6  EFF6  F013         	goto	l2267
  2247  0027EA                     u1090:
  2248  0027EA  8C3F               	bsf	___fladd@signs^0,6,c
  2249  0027EC                     l2267:
  2250  0027EC  503A               	movf	(___fladd@a+3)^0,w,c
  2251  0027EE  243A               	addwf	(___fladd@a+3)^0,w,c
  2252  0027F0  6E40               	movwf	___fladd@aexp^0,c
  2253  0027F2  AE39               	btfss	(___fladd@a+2)^0,7,c
  2254  0027F4  EFFE  F013         	goto	u1101
  2255  0027F8  EF00  F014         	goto	u1100
  2256  0027FC                     u1101:
  2257  0027FC  EF01  F014         	goto	l2273
  2258  002800                     u1100:
  2259  002800  8040               	bsf	___fladd@aexp^0,0,c
  2260  002802                     l2273:
  2261  002802  5040               	movf	___fladd@aexp^0,w,c
  2262  002804  B4D8               	btfsc	status,2,c
  2263  002806  EF07  F014         	goto	u1111
  2264  00280A  EF09  F014         	goto	u1110
  2265  00280E                     u1111:
  2266  00280E  EF1E  F014         	goto	l2283
  2267  002812                     u1110:
  2268  002812  2840               	incf	___fladd@aexp^0,w,c
  2269  002814  A4D8               	btfss	status,2,c
  2270  002816  EF0F  F014         	goto	u1121
  2271  00281A  EF11  F014         	goto	u1120
  2272  00281E                     u1121:
  2273  00281E  EF19  F014         	goto	l2279
  2274  002822                     u1120:
  2275  002822  0E00               	movlw	0
  2276  002824  6E37               	movwf	___fladd@a^0,c
  2277  002826  0E00               	movlw	0
  2278  002828  6E38               	movwf	(___fladd@a+1)^0,c
  2279  00282A  0E00               	movlw	0
  2280  00282C  6E39               	movwf	(___fladd@a+2)^0,c
  2281  00282E  0E00               	movlw	0
  2282  002830  6E3A               	movwf	(___fladd@a+3)^0,c
  2283  002832                     l2279:
  2284  002832  8E39               	bsf	(___fladd@a+2)^0,7,c
  2285  002834  0E00               	movlw	0
  2286  002836  6E3A               	movwf	(___fladd@a+3)^0,c
  2287  002838  EF26  F014         	goto	l2285
  2288  00283C                     l2283:
  2289  00283C  0E00               	movlw	0
  2290  00283E  6E37               	movwf	___fladd@a^0,c
  2291  002840  0E00               	movlw	0
  2292  002842  6E38               	movwf	(___fladd@a+1)^0,c
  2293  002844  0E00               	movlw	0
  2294  002846  6E39               	movwf	(___fladd@a+2)^0,c
  2295  002848  0E00               	movlw	0
  2296  00284A  6E3A               	movwf	(___fladd@a+3)^0,c
  2297  00284C                     l2285:
  2298  00284C  5041               	movf	___fladd@bexp^0,w,c
  2299  00284E  5C40               	subwf	___fladd@aexp^0,w,c
  2300  002850  B0D8               	btfsc	status,0,c
  2301  002852  EF2D  F014         	goto	u1131
  2302  002856  EF2F  F014         	goto	u1130
  2303  00285A                     u1131:
  2304  00285A  EF56  F014         	goto	l2321
  2305  00285E                     u1130:
  2306  00285E  AC3F               	btfss	___fladd@signs^0,6,c
  2307  002860  EF34  F014         	goto	u1141
  2308  002864  EF36  F014         	goto	u1140
  2309  002868                     u1141:
  2310  002868  EF38  F014         	goto	l2291
  2311  00286C                     u1140:
  2312  00286C  0E80               	movlw	128
  2313  00286E  1A3F               	xorwf	___fladd@signs^0,f,c
  2314  002870                     l2291:
  2315  002870  C041  F042         	movff	___fladd@bexp,___fladd@grs
  2316  002874  C040  F041         	movff	___fladd@aexp,___fladd@bexp
  2317  002878  C042  F040         	movff	___fladd@grs,___fladd@aexp
  2318  00287C  C033  F042         	movff	___fladd@b,___fladd@grs
  2319  002880  C037  F033         	movff	___fladd@a,___fladd@b
  2320  002884  C042  F037         	movff	___fladd@grs,___fladd@a
  2321  002888  C034  F042         	movff	___fladd@b+1,___fladd@grs
  2322  00288C  C038  F034         	movff	___fladd@a+1,___fladd@b+1
  2323  002890  C042  F038         	movff	___fladd@grs,___fladd@a+1
  2324  002894  C035  F042         	movff	___fladd@b+2,___fladd@grs
  2325  002898  C039  F035         	movff	___fladd@a+2,___fladd@b+2
  2326  00289C  C042  F039         	movff	___fladd@grs,___fladd@a+2
  2327  0028A0  C036  F042         	movff	___fladd@b+3,___fladd@grs
  2328  0028A4  C03A  F036         	movff	___fladd@a+3,___fladd@b+3
  2329  0028A8  C042  F03A         	movff	___fladd@grs,___fladd@a+3
  2330  0028AC                     l2321:
  2331  0028AC  0E00               	movlw	0
  2332  0028AE  6E42               	movwf	___fladd@grs^0,c
  2333  0028B0  5041               	movf	___fladd@bexp^0,w,c
  2334  0028B2  C040  F03B         	movff	___fladd@aexp,??___fladd
  2335  0028B6  6A3C               	clrf	(??___fladd+1)^0,c
  2336  0028B8  5E3B               	subwf	??___fladd^0,f,c
  2337  0028BA  0E00               	movlw	0
  2338  0028BC  5A3C               	subwfb	(??___fladd+1)^0,f,c
  2339  0028BE  BE3C               	btfsc	(??___fladd+1)^0,7,c
  2340  0028C0  EF6B  F014         	goto	u1151
  2341  0028C4  503C               	movf	(??___fladd+1)^0,w,c
  2342  0028C6  E109               	bnz	u1150
  2343  0028C8  0E1A               	movlw	26
  2344  0028CA  5C3B               	subwf	??___fladd^0,w,c
  2345  0028CC  A0D8               	btfss	status,0,c
  2346  0028CE  EF6B  F014         	goto	u1151
  2347  0028D2  EF6D  F014         	goto	u1150
  2348  0028D6                     u1151:
  2349  0028D6  EFA4  F014         	goto	l763
  2350  0028DA                     u1150:
  2351  0028DA  5033               	movf	___fladd@b^0,w,c
  2352  0028DC  1034               	iorwf	(___fladd@b+1)^0,w,c
  2353  0028DE  1035               	iorwf	(___fladd@b+2)^0,w,c
  2354  0028E0  1036               	iorwf	(___fladd@b+3)^0,w,c
  2355  0028E2  A4D8               	btfss	status,2,c
  2356  0028E4  EF76  F014         	goto	u1161
  2357  0028E8  EF79  F014         	goto	u1160
  2358  0028EC                     u1161:
  2359  0028EC  0E01               	movlw	1
  2360  0028EE  EF7A  F014         	goto	u1170
  2361  0028F2                     u1160:
  2362  0028F2  0E00               	movlw	0
  2363  0028F4                     u1170:
  2364  0028F4  6E42               	movwf	___fladd@grs^0,c
  2365  0028F6  0E00               	movlw	0
  2366  0028F8  6E33               	movwf	___fladd@b^0,c
  2367  0028FA  0E00               	movlw	0
  2368  0028FC  6E34               	movwf	(___fladd@b+1)^0,c
  2369  0028FE  0E00               	movlw	0
  2370  002900  6E35               	movwf	(___fladd@b+2)^0,c
  2371  002902  0E00               	movlw	0
  2372  002904  6E36               	movwf	(___fladd@b+3)^0,c
  2373  002906  C040  F041         	movff	___fladd@aexp,___fladd@bexp
  2374  00290A  EFAD  F014         	goto	l762
  2375  00290E                     l764:
  2376  00290E  A042               	btfss	___fladd@grs^0,0,c
  2377  002910  EF8C  F014         	goto	u1181
  2378  002914  EF8E  F014         	goto	u1180
  2379  002918                     u1181:
  2380  002918  EF94  F014         	goto	l2333
  2381  00291C                     u1180:
  2382  00291C  90D8               	bcf	status,0,c
  2383  00291E  3042               	rrcf	___fladd@grs^0,w,c
  2384  002920  0901               	iorlw	1
  2385  002922  6E42               	movwf	___fladd@grs^0,c
  2386  002924  EF96  F014         	goto	l2335
  2387  002928                     l2333:
  2388  002928  90D8               	bcf	status,0,c
  2389  00292A  3242               	rrcf	___fladd@grs^0,f,c
  2390  00292C                     l2335:
  2391  00292C  A033               	btfss	___fladd@b^0,0,c
  2392  00292E  EF9B  F014         	goto	u1191
  2393  002932  EF9D  F014         	goto	u1190
  2394  002936                     u1191:
  2395  002936  EF9E  F014         	goto	l2339
  2396  00293A                     u1190:
  2397  00293A  8E42               	bsf	___fladd@grs^0,7,c
  2398  00293C                     l2339:
  2399  00293C  3436               	rlcf	(___fladd@b+3)^0,w,c
  2400  00293E  3236               	rrcf	(___fladd@b+3)^0,f,c
  2401  002940  3235               	rrcf	(___fladd@b+2)^0,f,c
  2402  002942  3234               	rrcf	(___fladd@b+1)^0,f,c
  2403  002944  3233               	rrcf	___fladd@b^0,f,c
  2404  002946  2A41               	incf	___fladd@bexp^0,f,c
  2405  002948                     l763:
  2406  002948  5040               	movf	___fladd@aexp^0,w,c
  2407  00294A  5C41               	subwf	___fladd@bexp^0,w,c
  2408  00294C  A0D8               	btfss	status,0,c
  2409  00294E  EFAB  F014         	goto	u1201
  2410  002952  EFAD  F014         	goto	u1200
  2411  002956                     u1201:
  2412  002956  EF87  F014         	goto	l764
  2413  00295A                     u1200:
  2414  00295A                     l762:
  2415  00295A  BC3F               	btfsc	___fladd@signs^0,6,c
  2416  00295C  EFB2  F014         	goto	u1211
  2417  002960  EFB4  F014         	goto	u1210
  2418  002964                     u1211:
  2419  002964  EFF4  F014         	goto	l2367
  2420  002968                     u1210:
  2421  002968  5041               	movf	___fladd@bexp^0,w,c
  2422  00296A  A4D8               	btfss	status,2,c
  2423  00296C  EFBA  F014         	goto	u1221
  2424  002970  EFBC  F014         	goto	u1220
  2425  002974                     u1221:
  2426  002974  EFC6  F014         	goto	l2349
  2427  002978                     u1220:
  2428  002978  0E00               	movlw	0
  2429  00297A  6E33               	movwf	?___fladd^0,c
  2430  00297C  0E00               	movlw	0
  2431  00297E  6E34               	movwf	(?___fladd+1)^0,c
  2432  002980  0E00               	movlw	0
  2433  002982  6E35               	movwf	(?___fladd+2)^0,c
  2434  002984  0E00               	movlw	0
  2435  002986  6E36               	movwf	(?___fladd+3)^0,c
  2436  002988  EF15  F016         	goto	l771
  2437  00298C                     l2349:
  2438  00298C  5037               	movf	___fladd@a^0,w,c
  2439  00298E  2633               	addwf	___fladd@b^0,f,c
  2440  002990  5038               	movf	(___fladd@a+1)^0,w,c
  2441  002992  2234               	addwfc	(___fladd@b+1)^0,f,c
  2442  002994  5039               	movf	(___fladd@a+2)^0,w,c
  2443  002996  2235               	addwfc	(___fladd@b+2)^0,f,c
  2444  002998  503A               	movf	(___fladd@a+3)^0,w,c
  2445  00299A  2236               	addwfc	(___fladd@b+3)^0,f,c
  2446  00299C  A036               	btfss	(___fladd@b+3)^0,0,c
  2447  00299E  EFD3  F014         	goto	u1231
  2448  0029A2  EFD5  F014         	goto	u1230
  2449  0029A6                     u1231:
  2450  0029A6  EF81  F015         	goto	l2403
  2451  0029AA                     u1230:
  2452  0029AA  A042               	btfss	___fladd@grs^0,0,c
  2453  0029AC  EFDA  F014         	goto	u1241
  2454  0029B0  EFDC  F014         	goto	u1240
  2455  0029B4                     u1241:
  2456  0029B4  EFE2  F014         	goto	l2357
  2457  0029B8                     u1240:
  2458  0029B8  90D8               	bcf	status,0,c
  2459  0029BA  3042               	rrcf	___fladd@grs^0,w,c
  2460  0029BC  0901               	iorlw	1
  2461  0029BE  6E42               	movwf	___fladd@grs^0,c
  2462  0029C0  EFE4  F014         	goto	l2359
  2463  0029C4                     l2357:
  2464  0029C4  90D8               	bcf	status,0,c
  2465  0029C6  3242               	rrcf	___fladd@grs^0,f,c
  2466  0029C8                     l2359:
  2467  0029C8  A033               	btfss	___fladd@b^0,0,c
  2468  0029CA  EFE9  F014         	goto	u1251
  2469  0029CE  EFEB  F014         	goto	u1250
  2470  0029D2                     u1251:
  2471  0029D2  EFEC  F014         	goto	l2363
  2472  0029D6                     u1250:
  2473  0029D6  8E42               	bsf	___fladd@grs^0,7,c
  2474  0029D8                     l2363:
  2475  0029D8  3436               	rlcf	(___fladd@b+3)^0,w,c
  2476  0029DA  3236               	rrcf	(___fladd@b+3)^0,f,c
  2477  0029DC  3235               	rrcf	(___fladd@b+2)^0,f,c
  2478  0029DE  3234               	rrcf	(___fladd@b+1)^0,f,c
  2479  0029E0  3233               	rrcf	___fladd@b^0,f,c
  2480  0029E2  2A41               	incf	___fladd@bexp^0,f,c
  2481  0029E4  EF81  F015         	goto	l2403
  2482  0029E8                     l2367:
  2483  0029E8  5037               	movf	___fladd@a^0,w,c
  2484  0029EA  5C33               	subwf	___fladd@b^0,w,c
  2485  0029EC  5038               	movf	(___fladd@a+1)^0,w,c
  2486  0029EE  5834               	subwfb	(___fladd@b+1)^0,w,c
  2487  0029F0  5039               	movf	(___fladd@a+2)^0,w,c
  2488  0029F2  5835               	subwfb	(___fladd@b+2)^0,w,c
  2489  0029F4  5036               	movf	(___fladd@b+3)^0,w,c
  2490  0029F6  0A80               	xorlw	128
  2491  0029F8  6E3B               	movwf	??___fladd^0,c
  2492  0029FA  503A               	movf	(___fladd@a+3)^0,w,c
  2493  0029FC  0A80               	xorlw	128
  2494  0029FE  583B               	subwfb	??___fladd^0,w,c
  2495  002A00  B0D8               	btfsc	status,0,c
  2496  002A02  EF05  F015         	goto	u1261
  2497  002A06  EF07  F015         	goto	u1260
  2498  002A0A                     u1261:
  2499  002A0A  EF32  F015         	goto	l2377
  2500  002A0E                     u1260:
  2501  002A0E  5033               	movf	___fladd@b^0,w,c
  2502  002A10  5C37               	subwf	___fladd@a^0,w,c
  2503  002A12  6E3B               	movwf	??___fladd^0,c
  2504  002A14  5034               	movf	(___fladd@b+1)^0,w,c
  2505  002A16  5838               	subwfb	(___fladd@a+1)^0,w,c
  2506  002A18  6E3C               	movwf	(??___fladd+1)^0,c
  2507  002A1A  5035               	movf	(___fladd@b+2)^0,w,c
  2508  002A1C  5839               	subwfb	(___fladd@a+2)^0,w,c
  2509  002A1E  6E3D               	movwf	(??___fladd+2)^0,c
  2510  002A20  5036               	movf	(___fladd@b+3)^0,w,c
  2511  002A22  583A               	subwfb	(___fladd@a+3)^0,w,c
  2512  002A24  6E3E               	movwf	(??___fladd+3)^0,c
  2513  002A26  0EFF               	movlw	255
  2514  002A28  243B               	addwf	??___fladd^0,w,c
  2515  002A2A  6E33               	movwf	___fladd@b^0,c
  2516  002A2C  0EFF               	movlw	255
  2517  002A2E  203C               	addwfc	(??___fladd+1)^0,w,c
  2518  002A30  6E34               	movwf	(___fladd@b+1)^0,c
  2519  002A32  0EFF               	movlw	255
  2520  002A34  203D               	addwfc	(??___fladd+2)^0,w,c
  2521  002A36  6E35               	movwf	(___fladd@b+2)^0,c
  2522  002A38  0EFF               	movlw	255
  2523  002A3A  203E               	addwfc	(??___fladd+3)^0,w,c
  2524  002A3C  6E36               	movwf	(___fladd@b+3)^0,c
  2525  002A3E  0E80               	movlw	128
  2526  002A40  1A3F               	xorwf	___fladd@signs^0,f,c
  2527  002A42  6C42               	negf	___fladd@grs^0,c
  2528  002A44  5042               	movf	___fladd@grs^0,w,c
  2529  002A46  A4D8               	btfss	status,2,c
  2530  002A48  EF28  F015         	goto	u1271
  2531  002A4C  EF2A  F015         	goto	u1270
  2532  002A50                     u1271:
  2533  002A50  EF3A  F015         	goto	l779
  2534  002A54                     u1270:
  2535  002A54  0E01               	movlw	1
  2536  002A56  2633               	addwf	___fladd@b^0,f,c
  2537  002A58  0E00               	movlw	0
  2538  002A5A  2234               	addwfc	(___fladd@b+1)^0,f,c
  2539  002A5C  2235               	addwfc	(___fladd@b+2)^0,f,c
  2540  002A5E  2236               	addwfc	(___fladd@b+3)^0,f,c
  2541  002A60  EF3A  F015         	goto	l779
  2542  002A64                     l2377:
  2543  002A64  5037               	movf	___fladd@a^0,w,c
  2544  002A66  5E33               	subwf	___fladd@b^0,f,c
  2545  002A68  5038               	movf	(___fladd@a+1)^0,w,c
  2546  002A6A  5A34               	subwfb	(___fladd@b+1)^0,f,c
  2547  002A6C  5039               	movf	(___fladd@a+2)^0,w,c
  2548  002A6E  5A35               	subwfb	(___fladd@b+2)^0,f,c
  2549  002A70  503A               	movf	(___fladd@a+3)^0,w,c
  2550  002A72  5A36               	subwfb	(___fladd@b+3)^0,f,c
  2551  002A74                     l779:
  2552  002A74  5033               	movf	___fladd@b^0,w,c
  2553  002A76  1034               	iorwf	(___fladd@b+1)^0,w,c
  2554  002A78  1035               	iorwf	(___fladd@b+2)^0,w,c
  2555  002A7A  1036               	iorwf	(___fladd@b+3)^0,w,c
  2556  002A7C  A4D8               	btfss	status,2,c
  2557  002A7E  EF43  F015         	goto	u1281
  2558  002A82  EF45  F015         	goto	u1280
  2559  002A86                     u1281:
  2560  002A86  EF7A  F015         	goto	l2401
  2561  002A8A                     u1280:
  2562  002A8A  5042               	movf	___fladd@grs^0,w,c
  2563  002A8C  A4D8               	btfss	status,2,c
  2564  002A8E  EF4B  F015         	goto	u1291
  2565  002A92  EF4D  F015         	goto	u1290
  2566  002A96                     u1291:
  2567  002A96  EF7A  F015         	goto	l2401
  2568  002A9A                     u1290:
  2569  002A9A  0E00               	movlw	0
  2570  002A9C  6E33               	movwf	?___fladd^0,c
  2571  002A9E  0E00               	movlw	0
  2572  002AA0  6E34               	movwf	(?___fladd+1)^0,c
  2573  002AA2  0E00               	movlw	0
  2574  002AA4  6E35               	movwf	(?___fladd+2)^0,c
  2575  002AA6  0E00               	movlw	0
  2576  002AA8  6E36               	movwf	(?___fladd+3)^0,c
  2577  002AAA  EF15  F016         	goto	l771
  2578  002AAE                     l2385:
  2579  002AAE  90D8               	bcf	status,0,c
  2580  002AB0  3633               	rlcf	___fladd@b^0,f,c
  2581  002AB2  3634               	rlcf	(___fladd@b+1)^0,f,c
  2582  002AB4  3635               	rlcf	(___fladd@b+2)^0,f,c
  2583  002AB6  3636               	rlcf	(___fladd@b+3)^0,f,c
  2584  002AB8  AE42               	btfss	___fladd@grs^0,7,c
  2585  002ABA  EF61  F015         	goto	u1301
  2586  002ABE  EF63  F015         	goto	u1300
  2587  002AC2                     u1301:
  2588  002AC2  EF64  F015         	goto	l2391
  2589  002AC6                     u1300:
  2590  002AC6  8033               	bsf	___fladd@b^0,0,c
  2591  002AC8                     l2391:
  2592  002AC8  A042               	btfss	___fladd@grs^0,0,c
  2593  002ACA  EF69  F015         	goto	u1311
  2594  002ACE  EF6B  F015         	goto	u1310
  2595  002AD2                     u1311:
  2596  002AD2  EF6F  F015         	goto	l2395
  2597  002AD6                     u1310:
  2598  002AD6  80D8               	bsf	status,0,c
  2599  002AD8  3642               	rlcf	___fladd@grs^0,f,c
  2600  002ADA  EF71  F015         	goto	l2397
  2601  002ADE                     l2395:
  2602  002ADE  90D8               	bcf	status,0,c
  2603  002AE0  3642               	rlcf	___fladd@grs^0,f,c
  2604  002AE2                     l2397:
  2605  002AE2  5041               	movf	___fladd@bexp^0,w,c
  2606  002AE4  B4D8               	btfsc	status,2,c
  2607  002AE6  EF77  F015         	goto	u1321
  2608  002AEA  EF79  F015         	goto	u1320
  2609  002AEE                     u1321:
  2610  002AEE  EF7A  F015         	goto	l2401
  2611  002AF2                     u1320:
  2612  002AF2  0641               	decf	___fladd@bexp^0,f,c
  2613  002AF4                     l2401:
  2614  002AF4  AE35               	btfss	(___fladd@b+2)^0,7,c
  2615  002AF6  EF7F  F015         	goto	u1331
  2616  002AFA  EF81  F015         	goto	u1330
  2617  002AFE                     u1331:
  2618  002AFE  EF57  F015         	goto	l2385
  2619  002B02                     u1330:
  2620  002B02                     l2403:
  2621  002B02  0E00               	movlw	0
  2622  002B04  6E40               	movwf	___fladd@aexp^0,c
  2623  002B06  AE42               	btfss	___fladd@grs^0,7,c
  2624  002B08  EF88  F015         	goto	u1341
  2625  002B0C  EF8A  F015         	goto	u1340
  2626  002B10                     u1341:
  2627  002B10  EFA2  F015         	goto	l788
  2628  002B14                     u1340:
  2629  002B14  C042  F03B         	movff	___fladd@grs,??___fladd
  2630  002B18  0E7F               	movlw	127
  2631  002B1A  163B               	andwf	??___fladd^0,f,c
  2632  002B1C  B4D8               	btfsc	status,2,c
  2633  002B1E  EF93  F015         	goto	u1351
  2634  002B22  EF95  F015         	goto	u1350
  2635  002B26                     u1351:
  2636  002B26  EF99  F015         	goto	l789
  2637  002B2A                     u1350:
  2638  002B2A                     l2409:
  2639  002B2A  0E01               	movlw	1
  2640  002B2C  6E40               	movwf	___fladd@aexp^0,c
  2641  002B2E  EFA2  F015         	goto	l788
  2642  002B32                     l789:
  2643  002B32  A033               	btfss	___fladd@b^0,0,c
  2644  002B34  EF9E  F015         	goto	u1361
  2645  002B38  EFA0  F015         	goto	u1360
  2646  002B3C                     u1361:
  2647  002B3C  EFA2  F015         	goto	l788
  2648  002B40                     u1360:
  2649  002B40  EF95  F015         	goto	l2409
  2650  002B44                     l788:
  2651  002B44  5040               	movf	___fladd@aexp^0,w,c
  2652  002B46  B4D8               	btfsc	status,2,c
  2653  002B48  EFA8  F015         	goto	u1371
  2654  002B4C  EFAA  F015         	goto	u1370
  2655  002B50                     u1371:
  2656  002B50  EFD5  F015         	goto	l2421
  2657  002B54                     u1370:
  2658  002B54  0E01               	movlw	1
  2659  002B56  2633               	addwf	___fladd@b^0,f,c
  2660  002B58  0E00               	movlw	0
  2661  002B5A  2234               	addwfc	(___fladd@b+1)^0,f,c
  2662  002B5C  2235               	addwfc	(___fladd@b+2)^0,f,c
  2663  002B5E  2236               	addwfc	(___fladd@b+3)^0,f,c
  2664  002B60  A036               	btfss	(___fladd@b+3)^0,0,c
  2665  002B62  EFB5  F015         	goto	u1381
  2666  002B66  EFB7  F015         	goto	u1380
  2667  002B6A                     u1381:
  2668  002B6A  EFD5  F015         	goto	l2421
  2669  002B6E                     u1380:
  2670  002B6E  C033  F03B         	movff	___fladd@b,??___fladd
  2671  002B72  C034  F03C         	movff	___fladd@b+1,??___fladd+1
  2672  002B76  C035  F03D         	movff	___fladd@b+2,??___fladd+2
  2673  002B7A  C036  F03E         	movff	___fladd@b+3,??___fladd+3
  2674  002B7E  343E               	rlcf	(??___fladd+3)^0,w,c
  2675  002B80  323E               	rrcf	(??___fladd+3)^0,f,c
  2676  002B82  323D               	rrcf	(??___fladd+2)^0,f,c
  2677  002B84  323C               	rrcf	(??___fladd+1)^0,f,c
  2678  002B86  323B               	rrcf	??___fladd^0,f,c
  2679  002B88  C03B  F033         	movff	??___fladd,___fladd@b
  2680  002B8C  C03C  F034         	movff	??___fladd+1,___fladd@b+1
  2681  002B90  C03D  F035         	movff	??___fladd+2,___fladd@b+2
  2682  002B94  C03E  F036         	movff	??___fladd+3,___fladd@b+3
  2683  002B98  2841               	incf	___fladd@bexp^0,w,c
  2684  002B9A  B4D8               	btfsc	status,2,c
  2685  002B9C  EFD2  F015         	goto	u1391
  2686  002BA0  EFD4  F015         	goto	u1390
  2687  002BA4                     u1391:
  2688  002BA4  EFD5  F015         	goto	l2421
  2689  002BA8                     u1390:
  2690  002BA8  2A41               	incf	___fladd@bexp^0,f,c
  2691  002BAA                     l2421:
  2692  002BAA  2841               	incf	___fladd@bexp^0,w,c
  2693  002BAC  B4D8               	btfsc	status,2,c
  2694  002BAE  EFDB  F015         	goto	u1401
  2695  002BB2  EFDD  F015         	goto	u1400
  2696  002BB6                     u1401:
  2697  002BB6  EFE5  F015         	goto	l2425
  2698  002BBA                     u1400:
  2699  002BBA  5041               	movf	___fladd@bexp^0,w,c
  2700  002BBC  A4D8               	btfss	status,2,c
  2701  002BBE  EFE3  F015         	goto	u1411
  2702  002BC2  EFE5  F015         	goto	u1410
  2703  002BC6                     u1411:
  2704  002BC6  EFF7  F015         	goto	l2429
  2705  002BCA                     u1410:
  2706  002BCA                     l2425:
  2707  002BCA  0E00               	movlw	0
  2708  002BCC  6E33               	movwf	___fladd@b^0,c
  2709  002BCE  0E00               	movlw	0
  2710  002BD0  6E34               	movwf	(___fladd@b+1)^0,c
  2711  002BD2  0E00               	movlw	0
  2712  002BD4  6E35               	movwf	(___fladd@b+2)^0,c
  2713  002BD6  0E00               	movlw	0
  2714  002BD8  6E36               	movwf	(___fladd@b+3)^0,c
  2715  002BDA  5041               	movf	___fladd@bexp^0,w,c
  2716  002BDC  A4D8               	btfss	status,2,c
  2717  002BDE  EFF3  F015         	goto	u1421
  2718  002BE2  EFF5  F015         	goto	u1420
  2719  002BE6                     u1421:
  2720  002BE6  EFF7  F015         	goto	l2429
  2721  002BEA                     u1420:
  2722  002BEA  0E00               	movlw	0
  2723  002BEC  6E3F               	movwf	___fladd@signs^0,c
  2724  002BEE                     l2429:
  2725  002BEE  A041               	btfss	___fladd@bexp^0,0,c
  2726  002BF0  EFFC  F015         	goto	u1431
  2727  002BF4  EFFE  F015         	goto	u1430
  2728  002BF8                     u1431:
  2729  002BF8  EF01  F016         	goto	l2433
  2730  002BFC                     u1430:
  2731  002BFC  8E35               	bsf	(___fladd@b+2)^0,7,c
  2732  002BFE  EF02  F016         	goto	l2435
  2733  002C02                     l2433:
  2734  002C02  9E35               	bcf	(___fladd@b+2)^0,7,c
  2735  002C04                     l2435:
  2736  002C04  90D8               	bcf	status,0,c
  2737  002C06  3041               	rrcf	___fladd@bexp^0,w,c
  2738  002C08  6E36               	movwf	(___fladd@b+3)^0,c
  2739  002C0A  AE3F               	btfss	___fladd@signs^0,7,c
  2740  002C0C  EF0A  F016         	goto	u1441
  2741  002C10  EF0C  F016         	goto	u1440
  2742  002C14                     u1441:
  2743  002C14  EF0D  F016         	goto	l2441
  2744  002C18                     u1440:
  2745  002C18  8E36               	bsf	(___fladd@b+3)^0,7,c
  2746  002C1A                     l2441:
  2747  002C1A  C033  F033         	movff	___fladd@b,?___fladd
  2748  002C1E  C034  F034         	movff	___fladd@b+1,?___fladd+1
  2749  002C22  C035  F035         	movff	___fladd@b+2,?___fladd+2
  2750  002C26  C036  F036         	movff	___fladd@b+3,?___fladd+3
  2751  002C2A                     l771:
  2752  002C2A  0012               	return		;funcret
  2753  002C2C                     __end_of___fladd:
  2754                           	callstack 0
  2755                           
  2756 ;; *************** function _initialize_cw *****************
  2757 ;; Defined at:
  2758 ;;		line 10 in file "cw.c"
  2759 ;; Parameters:    Size  Location     Type
  2760 ;;  speed           2    1[COMRAM] int 
  2761 ;; Auto vars:     Size  Location     Type
  2762 ;;		None
  2763 ;; Return value:  Size  Location     Type
  2764 ;;                  1    wreg      void 
  2765 ;; Registers used:
  2766 ;;		wreg, status,2, cstack
  2767 ;; Tracked objects:
  2768 ;;		On entry : 0/0
  2769 ;;		On exit  : 0/0
  2770 ;;		Unchanged: 0/0
  2771 ;; Data sizes:     COMRAM   BANK0   BANK1   BANK2   BANK3   BANK4   BANK5   BANK6   BANK7   BANK8   BANK9  BANK10  BANK1
      +1  BANK12  BANK13  BANK14  BANK15  BANK16  BANK17  BANK18  BANK19  BANK20  BANK21  BANK22  BANK23  BANK24  BANK25  BANK2
      +6  BANK27  BANK28  BANK29  BANK30  BANK31
  2772 ;;      Params:         2       0       0       0       0       0       0       0       0       0       0       0       
      +0       0       0       0       0       0       0       0       0       0       0       0       0       0       0       
      +0       0       0       0       0       0
  2773 ;;      Locals:         0       0       0       0       0       0       0       0       0       0       0       0       
      +0       0       0       0       0       0       0       0       0       0       0       0       0       0       0       
      +0       0       0       0       0       0
  2774 ;;      Temps:          0       0       0       0       0       0       0       0       0       0       0       0       
      +0       0       0       0       0       0       0       0       0       0       0       0       0       0       0       
      +0       0       0       0       0       0
  2775 ;;      Totals:         2       0       0       0       0       0       0       0       0       0       0       0       
      +0       0       0       0       0       0       0       0       0       0       0       0       0       0       0       
      +0       0       0       0       0       0
  2776 ;;Total ram usage:        2 bytes
  2777 ;; Hardware stack levels used: 1
  2778 ;; Hardware stack levels required when called: 1
  2779 ;; This function calls:
  2780 ;;		_tone_enable
  2781 ;; This function is called by:
  2782 ;;		_main
  2783 ;; This function uses a non-reentrant model
  2784 ;;
  2785                           
  2786                           	psect	text7
  2787  003934                     __ptext7:
  2788                           	callstack 0
  2789  003934                     _initialize_cw:
  2790                           	callstack 29
  2791  003934                     
  2792                           ;cw.c: 11:     MD1CON1bits.CHSYNC = 0;
  2793  003934  013C               	movlb	60	; () banked
  2794  003936  99FB               	bcf	251,4,b	;volatile
  2795                           
  2796                           ;cw.c: 12:     MD1CON1bits.CLSYNC = 0;
  2797  003938  91FB               	bcf	251,0,b	;volatile
  2798  00393A                     
  2799                           ; BSR set to: 60
  2800                           ;cw.c: 13:     MD1CARHbits.CH = 0b01000;
  2801  00393A  51FE               	movf	254,w,b	;volatile
  2802  00393C  0BE0               	andlw	-32
  2803  00393E  0908               	iorlw	8
  2804  003940  6FFE               	movwf	254,b	;volatile
  2805                           
  2806                           ;cw.c: 14:     MD1SRCbits.MD1MS = 0b00001;
  2807  003942  51FC               	movf	252,w,b	;volatile
  2808  003944  0BE0               	andlw	-32
  2809  003946  0901               	iorlw	1
  2810  003948  6FFC               	movwf	252,b	;volatile
  2811                           
  2812                           ;cw.c: 15:     RC4PPS = 0b101000;
  2813  00394A  0E28               	movlw	40
  2814  00394C  013A               	movlb	58	; () banked
  2815  00394E  6F14               	movwf	20,b	;volatile
  2816  003950                     
  2817                           ; BSR set to: 58
  2818                           ;cw.c: 16:     MD1CON0bits.EN = 1;
  2819  003950  013C               	movlb	60	; () banked
  2820  003952  8FFA               	bsf	250,7,b	;volatile
  2821  003954                     
  2822                           ; BSR set to: 60
  2823                           ;cw.c: 17:     T4CLKbits.T4CS0 = 1;
  2824  003954  80A2               	bsf	162,0,c	;volatile
  2825                           
  2826                           ;cw.c: 18:     T4CONbits.CKPS = 0b110;
  2827  003956  50A0               	movf	160,w,c	;volatile
  2828  003958  0B8F               	andlw	-113
  2829  00395A  0960               	iorlw	96
  2830  00395C  6EA0               	movwf	160,c	;volatile
  2831                           
  2832                           ;cw.c: 19:     T4PRbits.PR4 = 0x7;
  2833  00395E  0E07               	movlw	7
  2834  003960  6E9F               	movwf	159,c	;volatile
  2835                           
  2836                           ;cw.c: 20:     T4HLTbits.MODE = 0b01000;
  2837  003962  50A1               	movf	161,w,c	;volatile
  2838  003964  0BE0               	andlw	-32
  2839  003966  0908               	iorlw	8
  2840  003968  6EA1               	movwf	161,c	;volatile
  2841  00396A                     
  2842                           ; BSR set to: 60
  2843                           ;cw.c: 22:     tone_enable(1);
  2844  00396A  0E01               	movlw	1
  2845  00396C  ECD4  F01C         	call	_tone_enable
  2846  003970                     
  2847                           ;cw.c: 23:     dit_length = speed;
  2848  003970  C002  F057         	movff	initialize_cw@speed,_dit_length
  2849  003974  C003  F058         	movff	initialize_cw@speed+1,_dit_length+1
  2850  003978  0012               	return		;funcret
  2851  00397A                     __end_of_initialize_cw:
  2852                           	callstack 0
  2853                           
  2854 ;; *************** function _deinitialize_tone_generator *****************
  2855 ;; Defined at:
  2856 ;;		line 39 in file "tone_generator.c"
  2857 ;; Parameters:    Size  Location     Type
  2858 ;;		None
  2859 ;; Auto vars:     Size  Location     Type
  2860 ;;		None
  2861 ;; Return value:  Size  Location     Type
  2862 ;;                  1    wreg      void 
  2863 ;; Registers used:
  2864 ;;		wreg, status,2
  2865 ;; Tracked objects:
  2866 ;;		On entry : 0/0
  2867 ;;		On exit  : 0/0
  2868 ;;		Unchanged: 0/0
  2869 ;; Data sizes:     COMRAM   BANK0   BANK1   BANK2   BANK3   BANK4   BANK5   BANK6   BANK7   BANK8   BANK9  BANK10  BANK1
      +1  BANK12  BANK13  BANK14  BANK15  BANK16  BANK17  BANK18  BANK19  BANK20  BANK21  BANK22  BANK23  BANK24  BANK25  BANK2
      +6  BANK27  BANK28  BANK29  BANK30  BANK31
  2870 ;;      Params:         0       0       0       0       0       0       0       0       0       0       0       0       
      +0       0       0       0       0       0       0       0       0       0       0       0       0       0       0       
      +0       0       0       0       0       0
  2871 ;;      Locals:         0       0       0       0       0       0       0       0       0       0       0       0       
      +0       0       0       0       0       0       0       0       0       0       0       0       0       0       0       
      +0       0       0       0       0       0
  2872 ;;      Temps:          0       0       0       0       0       0       0       0       0       0       0       0       
      +0       0       0       0       0       0       0       0       0       0       0       0       0       0       0       
      +0       0       0       0       0       0
  2873 ;;      Totals:         0       0       0       0       0       0       0       0       0       0       0       0       
      +0       0       0       0       0       0       0       0       0       0       0       0       0       0       0       
      +0       0       0       0       0       0
  2874 ;;Total ram usage:        0 bytes
  2875 ;; Hardware stack levels used: 1
  2876 ;; This function calls:
  2877 ;;		Nothing
  2878 ;; This function is called by:
  2879 ;;		_main
  2880 ;; This function uses a non-reentrant model
  2881 ;;
  2882                           
  2883                           	psect	text8
  2884  003A08                     __ptext8:
  2885                           	callstack 0
  2886  003A08                     _deinitialize_tone_generator:
  2887                           	callstack 30
  2888  003A08                     
  2889                           ;tone_generator.c: 40:     PWM5CON = 0;
  2890  003A08  0E00               	movlw	0
  2891  003A0A  6E6E               	movwf	110,c	;volatile
  2892  003A0C                     
  2893                           ;tone_generator.c: 41:     T2CONbits.ON = 0;
  2894  003A0C  9EAC               	bcf	172,7,c	;volatile
  2895  003A0E  0012               	return		;funcret
  2896  003A10                     __end_of_deinitialize_tone_generator:
  2897                           	callstack 0
  2898                           
  2899 ;; *************** function _deinitialize_cw *****************
  2900 ;; Defined at:
  2901 ;;		line 26 in file "cw.c"
  2902 ;; Parameters:    Size  Location     Type
  2903 ;;		None
  2904 ;; Auto vars:     Size  Location     Type
  2905 ;;		None
  2906 ;; Return value:  Size  Location     Type
  2907 ;;                  1    wreg      void 
  2908 ;; Registers used:
  2909 ;;		wreg, status,2, cstack
  2910 ;; Tracked objects:
  2911 ;;		On entry : 0/0
  2912 ;;		On exit  : 0/0
  2913 ;;		Unchanged: 0/0
  2914 ;; Data sizes:     COMRAM   BANK0   BANK1   BANK2   BANK3   BANK4   BANK5   BANK6   BANK7   BANK8   BANK9  BANK10  BANK1
      +1  BANK12  BANK13  BANK14  BANK15  BANK16  BANK17  BANK18  BANK19  BANK20  BANK21  BANK22  BANK23  BANK24  BANK25  BANK2
      +6  BANK27  BANK28  BANK29  BANK30  BANK31
  2915 ;;      Params:         0       0       0       0       0       0       0       0       0       0       0       0       
      +0       0       0       0       0       0       0       0       0       0       0       0       0       0       0       
      +0       0       0       0       0       0
  2916 ;;      Locals:         0       0       0       0       0       0       0       0       0       0       0       0       
      +0       0       0       0       0       0       0       0       0       0       0       0       0       0       0       
      +0       0       0       0       0       0
  2917 ;;      Temps:          0       0       0       0       0       0       0       0       0       0       0       0       
      +0       0       0       0       0       0       0       0       0       0       0       0       0       0       0       
      +0       0       0       0       0       0
  2918 ;;      Totals:         0       0       0       0       0       0       0       0       0       0       0       0       
      +0       0       0       0       0       0       0       0       0       0       0       0       0       0       0       
      +0       0       0       0       0       0
  2919 ;;Total ram usage:        0 bytes
  2920 ;; Hardware stack levels used: 1
  2921 ;; Hardware stack levels required when called: 1
  2922 ;; This function calls:
  2923 ;;		_tone_enable
  2924 ;; This function is called by:
  2925 ;;		_main
  2926 ;; This function uses a non-reentrant model
  2927 ;;
  2928                           
  2929                           	psect	text9
  2930  0039F2                     __ptext9:
  2931                           	callstack 0
  2932  0039F2                     _deinitialize_cw:
  2933                           	callstack 29
  2934  0039F2                     
  2935                           ;cw.c: 27:     MD1CON0bits.EN = 0;
  2936  0039F2  013C               	movlb	60	; () banked
  2937  0039F4  9FFA               	bcf	250,7,b	;volatile
  2938  0039F6                     
  2939                           ; BSR set to: 60
  2940                           ;cw.c: 28:     tone_enable(0);
  2941  0039F6  0E00               	movlw	0
  2942  0039F8  ECD4  F01C         	call	_tone_enable
  2943  0039FC  0012               	return		;funcret
  2944  0039FE                     __end_of_deinitialize_cw:
  2945                           	callstack 0
  2946                           
  2947 ;; *************** function _tone_enable *****************
  2948 ;; Defined at:
  2949 ;;		line 44 in file "tone_generator.c"
  2950 ;; Parameters:    Size  Location     Type
  2951 ;;  tone_active     1    wreg     _Bool 
  2952 ;; Auto vars:     Size  Location     Type
  2953 ;;  tone_active     1    0[COMRAM] _Bool 
  2954 ;; Return value:  Size  Location     Type
  2955 ;;                  1    wreg      void 
  2956 ;; Registers used:
  2957 ;;		wreg, status,2
  2958 ;; Tracked objects:
  2959 ;;		On entry : 0/0
  2960 ;;		On exit  : 0/0
  2961 ;;		Unchanged: 0/0
  2962 ;; Data sizes:     COMRAM   BANK0   BANK1   BANK2   BANK3   BANK4   BANK5   BANK6   BANK7   BANK8   BANK9  BANK10  BANK1
      +1  BANK12  BANK13  BANK14  BANK15  BANK16  BANK17  BANK18  BANK19  BANK20  BANK21  BANK22  BANK23  BANK24  BANK25  BANK2
      +6  BANK27  BANK28  BANK29  BANK30  BANK31
  2963 ;;      Params:         0       0       0       0       0       0       0       0       0       0       0       0       
      +0       0       0       0       0       0       0       0       0       0       0       0       0       0       0       
      +0       0       0       0       0       0
  2964 ;;      Locals:         1       0       0       0       0       0       0       0       0       0       0       0       
      +0       0       0       0       0       0       0       0       0       0       0       0       0       0       0       
      +0       0       0       0       0       0
  2965 ;;      Temps:          0       0       0       0       0       0       0       0       0       0       0       0       
      +0       0       0       0       0       0       0       0       0       0       0       0       0       0       0       
      +0       0       0       0       0       0
  2966 ;;      Totals:         1       0       0       0       0       0       0       0       0       0       0       0       
      +0       0       0       0       0       0       0       0       0       0       0       0       0       0       0       
      +0       0       0       0       0       0
  2967 ;;Total ram usage:        1 bytes
  2968 ;; Hardware stack levels used: 1
  2969 ;; This function calls:
  2970 ;;		Nothing
  2971 ;; This function is called by:
  2972 ;;		_initialize_cw
  2973 ;;		_deinitialize_cw
  2974 ;; This function uses a non-reentrant model
  2975 ;;
  2976                           
  2977                           	psect	text10
  2978  0039A8                     __ptext10:
  2979                           	callstack 0
  2980  0039A8                     _tone_enable:
  2981                           	callstack 29
  2982                           
  2983                           ;incstack = 0
  2984                           ;tone_enable@tone_active stored from wreg
  2985  0039A8  6E01               	movwf	tone_enable@tone_active^0,c
  2986  0039AA                     
  2987                           ;tone_generator.c: 45:     if (tone_active) {
  2988  0039AA  5001               	movf	tone_enable@tone_active^0,w,c
  2989  0039AC  B4D8               	btfsc	status,2,c
  2990  0039AE  EFDB  F01C         	goto	u31
  2991  0039B2  EFDD  F01C         	goto	u30
  2992  0039B6                     u31:
  2993  0039B6  EFE0  F01C         	goto	l229
  2994  0039BA                     u30:
  2995  0039BA                     
  2996                           ;tone_generator.c: 46:         PWM5CONbits.EN = 1;
  2997  0039BA  8E6E               	bsf	110,7,c	;volatile
  2998                           
  2999                           ;tone_generator.c: 47:     } else {
  3000  0039BC  EFE1  F01C         	goto	l231
  3001  0039C0                     l229:
  3002                           
  3003                           ;tone_generator.c: 48:         PWM5CONbits.EN = 0;
  3004  0039C0  9E6E               	bcf	110,7,c	;volatile
  3005  0039C2                     l231:
  3006  0039C2  0012               	return		;funcret
  3007  0039C4                     __end_of_tone_enable:
  3008                           	callstack 0
  3009                           
  3010 ;; *************** function _cw_message *****************
  3011 ;; Defined at:
  3012 ;;		line 31 in file "cw.c"
  3013 ;; Parameters:    Size  Location     Type
  3014 ;;  message         2    5[COMRAM] PTR unsigned char 
  3015 ;;		 -> STR_4(6), STR_3(3), STR_2(6), STR_1(6), 
  3016 ;;  message_size    2    7[COMRAM] unsigned int 
  3017 ;; Auto vars:     Size  Location     Type
  3018 ;;  i               2   11[COMRAM] int 
  3019 ;; Return value:  Size  Location     Type
  3020 ;;                  1    wreg      void 
  3021 ;; Registers used:
  3022 ;;		wreg, status,2, status,0, tblptrl, tblptrh, tblptru, cstack
  3023 ;; Tracked objects:
  3024 ;;		On entry : 0/0
  3025 ;;		On exit  : 0/0
  3026 ;;		Unchanged: 0/0
  3027 ;; Data sizes:     COMRAM   BANK0   BANK1   BANK2   BANK3   BANK4   BANK5   BANK6   BANK7   BANK8   BANK9  BANK10  BANK1
      +1  BANK12  BANK13  BANK14  BANK15  BANK16  BANK17  BANK18  BANK19  BANK20  BANK21  BANK22  BANK23  BANK24  BANK25  BANK2
      +6  BANK27  BANK28  BANK29  BANK30  BANK31
  3028 ;;      Params:         4       0       0       0       0       0       0       0       0       0       0       0       
      +0       0       0       0       0       0       0       0       0       0       0       0       0       0       0       
      +0       0       0       0       0       0
  3029 ;;      Locals:         2       0       0       0       0       0       0       0       0       0       0       0       
      +0       0       0       0       0       0       0       0       0       0       0       0       0       0       0       
      +0       0       0       0       0       0
  3030 ;;      Temps:          2       0       0       0       0       0       0       0       0       0       0       0       
      +0       0       0       0       0       0       0       0       0       0       0       0       0       0       0       
      +0       0       0       0       0       0
  3031 ;;      Totals:         8       0       0       0       0       0       0       0       0       0       0       0       
      +0       0       0       0       0       0       0       0       0       0       0       0       0       0       0       
      +0       0       0       0       0       0
  3032 ;;Total ram usage:        8 bytes
  3033 ;; Hardware stack levels used: 1
  3034 ;; Hardware stack levels required when called: 4
  3035 ;; This function calls:
  3036 ;;		_cw
  3037 ;;		_dahspace
  3038 ;; This function is called by:
  3039 ;;		_main
  3040 ;; This function uses a non-reentrant model
  3041 ;;
  3042                           
  3043                           	psect	text11
  3044  0038E0                     __ptext11:
  3045                           	callstack 0
  3046  0038E0                     _cw_message:
  3047                           	callstack 26
  3048  0038E0                     
  3049                           ;cw.c: 32:     for (int i = 0; i < message_size; i++) {
  3050  0038E0  0E00               	movlw	0
  3051  0038E2  6E0D               	movwf	(cw_message@i+1)^0,c
  3052  0038E4  0E00               	movlw	0
  3053  0038E6  6E0C               	movwf	cw_message@i^0,c
  3054  0038E8  EF8A  F01C         	goto	l2849
  3055  0038EC                     l2845:
  3056                           
  3057                           ;cw.c: 33:         cw(message[i]);
  3058  0038EC  500C               	movf	cw_message@i^0,w,c
  3059  0038EE  2406               	addwf	cw_message@message^0,w,c
  3060  0038F0  6E0A               	movwf	??_cw_message^0,c
  3061  0038F2  500D               	movf	(cw_message@i+1)^0,w,c
  3062  0038F4  2007               	addwfc	(cw_message@message+1)^0,w,c
  3063  0038F6  6E0B               	movwf	(??_cw_message+1)^0,c
  3064  0038F8  0060  F02B  FFF6   	movff	??_cw_message,tblptrl
  3065  0038FE  0060  F02F  FFF7   	movff	??_cw_message+1,tblptrh
  3066  003904                     	if	0	;tblptru may be non-zero
  3067  003904                     	endif
  3068  003904                     	if	1	;Program memory is > 0xFFFF, there are 3 active tblptr bytes
  3069  003904  0E00               	movlw	low (__mediumconst shr (0+16))
  3070  003906  6EF8               	movwf	tblptru,c
  3071  003908                     	endif
  3072  003908  0008               	tblrd		*
  3073  00390A  50F5               	movf	tablat,w,c
  3074  00390C  EC09  F010         	call	_cw
  3075  003910                     
  3076                           ;cw.c: 34:     }
  3077  003910  4A0C               	infsnz	cw_message@i^0,f,c
  3078  003912  2A0D               	incf	(cw_message@i+1)^0,f,c
  3079  003914                     l2849:
  3080  003914  5008               	movf	cw_message@message_size^0,w,c
  3081  003916  5C0C               	subwf	cw_message@i^0,w,c
  3082  003918  5009               	movf	(cw_message@message_size+1)^0,w,c
  3083  00391A  580D               	subwfb	(cw_message@i+1)^0,w,c
  3084  00391C  A0D8               	btfss	status,0,c
  3085  00391E  EF93  F01C         	goto	u2051
  3086  003922  EF95  F01C         	goto	u2050
  3087  003926                     u2051:
  3088  003926  EF76  F01C         	goto	l2845
  3089  00392A                     u2050:
  3090  00392A                     
  3091                           ;cw.c: 35:     dahspace(); dahspace();
  3092  00392A  ECBD  F01C         	call	_dahspace	;wreg free
  3093  00392E  ECBD  F01C         	call	_dahspace	;wreg free
  3094  003932  0012               	return		;funcret
  3095  003934                     __end_of_cw_message:
  3096                           	callstack 0
  3097                           
  3098 ;; *************** function _cw *****************
  3099 ;; Defined at:
  3100 ;;		line 38 in file "cw.c"
  3101 ;; Parameters:    Size  Location     Type
  3102 ;;  character       1    wreg     unsigned char 
  3103 ;; Auto vars:     Size  Location     Type
  3104 ;;  character       1    4[COMRAM] unsigned char 
  3105 ;; Return value:  Size  Location     Type
  3106 ;;                  1    wreg      void 
  3107 ;; Registers used:
  3108 ;;		wreg, status,2, status,0, cstack
  3109 ;; Tracked objects:
  3110 ;;		On entry : 0/0
  3111 ;;		On exit  : 0/0
  3112 ;;		Unchanged: 0/0
  3113 ;; Data sizes:     COMRAM   BANK0   BANK1   BANK2   BANK3   BANK4   BANK5   BANK6   BANK7   BANK8   BANK9  BANK10  BANK1
      +1  BANK12  BANK13  BANK14  BANK15  BANK16  BANK17  BANK18  BANK19  BANK20  BANK21  BANK22  BANK23  BANK24  BANK25  BANK2
      +6  BANK27  BANK28  BANK29  BANK30  BANK31
  3114 ;;      Params:         0       0       0       0       0       0       0       0       0       0       0       0       
      +0       0       0       0       0       0       0       0       0       0       0       0       0       0       0       
      +0       0       0       0       0       0
  3115 ;;      Locals:         1       0       0       0       0       0       0       0       0       0       0       0       
      +0       0       0       0       0       0       0       0       0       0       0       0       0       0       0       
      +0       0       0       0       0       0
  3116 ;;      Temps:          2       0       0       0       0       0       0       0       0       0       0       0       
      +0       0       0       0       0       0       0       0       0       0       0       0       0       0       0       
      +0       0       0       0       0       0
  3117 ;;      Totals:         3       0       0       0       0       0       0       0       0       0       0       0       
      +0       0       0       0       0       0       0       0       0       0       0       0       0       0       0       
      +0       0       0       0       0       0
  3118 ;;Total ram usage:        3 bytes
  3119 ;; Hardware stack levels used: 1
  3120 ;; Hardware stack levels required when called: 3
  3121 ;; This function calls:
  3122 ;;		_dah
  3123 ;;		_dahspace
  3124 ;;		_dit
  3125 ;;		_ditspace
  3126 ;; This function is called by:
  3127 ;;		_cw_message
  3128 ;; This function uses a non-reentrant model
  3129 ;;
  3130                           
  3131                           	psect	text12
  3132  002012                     __ptext12:
  3133                           	callstack 0
  3134  002012                     _cw:
  3135                           	callstack 26
  3136                           
  3137                           ;incstack = 0
  3138                           ;cw@character stored from wreg
  3139  002012  6E05               	movwf	cw@character^0,c
  3140  002014                     
  3141                           ;cw.c: 39:   switch(character){
  3142  002014  EF6C  F012         	goto	l1545
  3143  002018                     l939:
  3144                           
  3145                           ;cw.c: 43:         dit(); ditspace(); dah(); dahspace(); break;
  3146  002018  ECEB  F01C         	call	_dit	;wreg free
  3147  00201C  ECE2  F01C         	call	_ditspace	;wreg free
  3148  002020                     l941:
  3149  002020  ECF2  F01C         	call	_dah	;wreg free
  3150  002024                     l943:
  3151  002024  ECBD  F01C         	call	_dahspace	;wreg free
  3152  002028  EFB5  F013         	goto	l182
  3153  00202C                     l945:
  3154                           
  3155                           ;cw.c: 45:         dah(); ditspace(); dit(); ditspace(); dit(); ditspace(); dit(); dahsp
      +                          ace(); break;
  3156  00202C  ECF2  F01C         	call	_dah	;wreg free
  3157  002030                     l947:
  3158  002030  ECE2  F01C         	call	_ditspace	;wreg free
  3159  002034  ECEB  F01C         	call	_dit	;wreg free
  3160  002038                     l951:
  3161  002038  ECE2  F01C         	call	_ditspace	;wreg free
  3162  00203C  ECEB  F01C         	call	_dit	;wreg free
  3163  002040                     l955:
  3164  002040  ECE2  F01C         	call	_ditspace	;wreg free
  3165  002044  ECEB  F01C         	call	_dit	;wreg free
  3166  002048  ECBD  F01C         	call	_dahspace	;wreg free
  3167  00204C  EFB5  F013         	goto	l182
  3168  002050                     l959:
  3169                           
  3170                           ;cw.c: 47:         dah(); ditspace(); dit(); ditspace(); dah(); ditspace(); dit(); dahsp
      +                          ace(); break;
  3171  002050  ECF2  F01C         	call	_dah	;wreg free
  3172  002054                     l961:
  3173  002054  ECE2  F01C         	call	_ditspace	;wreg free
  3174  002058  ECEB  F01C         	call	_dit	;wreg free
  3175  00205C                     l965:
  3176  00205C  ECE2  F01C         	call	_ditspace	;wreg free
  3177  002060  ECF2  F01C         	call	_dah	;wreg free
  3178  002064  ECE2  F01C         	call	_ditspace	;wreg free
  3179  002068  ECEB  F01C         	call	_dit	;wreg free
  3180  00206C  EF12  F010         	goto	l943
  3181  002070                     l971:
  3182                           
  3183                           ;cw.c: 49:         dah(); ditspace(); dit(); ditspace(); dit(); dahspace(); break;
  3184  002070  ECF2  F01C         	call	_dah	;wreg free
  3185  002074  EF1C  F010         	goto	l951
  3186  002078                     l981:
  3187                           
  3188                           ;cw.c: 51:         dit(); dahspace(); break;
  3189  002078  ECEB  F01C         	call	_dit	;wreg free
  3190  00207C  EF12  F010         	goto	l943
  3191  002080                     l985:
  3192                           
  3193                           ;cw.c: 53:         dit(); ditspace(); dit(); ditspace(); dah(); ditspace(); dit(); dahsp
      +                          ace(); break;
  3194  002080  ECEB  F01C         	call	_dit	;wreg free
  3195  002084  ECE2  F01C         	call	_ditspace	;wreg free
  3196  002088  ECEB  F01C         	call	_dit	;wreg free
  3197  00208C  ECE2  F01C         	call	_ditspace	;wreg free
  3198  002090                     l987:
  3199  002090  ECF2  F01C         	call	_dah	;wreg free
  3200  002094                     l989:
  3201  002094  ECE2  F01C         	call	_ditspace	;wreg free
  3202  002098  EF3C  F010         	goto	l981
  3203  00209C                     l995:
  3204                           
  3205                           ;cw.c: 55:         dah(); ditspace(); dah(); ditspace(); dit(); dahspace(); break;
  3206  00209C  ECF2  F01C         	call	_dah	;wreg free
  3207  0020A0  EF2E  F010         	goto	l965
  3208  0020A4                     l1003:
  3209                           
  3210                           ;cw.c: 57:         dit(); ditspace(); dit(); ditspace(); dit(); ditspace(); dit(); dahsp
      +                          ace(); break;
  3211  0020A4  ECEB  F01C         	call	_dit	;wreg free
  3212  0020A8  ECE2  F01C         	call	_ditspace	;wreg free
  3213  0020AC  ECEB  F01C         	call	_dit	;wreg free
  3214  0020B0  ECE2  F01C         	call	_ditspace	;wreg free
  3215  0020B4  ECEB  F01C         	call	_dit	;wreg free
  3216  0020B8  ECE2  F01C         	call	_ditspace	;wreg free
  3217  0020BC  ECEB  F01C         	call	_dit	;wreg free
  3218  0020C0  EF12  F010         	goto	l943
  3219  0020C4                     l1007:
  3220                           
  3221                           ;cw.c: 59:         dit(); ditspace(); dit(); dahspace(); break;
  3222  0020C4  ECEB  F01C         	call	_dit	;wreg free
  3223  0020C8  ECE2  F01C         	call	_ditspace	;wreg free
  3224  0020CC  ECEB  F01C         	call	_dit	;wreg free
  3225  0020D0  EF12  F010         	goto	l943
  3226  0020D4                     l1011:
  3227                           
  3228                           ;cw.c: 61:         dit(); ditspace(); dah(); ditspace(); dah(); ditspace(); dah(); dahsp
      +                          ace(); break;
  3229  0020D4  ECEB  F01C         	call	_dit	;wreg free
  3230  0020D8  ECE2  F01C         	call	_ditspace	;wreg free
  3231  0020DC                     l1013:
  3232  0020DC  ECF2  F01C         	call	_dah	;wreg free
  3233  0020E0  ECE2  F01C         	call	_ditspace	;wreg free
  3234  0020E4  ECF2  F01C         	call	_dah	;wreg free
  3235  0020E8                     l1017:
  3236  0020E8  ECE2  F01C         	call	_ditspace	;wreg free
  3237  0020EC  EF10  F010         	goto	l941
  3238  0020F0                     l1023:
  3239                           
  3240                           ;cw.c: 63:         dah(); ditspace(); dit(); ditspace(); dah(); dahspace(); break;
  3241  0020F0  ECF2  F01C         	call	_dah	;wreg free
  3242  0020F4                     l1025:
  3243  0020F4  ECE2  F01C         	call	_ditspace	;wreg free
  3244  0020F8  ECEB  F01C         	call	_dit	;wreg free
  3245  0020FC  EF74  F010         	goto	l1017
  3246  002100                     l1035:
  3247                           
  3248                           ;cw.c: 65:         dit(); ditspace(); dah(); ditspace(); dit(); ditspace(); dit(); dahsp
      +                          ace(); break;
  3249  002100  ECEB  F01C         	call	_dit	;wreg free
  3250  002104  ECE2  F01C         	call	_ditspace	;wreg free
  3251  002108                     l1037:
  3252  002108  ECF2  F01C         	call	_dah	;wreg free
  3253  00210C                     l1039:
  3254  00210C  ECE2  F01C         	call	_ditspace	;wreg free
  3255  002110  ECEB  F01C         	call	_dit	;wreg free
  3256  002114  EF4A  F010         	goto	l989
  3257  002118                     l1049:
  3258                           
  3259                           ;cw.c: 67:         dah(); ditspace(); dah(); dahspace(); break;
  3260  002118  ECF2  F01C         	call	_dah	;wreg free
  3261  00211C  EF74  F010         	goto	l1017
  3262  002120                     l1057:
  3263                           
  3264                           ;cw.c: 69:         dah(); ditspace(); dit(); dahspace(); break;
  3265  002120  ECF2  F01C         	call	_dah	;wreg free
  3266  002124  EF20  F010         	goto	l955
  3267  002128                     l1063:
  3268                           
  3269                           ;cw.c: 71:         dah(); ditspace(); dah(); ditspace(); dah(); dahspace(); break;
  3270  002128  ECF2  F01C         	call	_dah	;wreg free
  3271  00212C                     l1065:
  3272  00212C  ECE2  F01C         	call	_ditspace	;wreg free
  3273  002130  ECF2  F01C         	call	_dah	;wreg free
  3274  002134  ECE2  F01C         	call	_ditspace	;wreg free
  3275  002138  EF10  F010         	goto	l941
  3276  00213C                     l1073:
  3277                           
  3278                           ;cw.c: 73:         dit(); ditspace(); dah(); ditspace(); dah(); ditspace(); dit(); dahsp
      +                          ace(); break;
  3279  00213C  ECEB  F01C         	call	_dit	;wreg free
  3280  002140  ECE2  F01C         	call	_ditspace	;wreg free
  3281  002144                     l1075:
  3282  002144  ECF2  F01C         	call	_dah	;wreg free
  3283  002148                     l1077:
  3284  002148  ECE2  F01C         	call	_ditspace	;wreg free
  3285  00214C  ECF2  F01C         	call	_dah	;wreg free
  3286  002150  EF20  F010         	goto	l955
  3287  002154                     l1093:
  3288                           
  3289                           ;cw.c: 77:         dit(); ditspace(); dah(); ditspace(); dit(); dahspace(); break;
  3290  002154  ECEB  F01C         	call	_dit	;wreg free
  3291  002158  ECE2  F01C         	call	_ditspace	;wreg free
  3292  00215C  EF48  F010         	goto	l987
  3293  002160                     l1103:
  3294                           
  3295                           ;cw.c: 79:         dit(); ditspace(); dit(); ditspace(); dit(); dahspace(); break;
  3296  002160  ECEB  F01C         	call	_dit	;wreg free
  3297  002164  ECE2  F01C         	call	_ditspace	;wreg free
  3298  002168  ECEB  F01C         	call	_dit	;wreg free
  3299  00216C  ECE2  F01C         	call	_ditspace	;wreg free
  3300  002170  ECEB  F01C         	call	_dit	;wreg free
  3301  002174  EF12  F010         	goto	l943
  3302  002178                     l1107:
  3303                           
  3304                           ;cw.c: 81:         dah(); dahspace(); break;
  3305  002178  ECF2  F01C         	call	_dah	;wreg free
  3306  00217C  ECBD  F01C         	call	_dahspace	;wreg free
  3307  002180  EFB5  F013         	goto	l182
  3308  002184                     l1109:
  3309                           
  3310                           ;cw.c: 83:         dit(); ditspace(); dit(); ditspace(); dah(); dahspace(); break;
  3311  002184  ECEB  F01C         	call	_dit	;wreg free
  3312  002188  ECE2  F01C         	call	_ditspace	;wreg free
  3313  00218C  ECEB  F01C         	call	_dit	;wreg free
  3314  002190  ECE2  F01C         	call	_ditspace	;wreg free
  3315  002194  EF10  F010         	goto	l941
  3316  002198                     l1115:
  3317                           
  3318                           ;cw.c: 85:         dit(); ditspace(); dit(); ditspace(); dit(); ditspace(); dah(); dahsp
      +                          ace(); break;
  3319  002198  ECEB  F01C         	call	_dit	;wreg free
  3320  00219C  ECE2  F01C         	call	_ditspace	;wreg free
  3321  0021A0  ECEB  F01C         	call	_dit	;wreg free
  3322  0021A4  ECE2  F01C         	call	_ditspace	;wreg free
  3323  0021A8  ECEB  F01C         	call	_dit	;wreg free
  3324  0021AC  ECE2  F01C         	call	_ditspace	;wreg free
  3325  0021B0  EF10  F010         	goto	l941
  3326  0021B4                     l1121:
  3327                           
  3328                           ;cw.c: 87:         dit(); ditspace(); dah(); ditspace(); dah(); dahspace(); break;
  3329  0021B4  ECEB  F01C         	call	_dit	;wreg free
  3330  0021B8  ECE2  F01C         	call	_ditspace	;wreg free
  3331  0021BC                     l1123:
  3332  0021BC  ECF2  F01C         	call	_dah	;wreg free
  3333  0021C0                     l1125:
  3334  0021C0  ECE2  F01C         	call	_ditspace	;wreg free
  3335  0021C4  ECF2  F01C         	call	_dah	;wreg free
  3336  0021C8  ECBD  F01C         	call	_dahspace	;wreg free
  3337  0021CC  EFB5  F013         	goto	l182
  3338  0021D0                     l1127:
  3339                           
  3340                           ;cw.c: 89:         dah(); ditspace(); dit(); ditspace(); dit(); ditspace(); dah(); dahsp
      +                          ace(); break;
  3341  0021D0  ECF2  F01C         	call	_dah	;wreg free
  3342  0021D4                     l1129:
  3343  0021D4  ECE2  F01C         	call	_ditspace	;wreg free
  3344  0021D8  ECEB  F01C         	call	_dit	;wreg free
  3345  0021DC  EF7A  F010         	goto	l1025
  3346  0021E0                     l1143:
  3347                           
  3348                           ;cw.c: 91:         dah(); ditspace(); dit(); ditspace(); dah(); ditspace(); dah(); dahsp
      +                          ace(); break;
  3349  0021E0  ECF2  F01C         	call	_dah	;wreg free
  3350  0021E4  ECE2  F01C         	call	_ditspace	;wreg free
  3351  0021E8  ECEB  F01C         	call	_dit	;wreg free
  3352  0021EC  EF96  F010         	goto	l1065
  3353  0021F0                     l1157:
  3354                           
  3355                           ;cw.c: 93:         dah(); ditspace(); dah(); ditspace(); dit(); ditspace(); dit(); dahsp
      +                          ace(); break;
  3356  0021F0  ECF2  F01C         	call	_dah	;wreg free
  3357  0021F4  ECE2  F01C         	call	_ditspace	;wreg free
  3358  0021F8  ECF2  F01C         	call	_dah	;wreg free
  3359  0021FC  ECE2  F01C         	call	_ditspace	;wreg free
  3360  002200  ECEB  F01C         	call	_dit	;wreg free
  3361  002204  ECE2  F01C         	call	_ditspace	;wreg free
  3362  002208  ECEB  F01C         	call	_dit	;wreg free
  3363  00220C  EF12  F010         	goto	l943
  3364  002210                     l1165:
  3365                           
  3366                           ;cw.c: 97:         dit(); ditspace(); dah(); ditspace(); dah(); ditspace(); dah(); ditsp
      +                          ace(); dah(); dahspace(); break;
  3367  002210  ECEB  F01C         	call	_dit	;wreg free
  3368  002214  ECE2  F01C         	call	_ditspace	;wreg free
  3369  002218  ECF2  F01C         	call	_dah	;wreg free
  3370  00221C  ECE2  F01C         	call	_ditspace	;wreg free
  3371  002220  ECF2  F01C         	call	_dah	;wreg free
  3372  002224  EF96  F010         	goto	l1065
  3373  002228                     l1179:
  3374                           
  3375                           ;cw.c: 99:         dit(); ditspace(); dit(); ditspace(); dah(); ditspace(); dah(); ditsp
      +                          ace(); dah(); dahspace(); break;
  3376  002228  ECEB  F01C         	call	_dit	;wreg free
  3377  00222C  ECE2  F01C         	call	_ditspace	;wreg free
  3378  002230  ECEB  F01C         	call	_dit	;wreg free
  3379  002234  ECE2  F01C         	call	_ditspace	;wreg free
  3380  002238  EF6E  F010         	goto	l1013
  3381  00223C                     l1191:
  3382                           
  3383                           ;cw.c: 101:         dit(); ditspace(); dit(); ditspace(); dit(); ditspace(); dah(); dits
      +                          pace(); dah(); dahspace(); break;
  3384  00223C  ECEB  F01C         	call	_dit	;wreg free
  3385  002240  ECE2  F01C         	call	_ditspace	;wreg free
  3386  002244  ECEB  F01C         	call	_dit	;wreg free
  3387  002248  ECE2  F01C         	call	_ditspace	;wreg free
  3388  00224C  ECEB  F01C         	call	_dit	;wreg free
  3389  002250  ECE2  F01C         	call	_ditspace	;wreg free
  3390  002254  EFDE  F010         	goto	l1123
  3391  002258                     l1197:
  3392                           
  3393                           ;cw.c: 103:         dit(); ditspace(); dit(); ditspace(); dit(); ditspace(); dit(); dits
      +                          pace(); dah(); dahspace(); break;
  3394  002258  ECEB  F01C         	call	_dit	;wreg free
  3395  00225C  ECE2  F01C         	call	_ditspace	;wreg free
  3396  002260  ECEB  F01C         	call	_dit	;wreg free
  3397  002264  ECE2  F01C         	call	_ditspace	;wreg free
  3398  002268  ECEB  F01C         	call	_dit	;wreg free
  3399  00226C  ECE2  F01C         	call	_ditspace	;wreg free
  3400  002270  ECEB  F01C         	call	_dit	;wreg free
  3401  002274  ECE2  F01C         	call	_ditspace	;wreg free
  3402  002278  EF10  F010         	goto	l941
  3403  00227C                     l1203:
  3404                           
  3405                           ;cw.c: 105:         dit(); ditspace(); dit(); ditspace(); dit(); ditspace(); dit(); dits
      +                          pace(); dit(); dahspace(); break;
  3406  00227C  ECEB  F01C         	call	_dit	;wreg free
  3407  002280  ECE2  F01C         	call	_ditspace	;wreg free
  3408  002284  ECEB  F01C         	call	_dit	;wreg free
  3409  002288  ECE2  F01C         	call	_ditspace	;wreg free
  3410  00228C  ECEB  F01C         	call	_dit	;wreg free
  3411  002290  ECE2  F01C         	call	_ditspace	;wreg free
  3412  002294  ECEB  F01C         	call	_dit	;wreg free
  3413  002298  ECE2  F01C         	call	_ditspace	;wreg free
  3414  00229C  ECEB  F01C         	call	_dit	;wreg free
  3415  0022A0  EF12  F010         	goto	l943
  3416  0022A4                     l1207:
  3417                           
  3418                           ;cw.c: 107:         dah(); ditspace(); dit(); ditspace(); dit(); ditspace(); dit(); dits
      +                          pace(); dit(); dahspace(); break;
  3419  0022A4  ECF2  F01C         	call	_dah	;wreg free
  3420  0022A8  ECE2  F01C         	call	_ditspace	;wreg free
  3421  0022AC  ECEB  F01C         	call	_dit	;wreg free
  3422  0022B0  EF18  F010         	goto	l947
  3423  0022B4                     l1225:
  3424                           
  3425                           ;cw.c: 109:         dah(); ditspace(); dah(); ditspace(); dit(); ditspace(); dit(); dits
      +                          pace(); dit(); dahspace(); break;
  3426  0022B4  ECF2  F01C         	call	_dah	;wreg free
  3427  0022B8  ECE2  F01C         	call	_ditspace	;wreg free
  3428  0022BC  ECF2  F01C         	call	_dah	;wreg free
  3429  0022C0  ECE2  F01C         	call	_ditspace	;wreg free
  3430  0022C4  ECEB  F01C         	call	_dit	;wreg free
  3431  0022C8  ECE2  F01C         	call	_ditspace	;wreg free
  3432  0022CC  ECEB  F01C         	call	_dit	;wreg free
  3433  0022D0  ECE2  F01C         	call	_ditspace	;wreg free
  3434  0022D4  ECEB  F01C         	call	_dit	;wreg free
  3435  0022D8  EF12  F010         	goto	l943
  3436  0022DC                     l1233:
  3437                           
  3438                           ;cw.c: 111:         dah(); ditspace(); dah(); ditspace(); dah(); ditspace(); dit(); dits
      +                          pace(); dit(); dahspace(); break;
  3439  0022DC  ECF2  F01C         	call	_dah	;wreg free
  3440  0022E0  ECE2  F01C         	call	_ditspace	;wreg free
  3441  0022E4  ECF2  F01C         	call	_dah	;wreg free
  3442  0022E8  ECE2  F01C         	call	_ditspace	;wreg free
  3443  0022EC  EF84  F010         	goto	l1037
  3444  0022F0                     l1251:
  3445                           
  3446                           ;cw.c: 113:         dah(); ditspace(); dah(); ditspace(); dah(); ditspace(); dah(); dits
      +                          pace(); dit(); dahspace(); break;
  3447  0022F0  ECF2  F01C         	call	_dah	;wreg free
  3448  0022F4  ECE2  F01C         	call	_ditspace	;wreg free
  3449  0022F8  ECF2  F01C         	call	_dah	;wreg free
  3450  0022FC  ECE2  F01C         	call	_ditspace	;wreg free
  3451  002300  EFA2  F010         	goto	l1075
  3452  002304                     l1265:
  3453                           
  3454                           ;cw.c: 115:         dah(); ditspace(); dah(); ditspace(); dah(); ditspace(); dah(); dits
      +                          pace(); dah(); dahspace(); break;
  3455  002304  ECF2  F01C         	call	_dah	;wreg free
  3456  002308  ECE2  F01C         	call	_ditspace	;wreg free
  3457  00230C  ECF2  F01C         	call	_dah	;wreg free
  3458  002310  ECE2  F01C         	call	_ditspace	;wreg free
  3459  002314  EF6E  F010         	goto	l1013
  3460  002318                     l1281:
  3461                           
  3462                           ;cw.c: 119:         dit(); ditspace(); dah(); ditspace(); dit(); ditspace(); dah(); dits
      +                          pace(); dit(); ditspace(); dah(); dahspace(); break;
  3463  002318  ECEB  F01C         	call	_dit	;wreg free
  3464  00231C  ECE2  F01C         	call	_ditspace	;wreg free
  3465  002320  ECF2  F01C         	call	_dah	;wreg free
  3466  002324  ECE2  F01C         	call	_ditspace	;wreg free
  3467  002328  ECEB  F01C         	call	_dit	;wreg free
  3468  00232C                     l1289:
  3469  00232C  ECE2  F01C         	call	_ditspace	;wreg free
  3470  002330  ECF2  F01C         	call	_dah	;wreg free
  3471  002334  EF7A  F010         	goto	l1025
  3472  002338                     l1301:
  3473                           
  3474                           ;cw.c: 121:         dah(); ditspace(); dah(); ditspace(); dit(); ditspace(); dit(); dits
      +                          pace(); dah(); ditspace(); dah(); dahspace(); break;
  3475  002338  ECF2  F01C         	call	_dah	;wreg free
  3476  00233C  ECE2  F01C         	call	_ditspace	;wreg free
  3477  002340  ECF2  F01C         	call	_dah	;wreg free
  3478  002344  ECE2  F01C         	call	_ditspace	;wreg free
  3479  002348  ECEB  F01C         	call	_dit	;wreg free
  3480  00234C  ECE2  F01C         	call	_ditspace	;wreg free
  3481  002350  ECEB  F01C         	call	_dit	;wreg free
  3482  002354  ECE2  F01C         	call	_ditspace	;wreg free
  3483  002358  EFDE  F010         	goto	l1123
  3484  00235C                     l1311:
  3485                           
  3486                           ;cw.c: 123:         dit(); ditspace(); dit(); ditspace(); dah(); ditspace(); dah(); dits
      +                          pace(); dit(); ditspace(); dit(); dahspace(); break;
  3487  00235C  ECEB  F01C         	call	_dit	;wreg free
  3488  002360  ECE2  F01C         	call	_ditspace	;wreg free
  3489  002364  ECEB  F01C         	call	_dit	;wreg free
  3490  002368  ECE2  F01C         	call	_ditspace	;wreg free
  3491  00236C  ECF2  F01C         	call	_dah	;wreg free
  3492  002370  ECE2  F01C         	call	_ditspace	;wreg free
  3493  002374  ECF2  F01C         	call	_dah	;wreg free
  3494  002378  EF1C  F010         	goto	l951
  3495  00237C                     l1325:
  3496                           
  3497                           ;cw.c: 125:         dah(); ditspace(); dah(); ditspace(); dah(); ditspace(); dit(); dits
      +                          pace(); dit(); ditspace(); dit(); dahspace(); break;
  3498  00237C  ECF2  F01C         	call	_dah	;wreg free
  3499  002380  ECE2  F01C         	call	_ditspace	;wreg free
  3500  002384  ECF2  F01C         	call	_dah	;wreg free
  3501  002388  ECE2  F01C         	call	_ditspace	;wreg free
  3502  00238C                     l1331:
  3503  00238C  ECF2  F01C         	call	_dah	;wreg free
  3504  002390  ECE2  F01C         	call	_ditspace	;wreg free
  3505  002394  ECEB  F01C         	call	_dit	;wreg free
  3506  002398  EF86  F010         	goto	l1039
  3507  00239C                     l1347:
  3508                           
  3509                           ;cw.c: 127:         dah(); ditspace(); dit(); ditspace(); dit(); ditspace(); dah(); dits
      +                          pace(); dit(); dahspace(); break;
  3510  00239C  ECF2  F01C         	call	_dah	;wreg free
  3511  0023A0  ECE2  F01C         	call	_ditspace	;wreg free
  3512  0023A4  ECEB  F01C         	call	_dit	;wreg free
  3513  0023A8  EF2A  F010         	goto	l961
  3514  0023AC                     l1363:
  3515                           
  3516                           ;cw.c: 129:         dah(); ditspace(); dit(); ditspace(); dit(); ditspace(); dit(); dits
      +                          pace(); dit(); ditspace(); dah(); dahspace(); break;
  3517  0023AC  ECF2  F01C         	call	_dah	;wreg free
  3518  0023B0  ECE2  F01C         	call	_ditspace	;wreg free
  3519  0023B4  ECEB  F01C         	call	_dit	;wreg free
  3520  0023B8                     l1369:
  3521  0023B8  ECE2  F01C         	call	_ditspace	;wreg free
  3522  0023BC  ECEB  F01C         	call	_dit	;wreg free
  3523  0023C0  EFEA  F010         	goto	l1129
  3524  0023C4                     l1387:
  3525                           
  3526                           ;cw.c: 131:         dah(); ditspace(); dit(); ditspace(); dit(); ditspace(); dit(); dits
      +                          pace(); dah(); dahspace(); break;
  3527  0023C4  ECF2  F01C         	call	_dah	;wreg free
  3528  0023C8  EFDC  F011         	goto	l1369
  3529  0023CC                     l1407:
  3530                           
  3531                           ;cw.c: 133:         dit(); ditspace(); dah(); ditspace(); dah(); ditspace(); dah(); dits
      +                          pace(); dah(); ditspace(); dit(); dahspace(); break;
  3532  0023CC  ECEB  F01C         	call	_dit	;wreg free
  3533  0023D0  ECE2  F01C         	call	_ditspace	;wreg free
  3534  0023D4  ECF2  F01C         	call	_dah	;wreg free
  3535  0023D8  ECE2  F01C         	call	_ditspace	;wreg free
  3536  0023DC  ECF2  F01C         	call	_dah	;wreg free
  3537  0023E0  ECE2  F01C         	call	_ditspace	;wreg free
  3538  0023E4  ECF2  F01C         	call	_dah	;wreg free
  3539  0023E8  ECE2  F01C         	call	_ditspace	;wreg free
  3540  0023EC  EF48  F010         	goto	l987
  3541  0023F0                     l1425:
  3542                           
  3543                           ;cw.c: 135:         dah(); ditspace(); dit(); ditspace(); dah(); ditspace(); dah(); dits
      +                          pace(); dit(); ditspace(); dah(); dahspace(); break;
  3544  0023F0  ECF2  F01C         	call	_dah	;wreg free
  3545  0023F4  ECE2  F01C         	call	_ditspace	;wreg free
  3546  0023F8  ECEB  F01C         	call	_dit	;wreg free
  3547  0023FC  ECE2  F01C         	call	_ditspace	;wreg free
  3548  002400  ECF2  F01C         	call	_dah	;wreg free
  3549  002404  ECE2  F01C         	call	_ditspace	;wreg free
  3550  002408  ECF2  F01C         	call	_dah	;wreg free
  3551  00240C                     l1437:
  3552  00240C  ECE2  F01C         	call	_ditspace	;wreg free
  3553  002410  ECEB  F01C         	call	_dit	;wreg free
  3554  002414  EFE0  F010         	goto	l1125
  3555  002418                     l1443:
  3556                           
  3557                           ;cw.c: 137:         dit(); ditspace(); dit(); ditspace(); dah(); ditspace(); dah(); dits
      +                          pace(); dit(); ditspace(); dah(); dahspace(); break;
  3558  002418  ECEB  F01C         	call	_dit	;wreg free
  3559  00241C  ECE2  F01C         	call	_ditspace	;wreg free
  3560  002420  ECEB  F01C         	call	_dit	;wreg free
  3561  002424  ECE2  F01C         	call	_ditspace	;wreg free
  3562  002428  ECF2  F01C         	call	_dah	;wreg free
  3563  00242C  EF96  F011         	goto	l1289
  3564  002430                     l1459:
  3565                           
  3566                           ;cw.c: 139:         dah(); ditspace(); dit(); ditspace(); dah(); ditspace(); dit(); dits
      +                          pace(); dah(); ditspace(); dah(); dahspace(); break;
  3567  002430  ECF2  F01C         	call	_dah	;wreg free
  3568  002434  ECE2  F01C         	call	_ditspace	;wreg free
  3569  002438  ECEB  F01C         	call	_dit	;wreg free
  3570  00243C  ECE2  F01C         	call	_ditspace	;wreg free
  3571  002440  ECF2  F01C         	call	_dah	;wreg free
  3572  002444  ECE2  F01C         	call	_ditspace	;wreg free
  3573  002448  ECEB  F01C         	call	_dit	;wreg free
  3574  00244C  ECE2  F01C         	call	_ditspace	;wreg free
  3575  002450  EFDE  F010         	goto	l1123
  3576  002454                     l1473:
  3577                           
  3578                           ;cw.c: 141:         dit(); ditspace(); dah(); ditspace(); dit(); ditspace(); dit(); dits
      +                          pace(); dit(); dahspace(); break;
  3579  002454  ECEB  F01C         	call	_dit	;wreg free
  3580  002458  ECE2  F01C         	call	_ditspace	;wreg free
  3581  00245C  EFC6  F011         	goto	l1331
  3582  002460                     l1491:
  3583                           
  3584                           ;cw.c: 143:         dit(); ditspace(); dah(); ditspace(); dit(); ditspace(); dit(); dits
      +                          pace(); dah(); ditspace(); dit(); dahspace(); break;
  3585  002460  ECEB  F01C         	call	_dit	;wreg free
  3586  002464  ECE2  F01C         	call	_ditspace	;wreg free
  3587  002468  ECF2  F01C         	call	_dah	;wreg free
  3588  00246C  ECE2  F01C         	call	_ditspace	;wreg free
  3589  002470  ECEB  F01C         	call	_dit	;wreg free
  3590  002474  ECE2  F01C         	call	_ditspace	;wreg free
  3591  002478  ECEB  F01C         	call	_dit	;wreg free
  3592  00247C  EFA4  F010         	goto	l1077
  3593  002480                     l1509:
  3594                           
  3595                           ;cw.c: 145:         dah(); ditspace(); dit(); ditspace(); dah(); ditspace(); dit(); dits
      +                          pace(); dah(); ditspace(); dit(); dahspace(); break;
  3596  002480  ECF2  F01C         	call	_dah	;wreg free
  3597  002484  ECE2  F01C         	call	_ditspace	;wreg free
  3598  002488  ECEB  F01C         	call	_dit	;wreg free
  3599  00248C  ECE2  F01C         	call	_ditspace	;wreg free
  3600  002490  ECF2  F01C         	call	_dah	;wreg free
  3601  002494  ECE2  F01C         	call	_ditspace	;wreg free
  3602  002498  ECEB  F01C         	call	_dit	;wreg free
  3603  00249C  ECE2  F01C         	call	_ditspace	;wreg free
  3604  0024A0  EF48  F010         	goto	l987
  3605  0024A4                     l1527:
  3606                           
  3607                           ;cw.c: 147:         dit(); ditspace(); dit(); ditspace(); dit(); ditspace(); dah(); dits
      +                          pace(); dit(); ditspace(); dit(); ditspace(); dah(); dahspace(); break;
  3608  0024A4  ECEB  F01C         	call	_dit	;wreg free
  3609  0024A8  ECE2  F01C         	call	_ditspace	;wreg free
  3610  0024AC  ECEB  F01C         	call	_dit	;wreg free
  3611  0024B0  ECE2  F01C         	call	_ditspace	;wreg free
  3612  0024B4  ECEB  F01C         	call	_dit	;wreg free
  3613  0024B8  ECE2  F01C         	call	_ditspace	;wreg free
  3614  0024BC  ECF2  F01C         	call	_dah	;wreg free
  3615  0024C0  ECE2  F01C         	call	_ditspace	;wreg free
  3616  0024C4  ECEB  F01C         	call	_dit	;wreg free
  3617  0024C8  EF06  F012         	goto	l1437
  3618  0024CC                     l1541:
  3619                           
  3620                           ;cw.c: 149:         dahspace(); dahspace();
  3621  0024CC  ECBD  F01C         	call	_dahspace	;wreg free
  3622  0024D0  ECBD  F01C         	call	_dahspace	;wreg free
  3623                           
  3624                           ;cw.c: 150:         break;
  3625  0024D4  EFB5  F013         	goto	l182
  3626  0024D8                     l1545:
  3627  0024D8  5005               	movf	cw@character^0,w,c
  3628  0024DA  6E03               	movwf	??_cw^0,c
  3629  0024DC  6A04               	clrf	(??_cw+1)^0,c
  3630                           
  3631                           ; Switch on 2 bytes has been partitioned into a top level switch of size 1, and 1 sub-sw
      +                          itches
  3632                           ; Switch size 1, requested type "simple"
  3633                           ; Number of cases is 1, Range of values is 0 to 0
  3634                           ; switch strategies available:
  3635                           ; Name         Instructions Cycles
  3636                           ; simple_byte            4     3 (average)
  3637                           ;	Chosen strategy is simple_byte
  3638  0024DE  5004               	movf	(??_cw+1)^0,w,c
  3639  0024E0  0A00               	xorlw	0	; case 0
  3640  0024E2  B4D8               	btfsc	status,2,c
  3641  0024E4  EF76  F012         	goto	l2927
  3642  0024E8  EF66  F012         	goto	l1541
  3643  0024EC                     l2927:
  3644                           
  3645                           ; Switch size 1, requested type "simple"
  3646                           ; Number of cases is 79, Range of values is 32 to 122
  3647                           ; switch strategies available:
  3648                           ; Name         Instructions Cycles
  3649                           ; simple_byte          238   120 (average)
  3650                           ;	Chosen strategy is simple_byte
  3651  0024EC  5003               	movf	??_cw^0,w,c
  3652  0024EE  0A20               	xorlw	32	; case 32
  3653  0024F0  B4D8               	btfsc	status,2,c
  3654  0024F2  EF66  F012         	goto	l1541
  3655  0024F6  0A01               	xorlw	1	; case 33
  3656  0024F8  B4D8               	btfsc	status,2,c
  3657  0024FA  EF18  F012         	goto	l1459
  3658  0024FE  0A03               	xorlw	3	; case 34
  3659  002500  B4D8               	btfsc	status,2,c
  3660  002502  EF30  F012         	goto	l1491
  3661  002506  0A06               	xorlw	6	; case 36
  3662  002508  B4D8               	btfsc	status,2,c
  3663  00250A  EF52  F012         	goto	l1527
  3664  00250E  0A02               	xorlw	2	; case 38
  3665  002510  B4D8               	btfsc	status,2,c
  3666  002512  EF2A  F012         	goto	l1473
  3667  002516  0A01               	xorlw	1	; case 39
  3668  002518  B4D8               	btfsc	status,2,c
  3669  00251A  EFE6  F011         	goto	l1407
  3670  00251E  0A0F               	xorlw	15	; case 40
  3671  002520  B4D8               	btfsc	status,2,c
  3672  002522  EFF8  F011         	goto	l1425
  3673  002526  0A01               	xorlw	1	; case 41
  3674  002528  B4D8               	btfsc	status,2,c
  3675  00252A  EFF8  F011         	goto	l1425
  3676  00252E  0A05               	xorlw	5	; case 44
  3677  002530  B4D8               	btfsc	status,2,c
  3678  002532  EF9C  F011         	goto	l1301
  3679  002536  0A01               	xorlw	1	; case 45
  3680  002538  B4D8               	btfsc	status,2,c
  3681  00253A  EFD6  F011         	goto	l1363
  3682  00253E  0A03               	xorlw	3	; case 46
  3683  002540  B4D8               	btfsc	status,2,c
  3684  002542  EF8C  F011         	goto	l1281
  3685  002546  0A01               	xorlw	1	; case 47
  3686  002548  B4D8               	btfsc	status,2,c
  3687  00254A  EFCE  F011         	goto	l1347
  3688  00254E  0A1F               	xorlw	31	; case 48
  3689  002550  B4D8               	btfsc	status,2,c
  3690  002552  EF82  F011         	goto	l1265
  3691  002556  0A01               	xorlw	1	; case 49
  3692  002558  B4D8               	btfsc	status,2,c
  3693  00255A  EF08  F011         	goto	l1165
  3694  00255E  0A03               	xorlw	3	; case 50
  3695  002560  B4D8               	btfsc	status,2,c
  3696  002562  EF14  F011         	goto	l1179
  3697  002566  0A01               	xorlw	1	; case 51
  3698  002568  B4D8               	btfsc	status,2,c
  3699  00256A  EF1E  F011         	goto	l1191
  3700  00256E  0A07               	xorlw	7	; case 52
  3701  002570  B4D8               	btfsc	status,2,c
  3702  002572  EF2C  F011         	goto	l1197
  3703  002576  0A01               	xorlw	1	; case 53
  3704  002578  B4D8               	btfsc	status,2,c
  3705  00257A  EF3E  F011         	goto	l1203
  3706  00257E  0A03               	xorlw	3	; case 54
  3707  002580  B4D8               	btfsc	status,2,c
  3708  002582  EF52  F011         	goto	l1207
  3709  002586  0A01               	xorlw	1	; case 55
  3710  002588  B4D8               	btfsc	status,2,c
  3711  00258A  EF5A  F011         	goto	l1225
  3712  00258E  0A0F               	xorlw	15	; case 56
  3713  002590  B4D8               	btfsc	status,2,c
  3714  002592  EF6E  F011         	goto	l1233
  3715  002596  0A01               	xorlw	1	; case 57
  3716  002598  B4D8               	btfsc	status,2,c
  3717  00259A  EF78  F011         	goto	l1251
  3718  00259E  0A03               	xorlw	3	; case 58
  3719  0025A0  B4D8               	btfsc	status,2,c
  3720  0025A2  EFBE  F011         	goto	l1325
  3721  0025A6  0A01               	xorlw	1	; case 59
  3722  0025A8  B4D8               	btfsc	status,2,c
  3723  0025AA  EF40  F012         	goto	l1509
  3724  0025AE  0A06               	xorlw	6	; case 61
  3725  0025B0  B4D8               	btfsc	status,2,c
  3726  0025B2  EFE2  F011         	goto	l1387
  3727  0025B6  0A02               	xorlw	2	; case 63
  3728  0025B8  B4D8               	btfsc	status,2,c
  3729  0025BA  EFAE  F011         	goto	l1311
  3730  0025BE  0A7E               	xorlw	126	; case 65
  3731  0025C0  B4D8               	btfsc	status,2,c
  3732  0025C2  EF0C  F010         	goto	l939
  3733  0025C6  0A03               	xorlw	3	; case 66
  3734  0025C8  B4D8               	btfsc	status,2,c
  3735  0025CA  EF16  F010         	goto	l945
  3736  0025CE  0A01               	xorlw	1	; case 67
  3737  0025D0  B4D8               	btfsc	status,2,c
  3738  0025D2  EF28  F010         	goto	l959
  3739  0025D6  0A07               	xorlw	7	; case 68
  3740  0025D8  B4D8               	btfsc	status,2,c
  3741  0025DA  EF38  F010         	goto	l971
  3742  0025DE  0A01               	xorlw	1	; case 69
  3743  0025E0  B4D8               	btfsc	status,2,c
  3744  0025E2  EF3C  F010         	goto	l981
  3745  0025E6  0A03               	xorlw	3	; case 70
  3746  0025E8  B4D8               	btfsc	status,2,c
  3747  0025EA  EF40  F010         	goto	l985
  3748  0025EE  0A01               	xorlw	1	; case 71
  3749  0025F0  B4D8               	btfsc	status,2,c
  3750  0025F2  EF4E  F010         	goto	l995
  3751  0025F6  0A0F               	xorlw	15	; case 72
  3752  0025F8  B4D8               	btfsc	status,2,c
  3753  0025FA  EF52  F010         	goto	l1003
  3754  0025FE  0A01               	xorlw	1	; case 73
  3755  002600  B4D8               	btfsc	status,2,c
  3756  002602  EF62  F010         	goto	l1007
  3757  002606  0A03               	xorlw	3	; case 74
  3758  002608  B4D8               	btfsc	status,2,c
  3759  00260A  EF6A  F010         	goto	l1011
  3760  00260E  0A01               	xorlw	1	; case 75
  3761  002610  B4D8               	btfsc	status,2,c
  3762  002612  EF78  F010         	goto	l1023
  3763  002616  0A07               	xorlw	7	; case 76
  3764  002618  B4D8               	btfsc	status,2,c
  3765  00261A  EF80  F010         	goto	l1035
  3766  00261E  0A01               	xorlw	1	; case 77
  3767  002620  B4D8               	btfsc	status,2,c
  3768  002622  EF8C  F010         	goto	l1049
  3769  002626  0A03               	xorlw	3	; case 78
  3770  002628  B4D8               	btfsc	status,2,c
  3771  00262A  EF90  F010         	goto	l1057
  3772  00262E  0A01               	xorlw	1	; case 79
  3773  002630  B4D8               	btfsc	status,2,c
  3774  002632  EF94  F010         	goto	l1063
  3775  002636  0A1F               	xorlw	31	; case 80
  3776  002638  B4D8               	btfsc	status,2,c
  3777  00263A  EF9E  F010         	goto	l1073
  3778  00263E  0A01               	xorlw	1	; case 81
  3779  002640  B4D8               	btfsc	status,2,c
  3780  002642  EF94  F010         	goto	l1063
  3781  002646  0A03               	xorlw	3	; case 82
  3782  002648  B4D8               	btfsc	status,2,c
  3783  00264A  EFAA  F010         	goto	l1093
  3784  00264E  0A01               	xorlw	1	; case 83
  3785  002650  B4D8               	btfsc	status,2,c
  3786  002652  EFB0  F010         	goto	l1103
  3787  002656  0A07               	xorlw	7	; case 84
  3788  002658  B4D8               	btfsc	status,2,c
  3789  00265A  EFBC  F010         	goto	l1107
  3790  00265E  0A01               	xorlw	1	; case 85
  3791  002660  B4D8               	btfsc	status,2,c
  3792  002662  EFC2  F010         	goto	l1109
  3793  002666  0A03               	xorlw	3	; case 86
  3794  002668  B4D8               	btfsc	status,2,c
  3795  00266A  EFCC  F010         	goto	l1115
  3796  00266E  0A01               	xorlw	1	; case 87
  3797  002670  B4D8               	btfsc	status,2,c
  3798  002672  EFDA  F010         	goto	l1121
  3799  002676  0A0F               	xorlw	15	; case 88
  3800  002678  B4D8               	btfsc	status,2,c
  3801  00267A  EFE8  F010         	goto	l1127
  3802  00267E  0A01               	xorlw	1	; case 89
  3803  002680  B4D8               	btfsc	status,2,c
  3804  002682  EFF0  F010         	goto	l1143
  3805  002686  0A03               	xorlw	3	; case 90
  3806  002688  B4D8               	btfsc	status,2,c
  3807  00268A  EFF8  F010         	goto	l1157
  3808  00268E  0A05               	xorlw	5	; case 95
  3809  002690  B4D8               	btfsc	status,2,c
  3810  002692  EF0C  F012         	goto	l1443
  3811  002696  0A3E               	xorlw	62	; case 97
  3812  002698  B4D8               	btfsc	status,2,c
  3813  00269A  EF0C  F010         	goto	l939
  3814  00269E  0A03               	xorlw	3	; case 98
  3815  0026A0  B4D8               	btfsc	status,2,c
  3816  0026A2  EF16  F010         	goto	l945
  3817  0026A6  0A01               	xorlw	1	; case 99
  3818  0026A8  B4D8               	btfsc	status,2,c
  3819  0026AA  EF28  F010         	goto	l959
  3820  0026AE  0A07               	xorlw	7	; case 100
  3821  0026B0  B4D8               	btfsc	status,2,c
  3822  0026B2  EF38  F010         	goto	l971
  3823  0026B6  0A01               	xorlw	1	; case 101
  3824  0026B8  B4D8               	btfsc	status,2,c
  3825  0026BA  EF3C  F010         	goto	l981
  3826  0026BE  0A03               	xorlw	3	; case 102
  3827  0026C0  B4D8               	btfsc	status,2,c
  3828  0026C2  EF40  F010         	goto	l985
  3829  0026C6  0A01               	xorlw	1	; case 103
  3830  0026C8  B4D8               	btfsc	status,2,c
  3831  0026CA  EF4E  F010         	goto	l995
  3832  0026CE  0A0F               	xorlw	15	; case 104
  3833  0026D0  B4D8               	btfsc	status,2,c
  3834  0026D2  EF52  F010         	goto	l1003
  3835  0026D6  0A01               	xorlw	1	; case 105
  3836  0026D8  B4D8               	btfsc	status,2,c
  3837  0026DA  EF62  F010         	goto	l1007
  3838  0026DE  0A03               	xorlw	3	; case 106
  3839  0026E0  B4D8               	btfsc	status,2,c
  3840  0026E2  EF6A  F010         	goto	l1011
  3841  0026E6  0A01               	xorlw	1	; case 107
  3842  0026E8  B4D8               	btfsc	status,2,c
  3843  0026EA  EF78  F010         	goto	l1023
  3844  0026EE  0A07               	xorlw	7	; case 108
  3845  0026F0  B4D8               	btfsc	status,2,c
  3846  0026F2  EF80  F010         	goto	l1035
  3847  0026F6  0A01               	xorlw	1	; case 109
  3848  0026F8  B4D8               	btfsc	status,2,c
  3849  0026FA  EF8C  F010         	goto	l1049
  3850  0026FE  0A03               	xorlw	3	; case 110
  3851  002700  B4D8               	btfsc	status,2,c
  3852  002702  EF90  F010         	goto	l1057
  3853  002706  0A01               	xorlw	1	; case 111
  3854  002708  B4D8               	btfsc	status,2,c
  3855  00270A  EF94  F010         	goto	l1063
  3856  00270E  0A1F               	xorlw	31	; case 112
  3857  002710  B4D8               	btfsc	status,2,c
  3858  002712  EF9E  F010         	goto	l1073
  3859  002716  0A01               	xorlw	1	; case 113
  3860  002718  B4D8               	btfsc	status,2,c
  3861  00271A  EF94  F010         	goto	l1063
  3862  00271E  0A03               	xorlw	3	; case 114
  3863  002720  B4D8               	btfsc	status,2,c
  3864  002722  EFAA  F010         	goto	l1093
  3865  002726  0A01               	xorlw	1	; case 115
  3866  002728  B4D8               	btfsc	status,2,c
  3867  00272A  EFB0  F010         	goto	l1103
  3868  00272E  0A07               	xorlw	7	; case 116
  3869  002730  B4D8               	btfsc	status,2,c
  3870  002732  EFBC  F010         	goto	l1107
  3871  002736  0A01               	xorlw	1	; case 117
  3872  002738  B4D8               	btfsc	status,2,c
  3873  00273A  EFC2  F010         	goto	l1109
  3874  00273E  0A03               	xorlw	3	; case 118
  3875  002740  B4D8               	btfsc	status,2,c
  3876  002742  EFCC  F010         	goto	l1115
  3877  002746  0A01               	xorlw	1	; case 119
  3878  002748  B4D8               	btfsc	status,2,c
  3879  00274A  EFDA  F010         	goto	l1121
  3880  00274E  0A0F               	xorlw	15	; case 120
  3881  002750  B4D8               	btfsc	status,2,c
  3882  002752  EFE8  F010         	goto	l1127
  3883  002756  0A01               	xorlw	1	; case 121
  3884  002758  B4D8               	btfsc	status,2,c
  3885  00275A  EFF0  F010         	goto	l1143
  3886  00275E  0A03               	xorlw	3	; case 122
  3887  002760  B4D8               	btfsc	status,2,c
  3888  002762  EFF8  F010         	goto	l1157
  3889  002766  EF66  F012         	goto	l1541
  3890  00276A                     l182:
  3891  00276A  0012               	return		;funcret
  3892  00276C                     __end_of_cw:
  3893                           	callstack 0
  3894                           
  3895 ;; *************** function _dit *****************
  3896 ;; Defined at:
  3897 ;;		line 164 in file "cw.c"
  3898 ;; Parameters:    Size  Location     Type
  3899 ;;		None
  3900 ;; Auto vars:     Size  Location     Type
  3901 ;;		None
  3902 ;; Return value:  Size  Location     Type
  3903 ;;                  1    wreg      void 
  3904 ;; Registers used:
  3905 ;;		cstack
  3906 ;; Tracked objects:
  3907 ;;		On entry : 0/0
  3908 ;;		On exit  : 0/0
  3909 ;;		Unchanged: 0/0
  3910 ;; Data sizes:     COMRAM   BANK0   BANK1   BANK2   BANK3   BANK4   BANK5   BANK6   BANK7   BANK8   BANK9  BANK10  BANK1
      +1  BANK12  BANK13  BANK14  BANK15  BANK16  BANK17  BANK18  BANK19  BANK20  BANK21  BANK22  BANK23  BANK24  BANK25  BANK2
      +6  BANK27  BANK28  BANK29  BANK30  BANK31
  3911 ;;      Params:         0       0       0       0       0       0       0       0       0       0       0       0       
      +0       0       0       0       0       0       0       0       0       0       0       0       0       0       0       
      +0       0       0       0       0       0
  3912 ;;      Locals:         0       0       0       0       0       0       0       0       0       0       0       0       
      +0       0       0       0       0       0       0       0       0       0       0       0       0       0       0       
      +0       0       0       0       0       0
  3913 ;;      Temps:          0       0       0       0       0       0       0       0       0       0       0       0       
      +0       0       0       0       0       0       0       0       0       0       0       0       0       0       0       
      +0       0       0       0       0       0
  3914 ;;      Totals:         0       0       0       0       0       0       0       0       0       0       0       0       
      +0       0       0       0       0       0       0       0       0       0       0       0       0       0       0       
      +0       0       0       0       0       0
  3915 ;;Total ram usage:        0 bytes
  3916 ;; Hardware stack levels used: 1
  3917 ;; Hardware stack levels required when called: 1
  3918 ;; This function calls:
  3919 ;;		_ditspace
  3920 ;; This function is called by:
  3921 ;;		_cw
  3922 ;; This function uses a non-reentrant model
  3923 ;;
  3924                           
  3925                           	psect	text13
  3926  0039D6                     __ptext13:
  3927                           	callstack 0
  3928  0039D6                     _dit:
  3929                           	callstack 27
  3930  0039D6                     
  3931                           ;cw.c: 165:     MD1CON0bits.BIT = 1;
  3932  0039D6  013C               	movlb	60	; () banked
  3933  0039D8  81FA               	bsf	250,0,b	;volatile
  3934  0039DA                     
  3935                           ; BSR set to: 60
  3936                           ;cw.c: 166:     ditspace();
  3937  0039DA  ECE2  F01C         	call	_ditspace	;wreg free
  3938  0039DE                     
  3939                           ;cw.c: 167:     MD1CON0bits.BIT = 0;
  3940  0039DE  013C               	movlb	60	; () banked
  3941  0039E0  91FA               	bcf	250,0,b	;volatile
  3942  0039E2                     
  3943                           ; BSR set to: 60
  3944  0039E2  0012               	return		;funcret
  3945  0039E4                     __end_of_dit:
  3946                           	callstack 0
  3947                           
  3948 ;; *************** function _dah *****************
  3949 ;; Defined at:
  3950 ;;		line 158 in file "cw.c"
  3951 ;; Parameters:    Size  Location     Type
  3952 ;;		None
  3953 ;; Auto vars:     Size  Location     Type
  3954 ;;		None
  3955 ;; Return value:  Size  Location     Type
  3956 ;;                  1    wreg      void 
  3957 ;; Registers used:
  3958 ;;		wreg, status,2, status,0, cstack
  3959 ;; Tracked objects:
  3960 ;;		On entry : 0/0
  3961 ;;		On exit  : 0/0
  3962 ;;		Unchanged: 0/0
  3963 ;; Data sizes:     COMRAM   BANK0   BANK1   BANK2   BANK3   BANK4   BANK5   BANK6   BANK7   BANK8   BANK9  BANK10  BANK1
      +1  BANK12  BANK13  BANK14  BANK15  BANK16  BANK17  BANK18  BANK19  BANK20  BANK21  BANK22  BANK23  BANK24  BANK25  BANK2
      +6  BANK27  BANK28  BANK29  BANK30  BANK31
  3964 ;;      Params:         0       0       0       0       0       0       0       0       0       0       0       0       
      +0       0       0       0       0       0       0       0       0       0       0       0       0       0       0       
      +0       0       0       0       0       0
  3965 ;;      Locals:         0       0       0       0       0       0       0       0       0       0       0       0       
      +0       0       0       0       0       0       0       0       0       0       0       0       0       0       0       
      +0       0       0       0       0       0
  3966 ;;      Temps:          0       0       0       0       0       0       0       0       0       0       0       0       
      +0       0       0       0       0       0       0       0       0       0       0       0       0       0       0       
      +0       0       0       0       0       0
  3967 ;;      Totals:         0       0       0       0       0       0       0       0       0       0       0       0       
      +0       0       0       0       0       0       0       0       0       0       0       0       0       0       0       
      +0       0       0       0       0       0
  3968 ;;Total ram usage:        0 bytes
  3969 ;; Hardware stack levels used: 1
  3970 ;; Hardware stack levels required when called: 2
  3971 ;; This function calls:
  3972 ;;		_dahspace
  3973 ;; This function is called by:
  3974 ;;		_cw
  3975 ;; This function uses a non-reentrant model
  3976 ;;
  3977                           
  3978                           	psect	text14
  3979  0039E4                     __ptext14:
  3980                           	callstack 0
  3981  0039E4                     _dah:
  3982                           	callstack 26
  3983  0039E4                     
  3984                           ;cw.c: 159:     MD1CON0bits.BIT = 1;
  3985  0039E4  013C               	movlb	60	; () banked
  3986  0039E6  81FA               	bsf	250,0,b	;volatile
  3987  0039E8                     
  3988                           ; BSR set to: 60
  3989                           ;cw.c: 160:     dahspace();
  3990  0039E8  ECBD  F01C         	call	_dahspace	;wreg free
  3991  0039EC                     
  3992                           ;cw.c: 161:     MD1CON0bits.BIT = 0;
  3993  0039EC  013C               	movlb	60	; () banked
  3994  0039EE  91FA               	bcf	250,0,b	;volatile
  3995  0039F0                     
  3996                           ; BSR set to: 60
  3997  0039F0  0012               	return		;funcret
  3998  0039F2                     __end_of_dah:
  3999                           	callstack 0
  4000                           
  4001 ;; *************** function _dahspace *****************
  4002 ;; Defined at:
  4003 ;;		line 178 in file "cw.c"
  4004 ;; Parameters:    Size  Location     Type
  4005 ;;		None
  4006 ;; Auto vars:     Size  Location     Type
  4007 ;;  i               2    0[COMRAM] int 
  4008 ;; Return value:  Size  Location     Type
  4009 ;;                  1    wreg      void 
  4010 ;; Registers used:
  4011 ;;		wreg, status,2, status,0, cstack
  4012 ;; Tracked objects:
  4013 ;;		On entry : 0/0
  4014 ;;		On exit  : 0/0
  4015 ;;		Unchanged: 0/0
  4016 ;; Data sizes:     COMRAM   BANK0   BANK1   BANK2   BANK3   BANK4   BANK5   BANK6   BANK7   BANK8   BANK9  BANK10  BANK1
      +1  BANK12  BANK13  BANK14  BANK15  BANK16  BANK17  BANK18  BANK19  BANK20  BANK21  BANK22  BANK23  BANK24  BANK25  BANK2
      +6  BANK27  BANK28  BANK29  BANK30  BANK31
  4017 ;;      Params:         0       0       0       0       0       0       0       0       0       0       0       0       
      +0       0       0       0       0       0       0       0       0       0       0       0       0       0       0       
      +0       0       0       0       0       0
  4018 ;;      Locals:         2       0       0       0       0       0       0       0       0       0       0       0       
      +0       0       0       0       0       0       0       0       0       0       0       0       0       0       0       
      +0       0       0       0       0       0
  4019 ;;      Temps:          0       0       0       0       0       0       0       0       0       0       0       0       
      +0       0       0       0       0       0       0       0       0       0       0       0       0       0       0       
      +0       0       0       0       0       0
  4020 ;;      Totals:         2       0       0       0       0       0       0       0       0       0       0       0       
      +0       0       0       0       0       0       0       0       0       0       0       0       0       0       0       
      +0       0       0       0       0       0
  4021 ;;Total ram usage:        2 bytes
  4022 ;; Hardware stack levels used: 1
  4023 ;; Hardware stack levels required when called: 1
  4024 ;; This function calls:
  4025 ;;		_ditspace
  4026 ;; This function is called by:
  4027 ;;		_cw_message
  4028 ;;		_cw
  4029 ;;		_dah
  4030 ;; This function uses a non-reentrant model
  4031 ;;
  4032                           
  4033                           	psect	text15
  4034  00397A                     __ptext15:
  4035                           	callstack 0
  4036  00397A                     _dahspace:
  4037                           	callstack 28
  4038  00397A                     
  4039                           ;cw.c: 179:     for (int i = 0; i < 3; i++) {
  4040  00397A  0E00               	movlw	0
  4041  00397C  6E02               	movwf	(dahspace@i+1)^0,c
  4042  00397E  0E00               	movlw	0
  4043  003980  6E01               	movwf	dahspace@i^0,c
  4044  003982                     l915:
  4045                           
  4046                           ;cw.c: 180:         ditspace();
  4047  003982  ECE2  F01C         	call	_ditspace	;wreg free
  4048  003986                     
  4049                           ;cw.c: 181:     }
  4050  003986  4A01               	infsnz	dahspace@i^0,f,c
  4051  003988  2A02               	incf	(dahspace@i+1)^0,f,c
  4052  00398A  BE02               	btfsc	(dahspace@i+1)^0,7,c
  4053  00398C  EFD1  F01C         	goto	u21
  4054  003990  5002               	movf	(dahspace@i+1)^0,w,c
  4055  003992  E109               	bnz	u20
  4056  003994  0E03               	movlw	3
  4057  003996  5C01               	subwf	dahspace@i^0,w,c
  4058  003998  A0D8               	btfss	status,0,c
  4059  00399A  EFD1  F01C         	goto	u21
  4060  00399E  EFD3  F01C         	goto	u20
  4061  0039A2                     u21:
  4062  0039A2  EFC1  F01C         	goto	l915
  4063  0039A6                     u20:
  4064  0039A6  0012               	return		;funcret
  4065  0039A8                     __end_of_dahspace:
  4066                           	callstack 0
  4067                           
  4068 ;; *************** function _ditspace *****************
  4069 ;; Defined at:
  4070 ;;		line 170 in file "cw.c"
  4071 ;; Parameters:    Size  Location     Type
  4072 ;;		None
  4073 ;; Auto vars:     Size  Location     Type
  4074 ;;		None
  4075 ;; Return value:  Size  Location     Type
  4076 ;;                  1    wreg      void 
  4077 ;; Registers used:
  4078 ;;		None
  4079 ;; Tracked objects:
  4080 ;;		On entry : 0/0
  4081 ;;		On exit  : 0/0
  4082 ;;		Unchanged: 0/0
  4083 ;; Data sizes:     COMRAM   BANK0   BANK1   BANK2   BANK3   BANK4   BANK5   BANK6   BANK7   BANK8   BANK9  BANK10  BANK1
      +1  BANK12  BANK13  BANK14  BANK15  BANK16  BANK17  BANK18  BANK19  BANK20  BANK21  BANK22  BANK23  BANK24  BANK25  BANK2
      +6  BANK27  BANK28  BANK29  BANK30  BANK31
  4084 ;;      Params:         0       0       0       0       0       0       0       0       0       0       0       0       
      +0       0       0       0       0       0       0       0       0       0       0       0       0       0       0       
      +0       0       0       0       0       0
  4085 ;;      Locals:         0       0       0       0       0       0       0       0       0       0       0       0       
      +0       0       0       0       0       0       0       0       0       0       0       0       0       0       0       
      +0       0       0       0       0       0
  4086 ;;      Temps:          0       0       0       0       0       0       0       0       0       0       0       0       
      +0       0       0       0       0       0       0       0       0       0       0       0       0       0       0       
      +0       0       0       0       0       0
  4087 ;;      Totals:         0       0       0       0       0       0       0       0       0       0       0       0       
      +0       0       0       0       0       0       0       0       0       0       0       0       0       0       0       
      +0       0       0       0       0       0
  4088 ;;Total ram usage:        0 bytes
  4089 ;; Hardware stack levels used: 1
  4090 ;; This function calls:
  4091 ;;		Nothing
  4092 ;; This function is called by:
  4093 ;;		_cw
  4094 ;;		_dit
  4095 ;;		_dahspace
  4096 ;; This function uses a non-reentrant model
  4097 ;;
  4098                           
  4099                           	psect	text16
  4100  0039C4                     __ptext16:
  4101                           	callstack 0
  4102  0039C4                     _ditspace:
  4103                           	callstack 28
  4104  0039C4                     
  4105                           ;cw.c: 171:     T4CONbits.ON = 1;
  4106  0039C4  8EA0               	bsf	160,7,c	;volatile
  4107  0039C6                     l191:
  4108  0039C6  BEA0               	btfsc	160,7,c	;volatile
  4109  0039C8  EFE8  F01C         	goto	u11
  4110  0039CC  EFEA  F01C         	goto	u10
  4111  0039D0                     u11:
  4112  0039D0  EFE3  F01C         	goto	l191
  4113  0039D4                     u10:
  4114  0039D4  0012               	return		;funcret
  4115  0039D6                     __end_of_ditspace:
  4116                           	callstack 0
  4117                           
  4118                           	psect	rparam
  4119  0000                     
  4120                           	psect	idloc
  4121                           
  4122                           ;Config register IDLOC0 @ 0x200000
  4123                           ;	unspecified, using default values
  4124  200000                     	org	2097152
  4125  200000  0FFF               	dw	4095
  4126                           
  4127                           ;Config register IDLOC1 @ 0x200002
  4128                           ;	unspecified, using default values
  4129  200002                     	org	2097154
  4130  200002  0FFF               	dw	4095
  4131                           
  4132                           ;Config register IDLOC2 @ 0x200004
  4133                           ;	unspecified, using default values
  4134  200004                     	org	2097156
  4135  200004  0FFF               	dw	4095
  4136                           
  4137                           ;Config register IDLOC3 @ 0x200006
  4138                           ;	unspecified, using default values
  4139  200006                     	org	2097158
  4140  200006  0FFF               	dw	4095
  4141                           
  4142                           ;Config register IDLOC4 @ 0x200008
  4143                           ;	unspecified, using default values
  4144  200008                     	org	2097160
  4145  200008  0FFF               	dw	4095
  4146                           
  4147                           ;Config register IDLOC5 @ 0x20000A
  4148                           ;	unspecified, using default values
  4149  20000A                     	org	2097162
  4150  20000A  0FFF               	dw	4095
  4151                           
  4152                           ;Config register IDLOC6 @ 0x20000C
  4153                           ;	unspecified, using default values
  4154  20000C                     	org	2097164
  4155  20000C  0FFF               	dw	4095
  4156                           
  4157                           ;Config register IDLOC7 @ 0x20000E
  4158                           ;	unspecified, using default values
  4159  20000E                     	org	2097166
  4160  20000E  0FFF               	dw	4095
  4161                           
  4162                           	psect	config
  4163                           
  4164                           ;Config register CONFIG1L @ 0x300000
  4165                           ;	External Oscillator Selection
  4166                           ;	FEXTOSC = OFF, Oscillator not enabled
  4167                           ;	Reset Oscillator Selection
  4168                           ;	RSTOSC = LFINTOSC, Low-Frequency Oscillator
  4169  300000                     	org	3145728
  4170  300000  DC                 	db	220
  4171                           
  4172                           ;Config register CONFIG1H @ 0x300001
  4173                           ;	Clock out Enable bit
  4174                           ;	CLKOUTEN = OFF, CLKOUT function is disabled
  4175                           ;	PRLOCKED One-Way Set Enable bit
  4176                           ;	PR1WAY = ON, PRLOCK bit can be cleared and set only once
  4177                           ;	Clock Switch Enable bit
  4178                           ;	CSWEN = ON, Writing to NOSC and NDIV is allowed
  4179                           ;	Fail-Safe Clock Monitor Enable bit
  4180                           ;	FCMEN = ON, Fail-Safe Clock Monitor enabled
  4181  300001                     	org	3145729
  4182  300001  FF                 	db	255
  4183                           
  4184                           ;Config register CONFIG2L @ 0x300002
  4185                           ;	MCLR Enable bit
  4186                           ;	MCLRE = EXTMCLR, If LVP = 0, MCLR pin is MCLR; If LVP = 1, RE3 pin function is MCLR
  4187                           ;	Power-up timer selection bits
  4188                           ;	PWRTS = PWRT_OFF, PWRT is disabled
  4189                           ;	Multi-vector enable bit
  4190                           ;	MVECEN = ON, Multi-vector enabled, Vector table used for interrupts
  4191                           ;	IVTLOCK bit One-way set enable bit
  4192                           ;	IVT1WAY = ON, IVTLOCK bit can be cleared and set only once
  4193                           ;	Low Power BOR Enable bit
  4194                           ;	LPBOREN = OFF, ULPBOR disabled
  4195                           ;	Brown-out Reset Enable bits
  4196                           ;	BOREN = SBORDIS, Brown-out Reset enabled , SBOREN bit is ignored
  4197  300002                     	org	3145730
  4198  300002  FF                 	db	255
  4199                           
  4200                           ;Config register CONFIG2H @ 0x300003
  4201                           ;	Brown-out Reset Voltage Selection bits
  4202                           ;	BORV = VBOR_2P45, Brown-out Reset Voltage (VBOR) set to 2.45V
  4203                           ;	ZCD Disable bit
  4204                           ;	ZCD = OFF, ZCD disabled. ZCD can be enabled by setting the ZCDSEN bit of ZCDCON
  4205                           ;	PPSLOCK bit One-Way Set Enable bit
  4206                           ;	PPS1WAY = ON, PPSLOCK bit can be cleared and set only once; PPS registers remain locke
      +                          d after one clear/set cycle
  4207                           ;	Stack Full/Underflow Reset Enable bit
  4208                           ;	STVREN = ON, Stack full/underflow will cause Reset
  4209                           ;	Debugger Enable bit
  4210                           ;	DEBUG = OFF, Background debugger disabled
  4211                           ;	Extended Instruction Set Enable bit
  4212                           ;	XINST = OFF, Extended Instruction Set and Indexed Addressing Mode disabled
  4213  300003                     	org	3145731
  4214  300003  FF                 	db	255
  4215                           
  4216                           ;Config register CONFIG3L @ 0x300004
  4217                           ;	WDT Period selection bits
  4218                           ;	WDTCPS = WDTCPS_31, Divider ratio 1:65536; software control of WDTPS
  4219                           ;	WDT operating mode
  4220                           ;	WDTE = OFF, WDT Disabled; SWDTEN is ignored
  4221  300004                     	org	3145732
  4222  300004  9F                 	db	159
  4223                           
  4224                           ;Config register CONFIG3H @ 0x300005
  4225                           ;	WDT Window Select bits
  4226                           ;	WDTCWS = WDTCWS_7, window always open (100%); software control; keyed access not requi
      +                          red
  4227                           ;	WDT input clock selector
  4228                           ;	WDTCCS = SC, Software Control
  4229  300005                     	org	3145733
  4230  300005  FF                 	db	255
  4231                           
  4232                           ;Config register CONFIG4L @ 0x300006
  4233                           ;	Boot Block Size selection bits
  4234                           ;	BBSIZE = BBSIZE_512, Boot Block size is 512 words
  4235                           ;	Boot Block enable bit
  4236                           ;	BBEN = OFF, Boot block disabled
  4237                           ;	Storage Area Flash enable bit
  4238                           ;	SAFEN = OFF, SAF disabled
  4239                           ;	Application Block write protection bit
  4240                           ;	WRTAPP = OFF, Application Block not write protected
  4241  300006                     	org	3145734
  4242  300006  FF                 	db	255
  4243                           
  4244                           ;Config register CONFIG4H @ 0x300007
  4245                           ;	Configuration Register Write Protection bit
  4246                           ;	WRTB = OFF, Configuration registers (300000-30000Bh) not write-protected
  4247                           ;	Boot Block Write Protection bit
  4248                           ;	WRTC = OFF, Boot Block (000000-0007FFh) not write-protected
  4249                           ;	Data EEPROM Write Protection bit
  4250                           ;	WRTD = OFF, Data EEPROM not write-protected
  4251                           ;	SAF Write protection bit
  4252                           ;	WRTSAF = OFF, SAF not Write Protected
  4253                           ;	Low Voltage Programming Enable bit
  4254                           ;	LVP = OFF, HV on MCLR/VPP must be used for programming
  4255  300007                     	org	3145735
  4256  300007  DF                 	db	223
  4257                           
  4258                           ;Config register CONFIG5L @ 0x300008
  4259                           ;	PFM and Data EEPROM Code Protection bit
  4260                           ;	CP = OFF, PFM and Data EEPROM code protection disabled
  4261  300008                     	org	3145736
  4262  300008  FF                 	db	255
  4263                           
  4264                           ;Config register CONFIG5H @ 0x300009
  4265                           ;	unspecified, using default values
  4266  300009                     	org	3145737
  4267  300009  FF                 	db	255
  4268                           tosu	equ	0x3FFF
  4269                           tosh	equ	0x3FFE
  4270                           tosl	equ	0x3FFD
  4271                           stkptr	equ	0x3FFC
  4272                           pclatu	equ	0x3FFB
  4273                           pclath	equ	0x3FFA
  4274                           pcl	equ	0x3FF9
  4275                           tblptru	equ	0x3FF8
  4276                           tblptrh	equ	0x3FF7
  4277                           tblptrl	equ	0x3FF6
  4278                           tablat	equ	0x3FF5
  4279                           prodh	equ	0x3FF4
  4280                           prodl	equ	0x3FF3
  4281                           indf0	equ	0x3FEF
  4282                           postinc0	equ	0x3FEE
  4283                           postdec0	equ	0x3FED
  4284                           preinc0	equ	0x3FEC
  4285                           plusw0	equ	0x3FEB
  4286                           fsr0h	equ	0x3FEA
  4287                           fsr0l	equ	0x3FE9
  4288                           wreg	equ	0x3FE8
  4289                           indf1	equ	0x3FE7
  4290                           postinc1	equ	0x3FE6
  4291                           postdec1	equ	0x3FE5
  4292                           preinc1	equ	0x3FE4
  4293                           plusw1	equ	0x3FE3
  4294                           fsr1h	equ	0x3FE2
  4295                           fsr1l	equ	0x3FE1
  4296                           bsr	equ	0x3FE0
  4297                           indf2	equ	0x3FDF
  4298                           postinc2	equ	0x3FDE
  4299                           postdec2	equ	0x3FDD
  4300                           preinc2	equ	0x3FDC
  4301                           plusw2	equ	0x3FDB
  4302                           fsr2h	equ	0x3FDA
  4303                           fsr2l	equ	0x3FD9
  4304                           status	equ	0x3FD8

Data Sizes:
    Strings     15
    Constant    0
    Data        0
    BSS         2
    Persistent  0
    Stack       0

Auto Spaces:
    Space          Size  Autos    Used
    COMRAM           95     86      88
    BANK0           160     10      10
    BANK1           256      0       0
    BANK2           256      0       0
    BANK3           256      0       0
    BANK4           256      0       0
    BANK5           256      0       0
    BANK6           256      0       0
    BANK7           256      0       0
    BANK8           256      0       0
    BANK9           256      0       0
    BANK10          256      0       0
    BANK11          256      0       0
    BANK12          256      0       0
    BANK13          256      0       0
    BANK14          256      0       0
    BANK15          256      0       0
    BANK16          256      0       0
    BANK17          256      0       0
    BANK18          256      0       0
    BANK19          256      0       0
    BANK20          256      0       0
    BANK21          256      0       0
    BANK22          256      0       0
    BANK23          256      0       0
    BANK24          256      0       0
    BANK25          256      0       0
    BANK26          256      0       0
    BANK27          256      0       0
    BANK28          256      0       0
    BANK29          256      0       0
    BANK30          256      0       0
    BANK31          256      0       0

Pointer List with Targets:

    cw_message@message	PTR unsigned char  size(2) Largest target is 6
		 -> STR_4(CODE[6]), STR_3(CODE[3]), STR_2(CODE[6]), STR_1(CODE[6]), 


Critical Paths under _main in COMRAM

    _main->_initialize_tone_generator
    _initialize_tone_generator->___fltol
    ___fltol->___fladd
    ___flmul->___fldiv
    ___fladd->___flmul
    _initialize_cw->_tone_enable
    _deinitialize_cw->_tone_enable
    _cw_message->_cw
    _cw->_dahspace
    _dah->_dahspace

Critical Paths under _main in BANK0

    _main->_initialize_tone_generator

Critical Paths under _main in BANK1

    None.

Critical Paths under _main in BANK2

    None.

Critical Paths under _main in BANK3

    None.

Critical Paths under _main in BANK4

    None.

Critical Paths under _main in BANK5

    None.

Critical Paths under _main in BANK6

    None.

Critical Paths under _main in BANK7

    None.

Critical Paths under _main in BANK8

    None.

Critical Paths under _main in BANK9

    None.

Critical Paths under _main in BANK10

    None.

Critical Paths under _main in BANK11

    None.

Critical Paths under _main in BANK12

    None.

Critical Paths under _main in BANK13

    None.

Critical Paths under _main in BANK14

    None.

Critical Paths under _main in BANK15

    None.

Critical Paths under _main in BANK16

    None.

Critical Paths under _main in BANK17

    None.

Critical Paths under _main in BANK18

    None.

Critical Paths under _main in BANK19

    None.

Critical Paths under _main in BANK20

    None.

Critical Paths under _main in BANK21

    None.

Critical Paths under _main in BANK22

    None.

Critical Paths under _main in BANK23

    None.

Critical Paths under _main in BANK24

    None.

Critical Paths under _main in BANK25

    None.

Critical Paths under _main in BANK26

    None.

Critical Paths under _main in BANK27

    None.

Critical Paths under _main in BANK28

    None.

Critical Paths under _main in BANK29

    None.

Critical Paths under _main in BANK30

    None.

Critical Paths under _main in BANK31

    None.

Call Graph Tables:

 ---------------------------------------------------------------------------------
 (Depth) Function   	        Calls       Base Space   Used Autos Params    Refs
 ---------------------------------------------------------------------------------
 (0) _main                                                 3     3      0    7993
                         _cw_message
                    _deinitialize_cw
        _deinitialize_tone_generator
                      _initialize_cw
          _initialize_tone_generator
 ---------------------------------------------------------------------------------
 (1) _initialize_tone_generator                           22    14      8    6969
                                             76 COMRAM    10     2      8
                                              0 BANK0     10    10      0
                            ___fladd
                            ___fldiv
                            ___flmul
                            ___fltol
                           ___xxtofl
 ---------------------------------------------------------------------------------
 (2) ___xxtofl                                            14    10      4     398
                                              0 COMRAM    14    10      4
 ---------------------------------------------------------------------------------
 (2) ___fltol                                             10     6      4     381
                                             66 COMRAM    10     6      4
                            ___fladd (ARG)
                            ___fldiv (ARG)
                            ___flmul (ARG)
                           ___xxtofl (ARG)
 ---------------------------------------------------------------------------------
 (2) ___flmul                                             25    17      8    1744
                                             25 COMRAM    25    17      8
                            ___fldiv (ARG)
 ---------------------------------------------------------------------------------
 (2) ___fldiv                                             25    17      8    1551
                                              0 COMRAM    25    17      8
 ---------------------------------------------------------------------------------
 (2) ___fladd                                             16     8      8    2540
                                             50 COMRAM    16     8      8
                            ___fldiv (ARG)
                            ___flmul (ARG)
                           ___xxtofl (ARG)
 ---------------------------------------------------------------------------------
 (1) _initialize_cw                                        2     0      2     113
                                              1 COMRAM     2     0      2
                        _tone_enable
 ---------------------------------------------------------------------------------
 (1) _deinitialize_tone_generator                          0     0      0       0
 ---------------------------------------------------------------------------------
 (1) _deinitialize_cw                                      0     0      0      15
                        _tone_enable
 ---------------------------------------------------------------------------------
 (2) _tone_enable                                          1     1      0      15
                                              0 COMRAM     1     1      0
 ---------------------------------------------------------------------------------
 (1) _cw_message                                           8     4      4     803
                                              5 COMRAM     8     4      4
                                 _cw
                           _dahspace
 ---------------------------------------------------------------------------------
 (2) _cw                                                   3     3      0      75
                                              2 COMRAM     3     3      0
                                _dah
                           _dahspace
                                _dit
                           _ditspace
 ---------------------------------------------------------------------------------
 (3) _dit                                                  0     0      0       0
                           _ditspace
 ---------------------------------------------------------------------------------
 (3) _dah                                                  0     0      0      30
                           _dahspace
 ---------------------------------------------------------------------------------
 (2) _dahspace                                             2     2      0      30
                                              0 COMRAM     2     2      0
                           _ditspace
 ---------------------------------------------------------------------------------
 (3) _ditspace                                             0     0      0       0
 ---------------------------------------------------------------------------------
 Estimated maximum stack depth 3
 ---------------------------------------------------------------------------------

 Call Graph Graphs:

 _main (ROOT)
   _cw_message
     _cw
       _dah
         _dahspace
           _ditspace
       _dahspace
       _dit
         _ditspace
       _ditspace
     _dahspace
   _deinitialize_cw
     _tone_enable
   _deinitialize_tone_generator
   _initialize_cw
     _tone_enable
   _initialize_tone_generator
     ___fladd
       ___fldiv (ARG)
       ___flmul (ARG)
         ___fldiv (ARG)
       ___xxtofl (ARG)
     ___fldiv
     ___flmul
     ___fltol
       ___fladd (ARG)
       ___fldiv (ARG)
       ___flmul (ARG)
       ___xxtofl (ARG)
     ___xxtofl

 Address spaces:
Name               Size   Autos  Total    Cost      Usage
BIGRAM            1FFF      0       0      69        0.0%
EEDATA             400      0       0       0        0.0%
BITBANK31          100      0       0      67        0.0%
BANK31             100      0       0      68        0.0%
BITBANK30          100      0       0      65        0.0%
BANK30             100      0       0      66        0.0%
BITBANK29          100      0       0      63        0.0%
BANK29             100      0       0      64        0.0%
BITBANK28          100      0       0      61        0.0%
BANK28             100      0       0      62        0.0%
BITBANK27          100      0       0      59        0.0%
BANK27             100      0       0      60        0.0%
BITBANK26          100      0       0      56        0.0%
BANK26             100      0       0      57        0.0%
BITBANK25          100      0       0      54        0.0%
BANK25             100      0       0      55        0.0%
BITBANK24          100      0       0      52        0.0%
BANK24             100      0       0      53        0.0%
BITBANK23          100      0       0      50        0.0%
BANK23             100      0       0      51        0.0%
BITBANK22          100      0       0      48        0.0%
BANK22             100      0       0      49        0.0%
BITBANK21          100      0       0      46        0.0%
BANK21             100      0       0      47        0.0%
BITBANK20          100      0       0      44        0.0%
BANK20             100      0       0      45        0.0%
BITBANK19          100      0       0      42        0.0%
BANK19             100      0       0      43        0.0%
BITBANK18          100      0       0      40        0.0%
BANK18             100      0       0      41        0.0%
BITBANK17          100      0       0      38        0.0%
BANK17             100      0       0      39        0.0%
BITBANK16          100      0       0      36        0.0%
BANK16             100      0       0      37        0.0%
BITBANK15          100      0       0      34        0.0%
BANK15             100      0       0      35        0.0%
BITBANK14          100      0       0      32        0.0%
BANK14             100      0       0      33        0.0%
BITBANK13          100      0       0      30        0.0%
BANK13             100      0       0      31        0.0%
BITBANK12          100      0       0      28        0.0%
BANK12             100      0       0      29        0.0%
BITBANK11          100      0       0      26        0.0%
BANK11             100      0       0      27        0.0%
BITBANK10          100      0       0      24        0.0%
BANK10             100      0       0      25        0.0%
BITBANK9           100      0       0      22        0.0%
BANK9              100      0       0      23        0.0%
BITBANK8           100      0       0      20        0.0%
BANK8              100      0       0      21        0.0%
BITBANK7           100      0       0      18        0.0%
BANK7              100      0       0      19        0.0%
BITBANK6           100      0       0      16        0.0%
BANK6              100      0       0      17        0.0%
BITBANK5           100      0       0      14        0.0%
BANK5              100      0       0      15        0.0%
BITBANK4           100      0       0      12        0.0%
BANK4              100      0       0      13        0.0%
BITBANK3           100      0       0      10        0.0%
BANK3              100      0       0      11        0.0%
BITBANK2           100      0       0       8        0.0%
BANK2              100      0       0       9        0.0%
BITBANK1           100      0       0       6        0.0%
BANK1              100      0       0       7        0.0%
BITBANK0            A0      0       0       4        0.0%
BANK0               A0      A       A       5        6.2%
BITCOMRAM           5F      0       0       0        0.0%
COMRAM              5F     56      58       1       92.6%
BITSFR_8             0      0       0     200        0.0%
SFR_8                0      0       0     200        0.0%
BITSFR_7             0      0       0     200        0.0%
SFR_7                0      0       0     200        0.0%
BITSFR_6             0      0       0     200        0.0%
SFR_6                0      0       0     200        0.0%
BITSFR_5             0      0       0     200        0.0%
SFR_5                0      0       0     200        0.0%
BITSFR_4             0      0       0     200        0.0%
SFR_4                0      0       0     200        0.0%
BITSFR_3             0      0       0     200        0.0%
SFR_3                0      0       0     200        0.0%
BITSFR_2             0      0       0     200        0.0%
SFR_2                0      0       0     200        0.0%
BITSFR_1             0      0       0     200        0.0%
SFR_1                0      0       0     200        0.0%
BITSFR               0      0       0     200        0.0%
SFR                  0      0       0     200        0.0%
STACK                0      0       0       2        0.0%
NULL                 0      0       0       0        0.0%
ABS                  0      0      62      58        0.0%
DATA                 0      0      62       3        0.0%
CODE                 0      0       0       0        0.0%


Microchip Technology PIC18 Macro Assembler V2.32 build 20210201212658 
Symbol Table                                                                                   Sat Apr 03 21:30:02 2021

                         ___fldiv@aexp 0019                           ___fldiv@bexp 0018  
                          _tone_enable 39A8                           ___fldiv@sign 0011  
                                   l31 385C                                     l32 3868  
                                   l34 3876                                     l35 387E  
                                   l37 388C                                     l38 38D8  
                                   l39 38D8                                     l91 39FC  
                                   l88 3978                                     l97 3932  
                                   u10 39D4                                     u11 39D0  
                                   u20 39A6                                     u21 39A2  
                                   u30 39BA                                     u31 39B6  
                                   _cw 2012                                    ?_cw 0001  
                                  l220 373A                                    l231 39C2  
                                  l223 3748                                    l226 3A0E  
                                  l229 39C0                                    l182 276A  
                                  l191 39C6                                    l185 39F0  
                                  l194 39D4                                    l531 384E  
                                  l188 39E2                                    l199 39A6  
                                  l821 3236                                    l830 331E  
                                  l903 355E                                    l816 3412  
                                  l921 39D6                                    l762 295A  
                                  l818 3272                                    l907 39C4  
                                  l915 3982                                    l931 39EC  
                                  l923 39DA                                    l771 2C2A  
                                  l763 2948                                    l827 32B8  
                                  l764 290E                                    l852 3078  
                                  l917 3986                                    l909 397A  
                                  l925 39DE                                    l941 2020  
                                  l933 39AA                                    l829 3330  
                                  l919 398A                                    l927 39E4  
                                  l951 2038                                    l943 2024  
                                  l935 39BA                                    l855 2F0A  
                                  l848 2CF0                                    l929 39E8  
                                  l961 2054                                    l953 203C  
                                  l945 202C                                    l937 2014  
                                  l865 303A                                    l857 2F82  
                                  l858 2F70                                    l971 2070  
                                  l963 2058                                    l955 2040  
                                  l947 2030                                    l939 2018  
                                  l779 2A74                                    l788 2B44  
                                  l892 35C6                                    l981 2078  
                                  l965 205C                                    l957 2044  
                                  l949 2034                                    l789 2B32  
                                  l967 2060                                    l959 2050  
                                  l896 3502                                    l985 2080  
                                  l889 346A                                    l995 209C  
                                  l987 2090                                    l989 2094  
                                  _dah 39E4                                    _dit 39D6  
                                  wreg 003FE8                           ___flmul@aexp 002B  
                         ___flmul@bexp 002C                           ___flmul@sign 0026  
                         ___flmul@temp 0031                           ___flmul@prod 002D  
                                 ??_cw 0003                           ___fltol@exp1 004C  
                                 l1011 20D4                                   l1003 20A4  
                                 l1013 20DC                                   l1103 2160  
                                 l1023 20F0                                   l1015 20E0  
                                 l1007 20C4                                   l1121 21B4  
                                 l1041 2110                                   l1025 20F4  
                                 l1017 20E8                                   ?_dah 0001  
                                 l1211 22AC                                   l1203 227C  
                                 l1131 21D8                                   l1123 21BC  
                                 l1115 2198                                   l1107 2178  
                                 l1035 2100                                   l1027 20F8  
                                 l1301 2338                                   l1125 21C0  
                                 l1109 2184                                   l1037 2108  
                                 l1311 235C                                   l1303 233C  
                                 l1207 22A4                                   l1143 21E0  
                                 l1127 21D0                                   l1063 2128  
                                 l1039 210C                                   l1313 236C  
                                 l1305 2340                                   l1233 22DC  
                                 l1225 22B4                                   l1209 22A8  
                                 l1161 21F8                                   l1145 21E4  
                                 l1129 21D4                                   l1073 213C  
                                 l1065 212C                                   l1057 2120  
                                 l1049 2118                                   l1411 23D8  
                                 l1331 238C                                   l1315 2370  
                                 l1251 22F0                                   l1235 22E0  
                                 l1227 22B8                                   l1147 21E8  
                                 l1075 2144                                   l1067 2130  
                                 l1501 2478                                   l1413 23E0  
                                 l1333 2390                                   l1325 237C  
                                 l1253 22F4                                   l1237 22E4  
                                 l1229 22BC                                   l1165 2210  
                                 l1157 21F0                                   l1093 2154  
                                 l1077 2148                                   l2301 2884  
                                 l1511 2484                                   l1431 23FC  
                                 l1415 23E4                                   l1407 23CC  
                                 l1351 23A4                                   l1335 2394  
                                 l1327 2380                                   l1255 22F8  
                                 l1191 223C                                   l1167 2218  
                                 l1159 21F4                                   l2311 2898  
                                 l2303 2888                                   l1513 2488  
                                 l1433 2400                                   l1425 23F0  
                                 l1409 23D4                                   l1329 2384  
                                 l1281 2318                                   l1265 2304  
                                 l1169 221C                                   l2161 39F2  
                                 l2401 2AF4                                   l2313 289C  
                                 l2305 288C                                   l2321 28AC  
                                 l1531 24C0                                   l1515 248C  
                                 l1443 2418                                   l1435 2408  
                                 l1427 23F4                                   l1371 23BC  
                                 l1363 23AC                                   l1347 239C  
                                 l1283 2320                                   l1267 2308  
                                 l1179 2228                                   l2163 39F6  
                                 l2403 2B02                                   l2331 291C  
                                 l2323 28B0                                   l2315 28A0  
                                 l2307 2890                                   l2251 2798  
                                 l2243 276C                                   l1541 24CC  
                                 l1533 24C4                                   l1517 2490  
                                 l1509 2480                                   l1461 2434  
                                 l1445 2428                                   l1437 240C  
                                 l1429 23F8                                   l1365 23B0  
                                 l1349 23A0                                   l1285 2324  
                                 l1269 230C                                   l1197 2258  
                                 l2165 3A08                                   l2413 2B54  
                                 l2421 2BAA                                   l2405 2B06  
                                 l2341 2946                                   l2333 2928  
                                 l2325 28DA                                   l2317 28A4  
                                 l2309 2894                                   l2261 27D2  
                                 l2253 27A8                                   l2245 2778  
                                 l1527 24A4                                   l1463 2438  
                                 l1439 2410                                   l1367 23B4  
                                 l1287 2328                                   l2167 3A0C  
                                 l2431 2BFC                                   l2423 2BBA  
                                 l2415 2B60                                   l2407 2B14  
                                 l2351 299C                                   l2343 2968  
                                 l2335 292C                                   l2327 28F6  
                                 l2319 28A8                                   l2271 2800  
                                 l2263 27D8                                   l2255 27B8  
                                 l2247 2786                                   l2511 31FA  
                                 l2503 31B0                                   l1529 24BC  
                                 l1473 2454                                   l1465 243C  
                                 l1369 23B8                                   l1289 232C  
                                 l1545 24D8                                   l2441 2C1A  
                                 l2433 2C02                                   l2425 2BCA  
                                 l2417 2B6E                                   l2409 2B2A  
                                 l2361 29D6                                   l2353 29AA  
                                 l2345 2978                                   l2337 293A  
                                 l2329 2906                                   l2281 2834  
                                 l2273 2802                                   l2265 27EA  
                                 l2257 27BA                                   l2249 2788  
                                 l2521 3240                                   l2513 3202  
                                 l2505 31CA                                   l2601 2C94  
                                 l1491 2460                                   l1467 2440  
                                 l1459 2430                                   l1387 23C4  
                                 l2435 2C04                                   l2427 2BEA  
                                 l2419 2BA8                                   l2371 2A42  
                                 l2363 29D8                                   l2355 29B8  
                                 l2339 293C                                   l2291 2870  
                                 l2275 2812                                   l2283 283C  
                                 l2267 27EC                                   l2259 27C2  
                                 l2531 3298                                   l2523 325E  
                                 l2515 3212                                   l2507 31DA  
                                 l2451 3096                                   l2611 2CCA  
                                 l2603 2C9A                                   l1493 2468  
                                 l2437 2C0A                                   l2429 2BEE  
                                 l2381 2A9A                                   l2373 2A44  
                                 l2365 29E2                                   l2357 29C4  
                                 l2349 298C                                   l2293 2874  
                                 l2285 284C                                   l2277 2822  
                                 l2269 27F2                                   l2541 32D6  
                                 l2533 329E                                   l2525 3260  
                                 l2517 3226                                   l2509 31EA  
                                 l2453 30A6                                   l2461 30D0  
                                 l2445 307A                                   l2701 304E  
                                 l2613 2CDA                                   l2605 2CA8  
                                 ?_dit 0001                                   l1495 246C  
                                 l2439 2C18                                   l2391 2AC8  
                                 l2375 2A54                                   l2359 29C8  
                                 l2367 29E8                                   l2295 2878  
                                 l2287 285E                                   l2279 2832  
                                 l2551 3340                                   l2543 32DA  
                                 l2535 32A8                                   l2527 3270  
                                 l2519 3234                                   l2471 30FC  
                                 l2463 30E0                                   l2455 30B6  
                                 l2447 3086                                   l2703 305C  
                                 l2631 2D64                                   l2623 2D24  
                                 l2615 2CE0                                   l2607 2CAA  
                                 l1497 2470                                   l2393 2AD6  
                                 l2385 2AAE                                   l2369 2A0E  
                                 l2377 2A64                                   l2297 287C  
                                 l2289 286C                                   l2561 33A2  
                                 l2553 334C                                   l2545 32E8  
                                 l2537 32B6                                   l2529 3282  
                                 l2473 310C                                   l2481 3136  
                                 l2465 30E6                                   l2457 30C6  
                                 l2449 3094                                   l2705 305E  
                                 l2641 2DB6                                   l2633 2D80  
                                 l2625 2D34                                   l2617 2D00  
                                 l2609 2CBA                                   l2721 379E  
                                 l2713 374A                                   l1499 2474  
                                 l2395 2ADE                                   l2387 2AB8  
                                 l2379 2A8A                                   l2299 2880  
                                 l2571 3400                                   l2563 33B8  
                                 l2555 335A                                   l2547 3316  
                                 l2539 32C8                                   l2491 3178  
                                 l2483 3146                                   l2475 311C  
                                 l2467 30EC                                   l2459 30C8  
                                 l2707 3064                                   l2651 2E14  
                                 l2643 2DC6                                   l2635 2D8C  
                                 l2627 2D3E                                   l2619 2D10  
                                 l2723 37A0                                   l2715 3760  
                                 l2811 36EC                                   l2803 35C8  
                                 l2397 2AE2                                   l2389 2AC6  
                                 l2573 3406                                   l2565 33D2  
                                 l2557 3384                                   l2485 315C  
                                 l2477 312C                                   l2469 30FA  
                                 l2709 3068                                   l2661 2EC4  
                                 l2653 2E34                                   l2645 2DD6  
                                 l2637 2D98                                   l2629 2D58  
                                 l2725 37B0                                   l2821 3716  
                                 l2813 36F6                                   l2805 3620  
                                 l2831 3934                                   l2399 2AF2  
                                 l2575 3408                                   l2567 33EE  
                                 l2559 3388                                   l2487 316C  
                                 l2495 318C                                   l2479 312E  
                                 l2671 2F1A                                   l2663 2ED2  
                                 l2655 2E44                                   l2647 2DE6  
                                 l2639 2DA6                                   l2591 2C58  
                                 l2583 2C2C                                   l2751 382E  
                                 l2735 37DA                                   l2727 37B4  
                                 l2719 3774                                   l2823 372E  
                                 l2815 36F8                                   l2807 3684  
                                 l2841 3970                                   l2833 393A  
                                 l2569 33F2                                   l2497 319C  
                                 l2489 3174                                   l2673 2F28  
                                 l2665 2EF0                                   l2657 2E64  
                                 l2649 2E04                                   l2593 2C68  
                                 l2585 2C38                                   l2753 383E  
                                 l2745 3802                                   l2737 37E4  
                                 l2729 37C2                                   l2761 3434  
                                 l2825 3732                                   l2817 36FC  
                                 l2809 36EC                                   l2851 392A  
                                 l2843 38E0                                   l2835 3950  
                                 l2499 319C                                   l2683 2F92  
                                 l2691 2FDA                                   l2675 2F2C  
                                 l2667 2EFA                                   l2659 2E8E  
                                 l2595 2C78                                   l2587 2C46  
                                 l2747 380E                                   l2739 37EE  
                                 l2771 34AC                                   l2763 347A  
                                 l2827 3734                                   l2819 3702  
                                 l2845 38EC                                   l2837 3954  
                                 l2693 2FF4                                   l2685 2F9E  
                                 l2677 2F3A                                   l2669 2F08  
                                 l2597 2C7E                                   l2589 2C48  
                                 l2749 381E                                   l2781 3534  
                                 l2773 34B8                                   l2765 3490  
                                 l2757 3416                                   l2829 3738  
                                 l2861 3866                                   l2853 3850  
                                 l2927 24EC                                   l2847 3910  
                                 l2839 396A                                   l2695 3008  
                                 l2687 2FAC                                   l2679 2F68  
                                 l2599 2C8E                                   l2791 3572  
                                 l2783 3540                                   l2775 34EA  
                                 l2759 3426                                   l2871 38D4  
                                 l2863 3890                                   l2855 3856  
                                 l2849 3914                                   l2697 3022  
                                 l2689 2FD6                                   l2793 3596  
                                 l2785 354E                                   l2777 34EC  
                                 l2769 34A4                                   l2865 38B4  
                                 l2857 3858                                   l2699 303E  
                                 l2795 35A6                                   l2787 356C  
                                 l2779 34F8                                   l2867 38C0  
                                 l2859 385A                                   l2797 35B4  
                                 l2789 356E                                   l2869 38C0  
                                 l2799 35B6                                   STR_1 2007  
                                 STR_2 2001                                   STR_3 200D  
                                 u1100 2800                                   u1101 27FC  
                                 u1110 2812                                   u1111 280E  
                                 u1200 295A                                   u1120 2822  
                                 u2000 355E                                   u1201 2956  
                                 u1121 281E                                   u2001 355A  
                                 u1210 2968                                   u1130 285E  
                                 u2010 356C                                   u1211 2964  
                                 u1131 285A                                   u2011 3568  
                                 u1300 2AC6                                   u1220 2978  
                                 u1140 286C                                   u1060 2786  
                                 u2020 35A6                                   u1301 2AC2  
                                 u1221 2974                                   u1141 2868  
                                 u1061 2782                                   u2021 35A2  
                                 u1310 2AD6                                   u1230 29AA  
                                 u1150 28DA                                   u1070 2798  
                                 u2030 35B4                                   u1311 2AD2  
                                 u1231 29A6                                   u1151 28D6  
                                 u1071 2794                                   u2031 35B0  
                                 u1400 2BBA                                   u1320 2AF2  
                                 u1240 29B8                                   u1160 28F2  
                                 u1080 27A8                                   u2040 3748  
                                 u1401 2BB6                                   u1321 2AEE  
                                 u1241 29B4                                   u1161 28EC  
                                 u1081 27A4                                   u2041 3744  
                                 u2050 392A                                   u1410 2BCA  
                                 u1330 2B02                                   u1250 29D6  
                                 u1170 28F4                                   u1090 27EA  
                                 u2051 3926                                   u1411 2BC6  
                                 u1331 2AFE                                   u1251 29D2  
                                 u1091 27E6                                   u1420 2BEA  
                                 u1340 2B14                                   u1260 2A0E  
                                 u1180 291C                                   u1500 311C  
                                 u2060 3876                                   u1421 2BE6  
                                 u1341 2B10                                   u1261 2A0A  
                                 u1181 2918                                   u1501 3118  
                                 u2061 3872                                   u1430 2BFC  
                                 u1350 2B2A                                   u1270 2A54  
                                 u1190 293A                                   u1510 315C  
                                 u2070 388C                                   u1431 2BF8  
                                 u1351 2B26                                   u1271 2A50  
                                 u1191 2936                                   u1511 3158  
                                 u2071 3888                                   u1440 2C18  
                                 u1360 2B40                                   u1280 2A8A  
                                 u1600 32E8                                   u1520 319C  
                                 u1441 2C14                                   u1361 2B3C  
                                 u1281 2A86                                   u1601 32E4  
                                 u1521 3198                                   u1370 2B54  
                                 u1290 2A9A                                   u1610 3316  
                                 u1530 3212                                   u1450 3094  
                                 u1371 2B50                                   u1291 2A96  
                                 u1611 3312                                   u1531 320E  
                                 u1451 3090                                   u1380 2B6E  
                                 u1620 332C                                   u1540 3234  
                                 u1460 30A6                                   u1700 2C68  
                                 u1381 2B6A                                   u1621 3328  
                                 u1541 3230                                   u1461 30A2  
                                 u1701 2C64                                   u1390 2BA8  
                                 u1630 3340                                   u1550 325E  
                                 u1470 30B6                                   u1710 2CA8  
                                 u1391 2BA4                                   u1631 333C  
                                 u1551 325A                                   u1471 30B2  
                                 u1711 2CA4                                   u1640 335A  
                                 u1560 3282                                   u1480 30FA  
                                 u1800 2F68                                   u1720 2CBA  
                                 u1641 3356                                   u1561 327E  
                                 u1481 30F6                                   u1801 2F64  
                                 u1721 2CB6                                   u1650 33A2  
                                 u1570 3298                                   u1490 310C  
                                 u1810 2F7E                                   u1730 2CCA  
                                 _T2PR 003FAB                                   u1651 339E  
                                 u1571 3294                                   u1491 3108  
                                 u1811 2F7A                                   u1731 2CC6  
                                 u1660 33D2                                   u1580 32B6  
                                 u1820 2F92                                   u1740 2D00  
                                 u1900 37D6                                   u1661 33CE  
                                 u1581 32B2                                   u1821 2F8E  
                                 u1741 2CFC                                   u1901 37D2  
                                 u1670 3400                                   u1590 32D6  
                                 u1830 2FAC                                   u1750 2D10  
                                 u1910 37FE                                   u1671 33FC  
                                 u1591 32D2                                   u1831 2FA8  
                                 u1751 2D0C                                   u1911 37FA  
                                 u1840 2FF4                                   u1760 2EAE  
                                 u1680 2C46                                   u1920 381E  
                                 u1841 2FF0                                   u1681 2C42  
                                 u1921 381A                                   u1850 3022  
                                 u1770 2F08                                   u1690 2C58  
                                 u1930 382E                                   u1851 301E  
                                 u1771 2F04                                   u1691 2C54  
                                 u1931 382A                                   u1860 305C  
                                 u1780 2F28                                   u1940 3426  
                                 u1861 3058                                   u1781 2F24  
                                 u1765 2EA4                                   u1941 3422  
                                 u1790 2F3A                                   u1870 3760  
                                 u1950 3434                                   u1791 2F36  
                                 u1871 375C                                   u1951 3430  
                                 u1880 3794                                   u1960 3490  
                                 u1961 348C                                   u1890 37C2  
                                 u1970 34E6                                   u1891 37BE  
                                 u1971 34E2                                   u1980 3530  
                                 u1885 378A                                   u1981 352C  
                                 u1990 354E                                   u1991 354A  
                                 _main 3850                                   prodh 003FF4  
                                 prodl 003FF3                                   start FFFC  
                      ___fldiv@new_exp 0012                           ___param_bank 000000  
                    cw_message@message 0006                                  ??_dah 0003  
                                ??_dit 0001                            cw_message@i 000C  
                        ___fltol@sign1 004B                        __end_of___fladd 2C2C  
                                ?_main 0001                        __end_of___fldiv 3414  
                      __end_of___flmul 307A                        __end_of___fltol 3850  
  __end_of_deinitialize_tone_generator 3A10            _deinitialize_tone_generator 3A08  
                                tablat 003FF5          ??_deinitialize_tone_generator 0001  
                                status 003FD8                     initialize_cw@speed 0002  
                      __initialization 39FE                           __end_of_main 38E0  
                               ??_main 0057                          __activetblptr 000003  
                               _ANSELA 003A40                                 _RC4PPS 003A14  
                     __end_of___xxtofl 35C8                       __end_of_dahspace 39A8  
   __size_of_initialize_tone_generator 0182                       __end_of_ditspace 39D6  
                            ??___fladd 003B                              ??___fldiv 0009  
                            ??___flmul 0022                              ??___fltol 0047  
                               isa$std 000001                           __mediumconst 0000  
                               tblptrh 003FF7                                 tblptrl 003FF6  
                               tblptru 003FF8                 cw_message@message_size 0008  
               __size_of_initialize_cw 0046                           ___xxtofl@arg 000B  
                         ___xxtofl@exp 000A                           ___xxtofl@val 0001  
                           __accesstop 0060                __end_of__initialization 3A02  
                        ___rparam_used 000001                             ___fltol@f1 0043  
                       __pcstackCOMRAM 0001      __end_of_initialize_tone_generator 374A  
                         ?_tone_enable 0001                             __end_of_cw 276C  
               tone_enable@tone_active 0001               __size_of_deinitialize_cw 000C  
                        _initialize_cw 3934                             _dit_length 0057  
                            ?___xxtofl 0001                              ?_dahspace 0001  
                              _PWM5CON 003F6E                              ?_ditspace 0001  
                           _cw_message 38E0                                __Hparam 0000  
                              __Lparam 0000                         ?_initialize_cw 0002  
                              ___fladd 276C                                ___fldiv 307A  
                              ___flmul 2C2C                                ___fltol 374A  
                         __psmallconst 2000                                __pcinit 39FE  
                              __ramtop 2000                                __ptext0 3850  
                              __ptext1 35C8                                __ptext2 3414  
                              __ptext3 374A                                __ptext4 2C2C  
                              __ptext5 307A                                __ptext6 276C  
                              __ptext7 3934                                __ptext8 3A08  
                              __ptext9 39F2                              _T2CLKbits 003FAE  
                            _T2CONbits 003FAC                           __size_of_dah 000E  
                         __size_of_dit 000E                              _T4CLKbits 003FA2  
                           ??___xxtofl 0005                             ??_dahspace 0001  
                            _T4CONbits 003FA0                              _T4HLTbits 003FA1  
                 end_of_initialization 3A02                             ??_ditspace 0001  
                    ??_deinitialize_cw 0002    initialize_tone_generator@duty_cycle 0068  
                 __size_of_tone_enable 001C                              _PORTAbits 003FCA  
                          ___fladd@grs 0042                          ___xxtofl@sign 0009  
                            _TRISAbits 003FC2                              _TRISCbits 003FC4  
                          ___fldiv@grs 0014                            ___fldiv@rem 000D  
                          ?_cw_message 0006                            ___flmul@grs 0027  
                      ??_initialize_cw 0004                    start_initialization 39FE  
                          __end_of_dah 39F2                            __end_of_dit 39E4  
                          _MD1CARHbits 003CFE             ?_initialize_tone_generator 004D  
                          _MD1CON0bits 003CFA                            _MD1CON1bits 003CFB  
                  __size_of_cw_message 0054  initialize_tone_generator@duty_cycle_l 0064  
                            ___fladd@a 0037                              ___fladd@b 0033  
                            ___fldiv@a 0005                              ___fldiv@b 0001  
                            ___flmul@a 001E                              ___flmul@b 001A  
                          __pbssCOMRAM 0057                          __pcstackBANK0 0060  
         ?_deinitialize_tone_generator 0001                      __size_of___xxtofl 01B4  
                    __size_of_dahspace 002E                      __size_of_ditspace 0012  
                             ?___fladd 0033                               ?___fldiv 0001  
                             ?___flmul 001A                               ?___fltol 0043  
                          __smallconst 2000                        _deinitialize_cw 39F2  
initialize_tone_generator@period_value 0066                            _CPUDOZEbits 0039D8  
                            dahspace@i 0001                            __size_of_cw 075A  
                             _T4PRbits 003F9F                               _PIR4bits 0039A4  
                          cw@character 0005                           ??_cw_message 000A  
       _initialize_tone_generator$1444 0060                               __Hrparam 0000  
                             __Lrparam 0000   __size_of_deinitialize_tone_generator 0008  
                        ??_tone_enable 0001                __end_of_deinitialize_cw 39FE  
                     __size_of___fladd 04C0                       __size_of___fldiv 039A  
                     __size_of___flmul 044E                       __size_of___fltol 0106  
                   __end_of_cw_message 3934                             _MD1SRCbits 003CFC  
                             ___xxtofl 3414                               _dahspace 397A  
                             __ptext10 39A8                               __ptext11 38E0  
                             __ptext12 2012                               __ptext13 39D6  
                             __ptext14 39E4                               __ptext15 397A  
                             __ptext16 39C4                               _ditspace 39C4  
                        __size_of_main 0090                  __end_of_initialize_cw 397A  
                             isa$xinst 000000            ??_initialize_tone_generator 0055  
                  __end_of_tone_enable 39C4                            _PWM5DCHbits 003F6D  
                          _PWM5DCLbits 003F6C                            _PWM5CONbits 003F6E  
                     ?_deinitialize_cw 0001                          ___fladd@signs 003F  
            _initialize_tone_generator 35C8      initialize_tone_generator@osc_freq 004D  
                         ___fladd@aexp 0040                           ___fladd@bexp 0041  
    initialize_tone_generator@pwm_freq 0051  
